gplink-2.2.37 (Jan 22 2024)
Listing File Generated: 2024-11-13  11:00:00
 
 
Address  Value    Disassembly              Source
-------  -----    -----------              ------
                                           ;--------------------------------------------------------
                                           ; external declarations
                                           ;--------------------------------------------------------
                                           	extern	_CLR_RAM
                                           	extern	_IO_Init
                                           	extern	_TIMER0_INT_Init
                                           	extern	_TIMER1_INT_Init
                                           	extern	_TIMER2_INT_Init
                                           	extern	_TIMER3_INT_Init
                                           	extern	_TIMER0_PWM_Init
                                           	extern	_TIMER1_PWM_Init
                                           	extern	_TIMER2_PWM_Init
                                           	extern	_ADC_Init
                                           	extern	_Scan_ADC
                                           	extern	_Set_ADC_Channel
                                           	extern	_ADC_Get_Value_Average
                                           	extern	_delay
                                           	extern	_INDF0bits
                                           	extern	_INDF1bits
                                           	extern	_INDF2bits
                                           	extern	_HIBYTEbits
                                           	extern	_FSR0bits
                                           	extern	_FSR1bits
                                           	extern	_PCLbits
                                           	extern	_PFLAGbits
                                           	extern	_MCRbits
                                           	extern	_INDF3bits
                                           	extern	_INTEbits
                                           	extern	_INTFbits
                                           	extern	_DRVCRbits
                                           	extern	_PFRCCRbits
                                           	extern	_P1KBCRbits
                                           	extern	_PFRCCALbits
                                           	extern	_IOP0bits
                                           	extern	_OEP0bits
                                           	extern	_PUP0bits
                                           	extern	_PDP0bits
                                           	extern	_IOP1bits
                                           	extern	_OEP1bits
                                           	extern	_PUP1bits
                                           	extern	_PDP1bits
                                           	extern	_T0CRbits
                                           	extern	_T0CNTbits
                                           	extern	_T0LOADbits
                                           	extern	_T0DATAbits
                                           	extern	_T1CRbits
                                           	extern	_T1CNTbits
                                           	extern	_T1LOADbits
                                           	extern	_T1DATAbits
                                           	extern	_T2CRbits
                                           	extern	_T2CNTbits
                                           	extern	_T2LOADbits
                                           	extern	_T2DATAbits
                                           	extern	_T3CRbits
                                           	extern	_T3CNTbits
                                           	extern	_T3LOADbits
                                           	extern	_PWM0DRbits
                                           	extern	_PWM1DRbits
                                           	extern	_PWM2DRbits
                                           	extern	_PWMCR0bits
                                           	extern	_PWMCR1bits
                                           	extern	_OSCMRbits
                                           	extern	_LVDCRbits
                                           	extern	_ADCR0bits
                                           	extern	_ADCR1bits
                                           	extern	_ADCR2bits
                                           	extern	_OSADJCRbits
                                           	extern	_ADRHbits
                                           	extern	_ADRLbits
                                           	extern	_ADIOS0bits
                                           	extern	_ADIOS1bits
                                           	extern	_PMODbits
                                           	extern	_PWMCR3bits
                                           	extern	_PWMCR2bits
                                           	extern	_PFRCAUXbits
                                           	extern	_HIRCCALbits
                                           	extern	_flag2
                                           	extern	_adc_data
                                           	extern	_INDF0
                                           	extern	_INDF1
                                           	extern	_INDF2
                                           	extern	_HIBYTE
                                           	extern	_FSR0
                                           	extern	_FSR1
                                           	extern	_PCL
                                           	extern	_PFLAG
                                           	extern	_MCR
                                           	extern	_INDF3
                                           	extern	_INTE
                                           	extern	_INTF
                                           	extern	_DRVCR
                                           	extern	_PFRCCR
                                           	extern	_P1KBCR
                                           	extern	_PFRCCAL
                                           	extern	_IOP0
                                           	extern	_OEP0
                                           	extern	_PUP0
                                           	extern	_PDP0
                                           	extern	_IOP1
                                           	extern	_OEP1
                                           	extern	_PUP1
                                           	extern	_PDP1
                                           	extern	_T0CR
                                           	extern	_T0CNT
                                           	extern	_T0LOAD
                                           	extern	_T0DATA
                                           	extern	_T1CR
                                           	extern	_T1CNT
                                           	extern	_T1LOAD
                                           	extern	_T1DATA
                                           	extern	_T2CR
                                           	extern	_T2CNT
                                           	extern	_T2LOAD
                                           	extern	_T2DATA
                                           	extern	_T3CR
                                           	extern	_T3CNT
                                           	extern	_T3LOAD
                                           	extern	_PWM0DR
                                           	extern	_PWM1DR
                                           	extern	_PWM2DR
                                           	extern	_PWMCR0
                                           	extern	_PWMCR1
                                           	extern	_OSCMR
                                           	extern	_LVDCR
                                           	extern	_ADCR0
                                           	extern	_ADCR1
                                           	extern	_ADCR2
                                           	extern	_OSADJCR
                                           	extern	_ADRH
                                           	extern	_ADRL
                                           	extern	_ADIOS0
                                           	extern	_ADIOS1
                                           	extern	_PMOD
                                           	extern	_PWMCR3
                                           	extern	_PWMCR2
                                           	extern	_PFRCAUX
                                           	extern	_HIRCCAL
                                           ;--------------------------------------------------------
                                           ; global declarations
                                           ;--------------------------------------------------------
                                           	global	_Sleep_Func
                                           	global	_Scan_Key
                                           	global	_Sys_Init
                                           	global	_main
                                           	global	_int_isr
                                           	global	_abuf
                                           	global	_statusbuf
                                           	global	_sleep_time
                                           	global	_key_per
                                           	global	_key_cur
                                           	global	_key_down
                                           	global	_key_keep
                                           	global	_int_time0
                                           	global	_Flag1
                                           	global	_Flag2
                                           
                                           	global STK06
                                           	global STK05
                                           	global STK04
                                           	global STK03
                                           	global STK02
                                           	global STK01
                                           	global STK00
                                           
                                           sharebank udata_ovr 0x0000
                                           STK06	res 1
                                           STK05	res 1
                                           STK04	res 1
                                           STK03	res 1
                                           STK02	res 1
                                           STK01	res 1
                                           STK00	res 1
                                           
                                           ;--------------------------------------------------------
                                           ; global definitions
                                           ;--------------------------------------------------------
                                           UD_MC32P7351_0	udata
                                           _abuf	res	1
                                           
                                           UD_MC32P7351_1	udata
                                           _statusbuf	res	1
                                           
                                           UD_MC32P7351_2	udata
                                           _sleep_time	res	1
                                           
                                           UD_MC32P7351_3	udata
                                           _key_per	res	1
                                           
                                           UD_MC32P7351_4	udata
                                           _key_cur	res	1
                                           
                                           UD_MC32P7351_5	udata
                                           _key_down	res	1
                                           
                                           UD_MC32P7351_6	udata
                                           _key_keep	res	1
                                           
                                           UD_MC32P7351_7	udata
                                           _int_time0	res	1
                                           
                                           UD_MC32P7351_8	udata
                                           _Flag1	res	1
                                           
                                           UD_MC32P7351_9	udata
                                           _Flag2	res	1
                                           
                                           ;--------------------------------------------------------
                                           ; absolute symbol definitions
                                           ;--------------------------------------------------------
                                           ;--------------------------------------------------------
                                           ; compiler-defined variables
                                           ;--------------------------------------------------------
                                           UDL_MC32P7351_0	udata
                                           r0x1008	res	1
                                           r0x1009	res	1
                                           r0x100A	res	1
                                           ;--------------------------------------------------------
                                           ; initialized data
                                           ;--------------------------------------------------------
                                           
                                           ;@Allocation info for local variables in function 'Sys_Init'
                                           ;@Sys_Init CLR_RAM                   Allocated to registers ;size:2
                                           ;@Sys_Init IO_Init                   Allocated to registers ;size:2
                                           ;@Sys_Init TIMER0_INT_Init           Allocated to registers ;size:2
                                           ;@Sys_Init TIMER1_INT_Init           Allocated to registers ;size:2
                                           ;@Sys_Init TIMER2_INT_Init           Allocated to registers ;size:2
                                           ;@Sys_Init TIMER3_INT_Init           Allocated to registers ;size:2
                                           ;@Sys_Init TIMER0_PWM_Init           Allocated to registers ;size:2
                                           ;@Sys_Init TIMER1_PWM_Init           Allocated to registers ;size:2
                                           ;@Sys_Init TIMER2_PWM_Init           Allocated to registers ;size:2
                                           ;@Sys_Init ADC_Init                  Allocated to registers ;size:2
                                           ;@Sys_Init Scan_ADC                  Allocated to registers ;size:2
                                           ;@Sys_Init Set_ADC_Channel           Allocated to registers ;size:2
                                           ;@Sys_Init ADC_Get_Value_Average     Allocated to registers ;size:2
                                           ;@Sys_Init Scan_Key                  Allocated to registers ;size:2
                                           ;@Sys_Init Sleep_Func                Allocated to registers ;size:2
                                           ;@Sys_Init delay                     Allocated to registers ;size:2
                                           ;@Sys_Init INDF0bits                 Allocated to registers ;size:1
                                           ;@Sys_Init INDF1bits                 Allocated to registers ;size:1
                                           ;@Sys_Init INDF2bits                 Allocated to registers ;size:1
                                           ;@Sys_Init HIBYTEbits                Allocated to registers ;size:1
                                           ;@Sys_Init FSR0bits                  Allocated to registers ;size:1
                                           ;@Sys_Init FSR1bits                  Allocated to registers ;size:1
                                           ;@Sys_Init PCLbits                   Allocated to registers ;size:1
                                           ;@Sys_Init PFLAGbits                 Allocated to registers ;size:1
                                           ;@Sys_Init MCRbits                   Allocated to registers ;size:1
                                           ;@Sys_Init INDF3bits                 Allocated to registers ;size:1
                                           ;@Sys_Init INTEbits                  Allocated to registers ;size:1
                                           ;@Sys_Init INTFbits                  Allocated to registers ;size:1
                                           ;@Sys_Init DRVCRbits                 Allocated to registers ;size:1
                                           ;@Sys_Init PFRCCRbits                Allocated to registers ;size:1
                                           ;@Sys_Init P1KBCRbits                Allocated to registers ;size:1
                                           ;@Sys_Init PFRCCALbits               Allocated to registers ;size:1
                                           ;@Sys_Init IOP0bits                  Allocated to registers ;size:1
                                           ;@Sys_Init OEP0bits                  Allocated to registers ;size:1
                                           ;@Sys_Init PUP0bits                  Allocated to registers ;size:1
                                           ;@Sys_Init PDP0bits                  Allocated to registers ;size:1
                                           ;@Sys_Init IOP1bits                  Allocated to registers ;size:1
                                           ;@Sys_Init OEP1bits                  Allocated to registers ;size:1
                                           ;@Sys_Init PUP1bits                  Allocated to registers ;size:1
                                           ;@Sys_Init PDP1bits                  Allocated to registers ;size:1
                                           ;@Sys_Init T0CRbits                  Allocated to registers ;size:1
                                           ;@Sys_Init T0CNTbits                 Allocated to registers ;size:1
                                           ;@Sys_Init T0LOADbits                Allocated to registers ;size:1
                                           ;@Sys_Init T0DATAbits                Allocated to registers ;size:1
                                           ;@Sys_Init T1CRbits                  Allocated to registers ;size:1
                                           ;@Sys_Init T1CNTbits                 Allocated to registers ;size:1
                                           ;@Sys_Init T1LOADbits                Allocated to registers ;size:1
                                           ;@Sys_Init T1DATAbits                Allocated to registers ;size:1
                                           ;@Sys_Init T2CRbits                  Allocated to registers ;size:1
                                           ;@Sys_Init T2CNTbits                 Allocated to registers ;size:1
                                           ;@Sys_Init T2LOADbits                Allocated to registers ;size:1
                                           ;@Sys_Init T2DATAbits                Allocated to registers ;size:1
                                           ;@Sys_Init T3CRbits                  Allocated to registers ;size:1
                                           ;@Sys_Init T3CNTbits                 Allocated to registers ;size:1
                                           ;@Sys_Init T3LOADbits                Allocated to registers ;size:1
                                           ;@Sys_Init PWM0DRbits                Allocated to registers ;size:1
                                           ;@Sys_Init PWM1DRbits                Allocated to registers ;size:1
                                           ;@Sys_Init PWM2DRbits                Allocated to registers ;size:1
                                           ;@Sys_Init PWMCR0bits                Allocated to registers ;size:1
                                           ;@Sys_Init PWMCR1bits                Allocated to registers ;size:1
                                           ;@Sys_Init OSCMRbits                 Allocated to registers ;size:1
                                           ;@Sys_Init LVDCRbits                 Allocated to registers ;size:1
                                           ;@Sys_Init ADCR0bits                 Allocated to registers ;size:1
                                           ;@Sys_Init ADCR1bits                 Allocated to registers ;size:1
                                           ;@Sys_Init ADCR2bits                 Allocated to registers ;size:1
                                           ;@Sys_Init OSADJCRbits               Allocated to registers ;size:1
                                           ;@Sys_Init ADRHbits                  Allocated to registers ;size:1
                                           ;@Sys_Init ADRLbits                  Allocated to registers ;size:1
                                           ;@Sys_Init ADIOS0bits                Allocated to registers ;size:1
                                           ;@Sys_Init ADIOS1bits                Allocated to registers ;size:1
                                           ;@Sys_Init PMODbits                  Allocated to registers ;size:1
                                           ;@Sys_Init PWMCR3bits                Allocated to registers ;size:1
                                           ;@Sys_Init PWMCR2bits                Allocated to registers ;size:1
                                           ;@Sys_Init PFRCAUXbits               Allocated to registers ;size:1
                                           ;@Sys_Init HIRCCALbits               Allocated to registers ;size:1
                                           ;@Sys_Init flag2                     Allocated to registers ;size:1
                                           ;@Sys_Init adc_data                  Allocated to registers ;size:2
                                           ;@Sys_Init abuf                      Allocated to registers ;size:1
                                           ;@Sys_Init statusbuf                 Allocated to registers ;size:1
                                           ;@Sys_Init sleep_time                Allocated to registers ;size:1
                                           ;@Sys_Init key_per                   Allocated to registers ;size:1
                                           ;@Sys_Init key_cur                   Allocated to registers ;size:1
                                           ;@Sys_Init key_down                  Allocated to registers ;size:1
                                           ;@Sys_Init key_keep                  Allocated to registers ;size:1
                                           ;@Sys_Init int_time0                 Allocated to registers ;size:1
                                           ;@Sys_Init Flag1                     Allocated to registers ;size:1
                                           ;@Sys_Init Flag2                     Allocated to registers ;size:1
                                           ;@Sys_Init INDF0                     Allocated to registers ;size:1
                                           ;@Sys_Init INDF1                     Allocated to registers ;size:1
                                           ;@Sys_Init INDF2                     Allocated to registers ;size:1
                                           ;@Sys_Init HIBYTE                    Allocated to registers ;size:1
                                           ;@Sys_Init FSR0                      Allocated to registers ;size:1
                                           ;@Sys_Init FSR1                      Allocated to registers ;size:1
                                           ;@Sys_Init PCL                       Allocated to registers ;size:1
                                           ;@Sys_Init PFLAG                     Allocated to registers ;size:1
                                           ;@Sys_Init MCR                       Allocated to registers ;size:1
                                           ;@Sys_Init INDF3                     Allocated to registers ;size:1
                                           ;@Sys_Init INTE                      Allocated to registers ;size:1
                                           ;@Sys_Init INTF                      Allocated to registers ;size:1
                                           ;@Sys_Init DRVCR                     Allocated to registers ;size:1
                                           ;@Sys_Init PFRCCR                    Allocated to registers ;size:1
                                           ;@Sys_Init P1KBCR                    Allocated to registers ;size:1
                                           ;@Sys_Init PFRCCAL                   Allocated to registers ;size:1
                                           ;@Sys_Init IOP0                      Allocated to registers ;size:1
                                           ;@Sys_Init OEP0                      Allocated to registers ;size:1
                                           ;@Sys_Init PUP0                      Allocated to registers ;size:1
                                           ;@Sys_Init PDP0                      Allocated to registers ;size:1
                                           ;@Sys_Init IOP1                      Allocated to registers ;size:1
                                           ;@Sys_Init OEP1                      Allocated to registers ;size:1
                                           ;@Sys_Init PUP1                      Allocated to registers ;size:1
                                           ;@Sys_Init PDP1                      Allocated to registers ;size:1
                                           ;@Sys_Init T0CR                      Allocated to registers ;size:1
                                           ;@Sys_Init T0CNT                     Allocated to registers ;size:1
                                           ;@Sys_Init T0LOAD                    Allocated to registers ;size:1
                                           ;@Sys_Init T0DATA                    Allocated to registers ;size:1
                                           ;@Sys_Init T1CR                      Allocated to registers ;size:1
                                           ;@Sys_Init T1CNT                     Allocated to registers ;size:1
                                           ;@Sys_Init T1LOAD                    Allocated to registers ;size:1
                                           ;@Sys_Init T1DATA                    Allocated to registers ;size:1
                                           ;@Sys_Init T2CR                      Allocated to registers ;size:1
                                           ;@Sys_Init T2CNT                     Allocated to registers ;size:1
                                           ;@Sys_Init T2LOAD                    Allocated to registers ;size:1
                                           ;@Sys_Init T2DATA                    Allocated to registers ;size:1
                                           ;@Sys_Init T3CR                      Allocated to registers ;size:1
                                           ;@Sys_Init T3CNT                     Allocated to registers ;size:1
                                           ;@Sys_Init T3LOAD                    Allocated to registers ;size:1
                                           ;@Sys_Init PWM0DR                    Allocated to registers ;size:1
                                           ;@Sys_Init PWM1DR                    Allocated to registers ;size:1
                                           ;@Sys_Init PWM2DR                    Allocated to registers ;size:1
                                           ;@Sys_Init PWMCR0                    Allocated to registers ;size:1
                                           ;@Sys_Init PWMCR1                    Allocated to registers ;size:1
                                           ;@Sys_Init OSCMR                     Allocated to registers ;size:1
                                           ;@Sys_Init LVDCR                     Allocated to registers ;size:1
                                           ;@Sys_Init ADCR0                     Allocated to registers ;size:1
                                           ;@Sys_Init ADCR1                     Allocated to registers ;size:1
                                           ;@Sys_Init ADCR2                     Allocated to registers ;size:1
                                           ;@Sys_Init OSADJCR                   Allocated to registers ;size:1
                                           ;@Sys_Init ADRH                      Allocated to registers ;size:1
                                           ;@Sys_Init ADRL                      Allocated to registers ;size:1
                                           ;@Sys_Init ADIOS0                    Allocated to registers ;size:1
                                           ;@Sys_Init ADIOS1                    Allocated to registers ;size:1
                                           ;@Sys_Init PMOD                      Allocated to registers ;size:1
                                           ;@Sys_Init PWMCR3                    Allocated to registers ;size:1
                                           ;@Sys_Init PWMCR2                    Allocated to registers ;size:1
                                           ;@Sys_Init PFRCAUX                   Allocated to registers ;size:1
                                           ;@Sys_Init HIRCCAL                   Allocated to registers ;size:1
                                           ;@end Allocation info for local variables in function 'Sys_Init';
                                           ;@Allocation info for local variables in function 'main'
                                           ;@end Allocation info for local variables in function 'main';
                                           ;@Allocation info for local variables in function 'Scan_Key'
                                           ;@end Allocation info for local variables in function 'Scan_Key';
                                           ;@Allocation info for local variables in function 'Sleep_Func'
                                           ;@end Allocation info for local variables in function 'Sleep_Func';
                                           ;@Allocation info for local variables in function 'int_isr'
                                           ;@end Allocation info for local variables in function 'int_isr';
                                           
                                           ;--------------------------------------------------------
                                           ; overlayable items in internal ram 
                                           ;--------------------------------------------------------
                                           ;	udata_ovr
                                           ;--------------------------------------------------------
                                           ; reset vector 
                                           ;--------------------------------------------------------
                                           STARTUP	code 0x0000
000000   a1ed     goto    0x1ed            	goto	_main
                                           ;--------------------------------------------------------
                                           ; interrupt and initialization code
                                           ;--------------------------------------------------------
                                           c_interrupt	code	0x8
                                           __sdcc_interrupt
                                           ;***
                                           ;  pBlock Stats: dbName = I
                                           ;***
                                           ;entry:  _int_isr	;Function start
                                           ; 0 exit points
                                           ;2 compiler assigned registers:
                                           ;   r0x1009
                                           ;   r0x100A
                                           ;; Starting pCode block
                                           _int_isr	;Function start
                                           ; 0 exit points
                                           ;	.line	134; "MC32P7351.c"	__endasm;
000008   5623     movra   0x23             	movra	_abuf
000009   4587     swapar  0x187            	swapar	_PFLAG
00000a   5624     movra   0x24             	movra	_statusbuf
                                           ;	.line	136; "MC32P7351.c"	if (T0IF & T0IE)   	//100us
00000b   7619     clrr    0x19             	CLRR	r0x1009
00000c   f18b     jbclr   0x18b, 0         	JBCLR	_INTFbits,0
00000d   6619     incr    0x19             	INCR	r0x1009
00000e   761a     clrr    0x1a             	CLRR	r0x100A
00000f   f18a     jbclr   0x18a, 0         	JBCLR	_INTEbits,0
000010   661a     incr    0x1a             	INCR	r0x100A
000011   581a     movar   0x1a             	MOVAR	r0x100A
000012   7a19     andra   0x19             	ANDRA	r0x1009
000013   3c00     movai   0                	MOVAI	0x00
000014   5c19     orar    0x19             	ORAR	r0x1009
000015   f587     jbclr   0x187, 0x2       	JBCLR	PFLAG,2
000016   a018     goto    0x18             	GOTO	_00137_DS_
                                           ;	.line	139; "MC32P7351.c"	T0IF = 0;
000017   d18b     bclr    0x18b, 0         	BCLR	_INTFbits,0
                                           _00137_DS_
                                           ;	.line	142; "MC32P7351.c"	if (T1IF & T1IE)   	//2ms
000018   7619     clrr    0x19             	CLRR	r0x1009
000019   f38b     jbclr   0x18b, 0x1       	JBCLR	_INTFbits,1
00001a   6619     incr    0x19             	INCR	r0x1009
00001b   761a     clrr    0x1a             	CLRR	r0x100A
00001c   f38a     jbclr   0x18a, 0x1       	JBCLR	_INTEbits,1
00001d   661a     incr    0x1a             	INCR	r0x100A
00001e   581a     movar   0x1a             	MOVAR	r0x100A
00001f   7a19     andra   0x19             	ANDRA	r0x1009
000020   3c00     movai   0                	MOVAI	0x00
000021   5c19     orar    0x19             	ORAR	r0x1009
000022   f587     jbclr   0x187, 0x2       	JBCLR	PFLAG,2
000023   a034     goto    0x34             	GOTO	_00139_DS_
                                           ;	.line	144; "MC32P7351.c"	P11D = !P11D;
000024   7619     clrr    0x19             	CLRR	r0x1009
000025   f394     jbclr   0x194, 0x1       	JBCLR	_IOP1bits,1
000026   6619     incr    0x19             	INCR	r0x1009
000027   5819     movar   0x19             	MOVAR	r0x1009
000028   3c00     movai   0                	MOVAI	0x00
000029   f587     jbclr   0x187, 0x2       	JBCLR	PFLAG,2
00002a   3c01     movai   0x1              	MOVAI	0x01
00002b   5619     movra   0x19             	MOVRA	r0x1009
00002c   561a     movra   0x1a             	MOVRA	r0x100A
                                           ;;99	MOVAR	r0x100A
00002d   4c19     rrar    0x19             	RRAR	r0x1009
00002e   e187     jbset   0x187, 0         	JBSET	PFLAG,0
00002f   d394     bclr    0x194, 0x1       	BCLR	_IOP1bits,1
000030   f187     jbclr   0x187, 0         	JBCLR	PFLAG,0
000031   c394     bset    0x194, 0x1       	BSET	_IOP1bits,1
                                           ;	.line	145; "MC32P7351.c"	T1IF = 0;
000032   d38b     bclr    0x18b, 0x1       	BCLR	_INTFbits,1
                                           ;	.line	146; "MC32P7351.c"	T1_flag    	=  	1;
000033   c22b     bset    0x2b, 0x1        	BSET	_Flag1,1
                                           _00139_DS_
                                           ;	.line	166; "MC32P7351.c"	__endasm;
000034   4424     swapar  0x24             	swapar	_statusbuf
000035   5787     movra   0x187            	movra	_PFLAG
000036   4623     swapr   0x23             	swapr	_abuf
000037   4423     swapar  0x23             	swapar	_abuf
                                           END_OF_INTERRUPT
                                           ;	.line	167; "MC32P7351.c"	}
000038   000d     retie                    	RETIE	
                                           
                                           ;--------------------------------------------------------
                                           ; code
                                           ;--------------------------------------------------------
                                           code_MC32P7351	code
                                           ;***
                                           ;  pBlock Stats: dbName = M
                                           ;***
                                           ;entry:  _main	;Function start
                                           ; 2 exit points
                                           ;has an exit
                                           ;functions called:
                                           ;   _Sys_Init
                                           ;   _Scan_ADC
                                           ;   _Scan_Key
                                           ;   _Sys_Init
                                           ;   _Scan_ADC
                                           ;   _Scan_Key
                                           ;; Starting pCode block
                                           _main	;Function start
                                           ; 2 exit points
                                           ;	.line	44; "MC32P7351.c"	Sys_Init();
0001ed   8228     call    0x228            	CALL	_Sys_Init
                                           _00114_DS_
                                           ;	.line	47; "MC32P7351.c"	if(T1_flag)   //2ms
0001ee   e22b     jbset   0x2b, 0x1        	JBSET	_Flag1,1
0001ef   a1ee     goto    0x1ee            	GOTO	_00114_DS_
                                           ;	.line	49; "MC32P7351.c"	T1_flag = 0;
0001f0   d22b     bclr    0x2b, 0x1        	BCLR	_Flag1,1
                                           ;	.line	50; "MC32P7351.c"	ClrWdt();
0001f1   000e     clrwdt                   	clrwdt	
                                           ;	.line	51; "MC32P7351.c"	Scan_ADC();     //采样+求平均的时间 =1ms
0001f2   8146     call    0x146            	CALL	_Scan_ADC
                                           ;	.line	55; "MC32P7351.c"	if(++int_time0 >= 10)   //2ms*10 =20ms
0001f3   662a     incr    0x2a             	INCR	_int_time0
                                           ;;unsigned compare: left < lit(0xA=10), size=1
0001f4   3c0a     movai   0xa              	MOVAI	0x0a
0001f5   482a     rsubar  0x2a             	RSUBAR	_int_time0
0001f6   e187     jbset   0x187, 0         	JBSET	PFLAG,0
0001f7   a1ee     goto    0x1ee            	GOTO	_00114_DS_
                                           ;;genSkipc:3291: created from rifx:013B5EFC
                                           ;	.line	57; "MC32P7351.c"	int_time0 = 0 ;
0001f8   762a     clrr    0x2a             	CLRR	_int_time0
                                           ;	.line	58; "MC32P7351.c"	Scan_Key();         //按键扫描
0001f9   8212     call    0x212            	CALL	_Scan_Key
0001fa   a1ee     goto    0x1ee            	GOTO	_00114_DS_
                                           ;	.line	63; "MC32P7351.c"	}
0001fb   000c     return                   	RETURN	
                                           ; exit point of _main
                                           
                                           ;***
                                           ;  pBlock Stats: dbName = C
                                           ;***
                                           ;entry:  _Sleep_Func	;Function start
                                           ; 2 exit points
                                           ;has an exit
                                           ;; Starting pCode block
                                           _Sleep_Func	;Function start
                                           ; 2 exit points
                                           ;	.line	95; "MC32P7351.c"	if(!ON_flag)
0001fc   f02c     jbclr   0x2c, 0          	JBCLR	_Flag2,0
0001fd   a210     goto    0x210            	GOTO	_00129_DS_
                                           ;	.line	97; "MC32P7351.c"	if(++sleep_time >= 100) //2ms*100 =200ms
0001fe   6625     incr    0x25             	INCR	_sleep_time
                                           ;;unsigned compare: left < lit(0x64=100), size=1
0001ff   3c64     movai   0x64             	MOVAI	0x64
000200   4825     rsubar  0x25             	RSUBAR	_sleep_time
000201   e187     jbset   0x187, 0         	JBSET	PFLAG,0
000202   a211     goto    0x211            	GOTO	_00131_DS_
                                           ;;genSkipc:3291: created from rifx:013B5EFC
                                           ;	.line	99; "MC32P7351.c"	sleep_time = 0;
000203   7625     clrr    0x25             	CLRR	_sleep_time
                                           ;	.line	100; "MC32P7351.c"	GIE = 0;
000204   df88     bclr    0x188, 0x7       	BCLR	_MCRbits,7
                                           ;	.line	101; "MC32P7351.c"	KBIF = 0;
000205   d98b     bclr    0x18b, 0x4       	BCLR	_INTFbits,4
                                           ;	.line	102; "MC32P7351.c"	KBIE = 1;
000206   c98a     bset    0x18a, 0x4       	BSET	_INTEbits,4
                                           ;	.line	104; "MC32P7351.c"	Nop();
000207   0000     nop                      	nop	
                                           ;	.line	105; "MC32P7351.c"	Nop();
000208   0000     nop                      	nop	
                                           ;	.line	106; "MC32P7351.c"	Stop();
000209   000b     stop                     	stop	
                                           ;	.line	107; "MC32P7351.c"	Nop();
00020a   0000     nop                      	nop	
                                           ;	.line	108; "MC32P7351.c"	Nop();
00020b   0000     nop                      	nop	
                                           ;	.line	109; "MC32P7351.c"	KBIE = 0;
00020c   d98a     bclr    0x18a, 0x4       	BCLR	_INTEbits,4
                                           ;	.line	110; "MC32P7351.c"	KBIF = 0;
00020d   d98b     bclr    0x18b, 0x4       	BCLR	_INTFbits,4
                                           ;	.line	111; "MC32P7351.c"	GIE = 1;
00020e   cf88     bset    0x188, 0x7       	BSET	_MCRbits,7
00020f   a211     goto    0x211            	GOTO	_00131_DS_
                                           _00129_DS_
                                           ;	.line	116; "MC32P7351.c"	sleep_time = 0;
000210   7625     clrr    0x25             	CLRR	_sleep_time
                                           _00131_DS_
                                           ;	.line	118; "MC32P7351.c"	}
000211   000c     return                   	RETURN	
                                           ; exit point of _Sleep_Func
                                           
                                           ;***
                                           ;  pBlock Stats: dbName = C
                                           ;***
                                           ;entry:  _Scan_Key	;Function start
                                           ; 2 exit points
                                           ;has an exit
                                           ;1 compiler assigned register :
                                           ;   r0x1008
                                           ;; Starting pCode block
                                           _Scan_Key	;Function start
                                           ; 2 exit points
                                           ;	.line	73; "MC32P7351.c"	key_per = key_cur; 	
000212   5827     movar   0x27             	MOVAR	_key_cur
000213   5626     movra   0x26             	MOVRA	_key_per
                                           ;	.line	75; "MC32P7351.c"	key_cur = (~IOP1)&0x08;    	   	//低有效
000214   7194     comar   0x194            	COMAR	_IOP1
000215   5618     movra   0x18             	MOVRA	r0x1008
000216   3c08     movai   0x8              	MOVAI	0x08
000217   7818     andar   0x18             	ANDAR	r0x1008
000218   5627     movra   0x27             	MOVRA	_key_cur
                                           ;	.line	77; "MC32P7351.c"	key_down = (~key_per) & key_cur;
000219   7026     comar   0x26             	COMAR	_key_per
00021a   5618     movra   0x18             	MOVRA	r0x1008
00021b   5827     movar   0x27             	MOVAR	_key_cur
00021c   7818     andar   0x18             	ANDAR	r0x1008
00021d   5628     movra   0x28             	MOVRA	_key_down
                                           ;	.line	78; "MC32P7351.c"	key_keep = key_per & key_cur;
00021e   5827     movar   0x27             	MOVAR	_key_cur
00021f   7826     andar   0x26             	ANDAR	_key_per
000220   5629     movra   0x29             	MOVRA	_key_keep
                                           ;	.line	80; "MC32P7351.c"	if(key_down & Key)
000221   5828     movar   0x28             	MOVAR	_key_down
000222   5618     movra   0x18             	MOVRA	r0x1008
000223   e618     jbset   0x18, 0x3        	JBSET	r0x1008,3
000224   a227     goto    0x227            	GOTO	_00121_DS_
                                           ;	.line	82; "MC32P7351.c"	key_keep = 1;
000225   3c01     movai   0x1              	MOVAI	0x01
000226   5629     movra   0x29             	MOVRA	_key_keep
                                           _00121_DS_
                                           ;	.line	85; "MC32P7351.c"	}
000227   000c     return                   	RETURN	
                                           ; exit point of _Scan_Key
                                           
                                           ;***
                                           ;  pBlock Stats: dbName = C
                                           ;***
                                           ;entry:  _Sys_Init	;Function start
                                           ; 2 exit points
                                           ;has an exit
                                           ;functions called:
                                           ;   _CLR_RAM
                                           ;   _IO_Init
                                           ;   _TIMER0_INT_Init
                                           ;   _TIMER1_INT_Init
                                           ;   _ADC_Init
                                           ;   _CLR_RAM
                                           ;   _IO_Init
                                           ;   _TIMER0_INT_Init
                                           ;   _TIMER1_INT_Init
                                           ;   _ADC_Init
                                           ;; Starting pCode block
                                           _Sys_Init	;Function start
                                           ; 2 exit points
                                           ;	.line	23; "MC32P7351.c"	GIE = 0;
000228   df88     bclr    0x188, 0x7       	BCLR	_MCRbits,7
                                           ;	.line	24; "MC32P7351.c"	CLR_RAM();
000229   81e1     call    0x1e1            	CALL	_CLR_RAM
                                           ;	.line	25; "MC32P7351.c"	IO_Init();
00022a   81cf     call    0x1cf            	CALL	_IO_Init
                                           ;	.line	26; "MC32P7351.c"	TIMER0_INT_Init();     	
00022b   81c6     call    0x1c6            	CALL	_TIMER0_INT_Init
                                           ;	.line	27; "MC32P7351.c"	TIMER1_INT_Init();
00022c   81bd     call    0x1bd            	CALL	_TIMER1_INT_Init
                                           ;	.line	33; "MC32P7351.c"	ADC_Init();
00022d   8173     call    0x173            	CALL	_ADC_Init
                                           ;	.line	34; "MC32P7351.c"	GIE = 1;
00022e   cf88     bset    0x188, 0x7       	BSET	_MCRbits,7
                                           ;	.line	35; "MC32P7351.c"	}
00022f   000c     return                   	RETURN	
                                           ; exit point of _Sys_Init
                                           
                                           
                                           ;	code size estimation:
                                           ;	  103+    0 =   103 instructions (  206 byte)
                                           
                                           	end
                                           ;--------------------------------------------------------
                                           ; File Created by SN-SDCC : SinoMCU ANSI-C Compiler
                                           ; Version 2.0.0 (Dec 11 2019) (MINGW32)
                                           ; This file was generated Wed Nov 13 10:59:59 2024
                                           ;--------------------------------------------------------
                                           ; MC32 port for the RISC core
                                           ;--------------------------------------------------------
                                           ;	.file	"Init.c"
                                           	list	p=7351
                                           	radix dec
                                           	include "7351.inc"
                                           		LIST
                                           ;mc32p7351.inc    Standard Header File, Version 1.00 by Sinomcu
                                           		NOLIST
                                           ;--------------------------------------------------------
                                           ; external declarations
                                           ;--------------------------------------------------------
                                           	extern	_Sys_Init
                                           	extern	_Scan_ADC
                                           	extern	_Set_ADC_Channel
                                           	extern	_ADC_Get_Value_Average
                                           	extern	_Scan_Key
                                           	extern	_Sleep_Func
                                           	extern	_INDF0bits
                                           	extern	_INDF1bits
                                           	extern	_INDF2bits
                                           	extern	_HIBYTEbits
                                           	extern	_FSR0bits
                                           	extern	_FSR1bits
                                           	extern	_PCLbits
                                           	extern	_PFLAGbits
                                           	extern	_MCRbits
                                           	extern	_INDF3bits
                                           	extern	_INTEbits
                                           	extern	_INTFbits
                                           	extern	_DRVCRbits
                                           	extern	_PFRCCRbits
                                           	extern	_P1KBCRbits
                                           	extern	_PFRCCALbits
                                           	extern	_IOP0bits
                                           	extern	_OEP0bits
                                           	extern	_PUP0bits
                                           	extern	_PDP0bits
                                           	extern	_IOP1bits
                                           	extern	_OEP1bits
                                           	extern	_PUP1bits
                                           	extern	_PDP1bits
                                           	extern	_T0CRbits
                                           	extern	_T0CNTbits
                                           	extern	_T0LOADbits
                                           	extern	_T0DATAbits
                                           	extern	_T1CRbits
                                           	extern	_T1CNTbits
                                           	extern	_T1LOADbits
                                           	extern	_T1DATAbits
                                           	extern	_T2CRbits
                                           	extern	_T2CNTbits
                                           	extern	_T2LOADbits
                                           	extern	_T2DATAbits
                                           	extern	_T3CRbits
                                           	extern	_T3CNTbits
                                           	extern	_T3LOADbits
                                           	extern	_PWM0DRbits
                                           	extern	_PWM1DRbits
                                           	extern	_PWM2DRbits
                                           	extern	_PWMCR0bits
                                           	extern	_PWMCR1bits
                                           	extern	_OSCMRbits
                                           	extern	_LVDCRbits
                                           	extern	_ADCR0bits
                                           	extern	_ADCR1bits
                                           	extern	_ADCR2bits
                                           	extern	_OSADJCRbits
                                           	extern	_ADRHbits
                                           	extern	_ADRLbits
                                           	extern	_ADIOS0bits
                                           	extern	_ADIOS1bits
                                           	extern	_PMODbits
                                           	extern	_PWMCR3bits
                                           	extern	_PWMCR2bits
                                           	extern	_PFRCAUXbits
                                           	extern	_HIRCCALbits
                                           	extern	_Flag1
                                           	extern	_flag2
                                           	extern	_adc_data
                                           	extern	_INDF0
                                           	extern	_INDF1
                                           	extern	_INDF2
                                           	extern	_HIBYTE
                                           	extern	_FSR0
                                           	extern	_FSR1
                                           	extern	_PCL
                                           	extern	_PFLAG
                                           	extern	_MCR
                                           	extern	_INDF3
                                           	extern	_INTE
                                           	extern	_INTF
                                           	extern	_DRVCR
                                           	extern	_PFRCCR
                                           	extern	_P1KBCR
                                           	extern	_PFRCCAL
                                           	extern	_IOP0
                                           	extern	_OEP0
                                           	extern	_PUP0
                                           	extern	_PDP0
                                           	extern	_IOP1
                                           	extern	_OEP1
                                           	extern	_PUP1
                                           	extern	_PDP1
                                           	extern	_T0CR
                                           	extern	_T0CNT
                                           	extern	_T0LOAD
                                           	extern	_T0DATA
                                           	extern	_T1CR
                                           	extern	_T1CNT
                                           	extern	_T1LOAD
                                           	extern	_T1DATA
                                           	extern	_T2CR
                                           	extern	_T2CNT
                                           	extern	_T2LOAD
                                           	extern	_T2DATA
                                           	extern	_T3CR
                                           	extern	_T3CNT
                                           	extern	_T3LOAD
                                           	extern	_PWM0DR
                                           	extern	_PWM1DR
                                           	extern	_PWM2DR
                                           	extern	_PWMCR0
                                           	extern	_PWMCR1
                                           	extern	_OSCMR
                                           	extern	_LVDCR
                                           	extern	_ADCR0
                                           	extern	_ADCR1
                                           	extern	_ADCR2
                                           	extern	_OSADJCR
                                           	extern	_ADRH
                                           	extern	_ADRL
                                           	extern	_ADIOS0
                                           	extern	_ADIOS1
                                           	extern	_PMOD
                                           	extern	_PWMCR3
                                           	extern	_PWMCR2
                                           	extern	_PFRCAUX
                                           	extern	_HIRCCAL
                                           
                                           	extern STK06
                                           	extern STK05
                                           	extern STK04
                                           	extern STK03
                                           	extern STK02
                                           	extern STK01
                                           	extern STK00
                                           ;--------------------------------------------------------
                                           ; global declarations
                                           ;--------------------------------------------------------
                                           	global	_delay
                                           	global	_ADC_Init
                                           	global	_TIMER2_PWM_Init
                                           	global	_TIMER1_PWM_Init
                                           	global	_TIMER0_PWM_Init
                                           	global	_TIMER3_INT_Init
                                           	global	_TIMER2_INT_Init
                                           	global	_TIMER1_INT_Init
                                           	global	_TIMER0_INT_Init
                                           	global	_IO_Init
                                           	global	_CLR_RAM
                                           
                                           ;--------------------------------------------------------
                                           ; global definitions
                                           ;--------------------------------------------------------
                                           ;--------------------------------------------------------
                                           ; absolute symbol definitions
                                           ;--------------------------------------------------------
                                           ;--------------------------------------------------------
                                           ; compiler-defined variables
                                           ;--------------------------------------------------------
                                           UDL_Init_0	udata
                                           r0x1001	res	1
                                           r0x1000	res	1
                                           r0x1002	res	1
                                           r0x1003	res	1
                                           ;--------------------------------------------------------
                                           ; initialized data
                                           ;--------------------------------------------------------
                                           
                                           ;@Allocation info for local variables in function 'CLR_RAM'
                                           ;@CLR_RAM Sys_Init                  Allocated to registers ;size:2
                                           ;@CLR_RAM IO_Init                   Allocated to registers ;size:2
                                           ;@CLR_RAM TIMER0_INT_Init           Allocated to registers ;size:2
                                           ;@CLR_RAM TIMER1_INT_Init           Allocated to registers ;size:2
                                           ;@CLR_RAM TIMER2_INT_Init           Allocated to registers ;size:2
                                           ;@CLR_RAM TIMER3_INT_Init           Allocated to registers ;size:2
                                           ;@CLR_RAM TIMER0_PWM_Init           Allocated to registers ;size:2
                                           ;@CLR_RAM TIMER1_PWM_Init           Allocated to registers ;size:2
                                           ;@CLR_RAM TIMER2_PWM_Init           Allocated to registers ;size:2
                                           ;@CLR_RAM ADC_Init                  Allocated to registers ;size:2
                                           ;@CLR_RAM Scan_ADC                  Allocated to registers ;size:2
                                           ;@CLR_RAM Set_ADC_Channel           Allocated to registers ;size:2
                                           ;@CLR_RAM ADC_Get_Value_Average     Allocated to registers ;size:2
                                           ;@CLR_RAM Scan_Key                  Allocated to registers ;size:2
                                           ;@CLR_RAM Sleep_Func                Allocated to registers ;size:2
                                           ;@CLR_RAM delay                     Allocated to registers ;size:2
                                           ;@CLR_RAM INDF0bits                 Allocated to registers ;size:1
                                           ;@CLR_RAM INDF1bits                 Allocated to registers ;size:1
                                           ;@CLR_RAM INDF2bits                 Allocated to registers ;size:1
                                           ;@CLR_RAM HIBYTEbits                Allocated to registers ;size:1
                                           ;@CLR_RAM FSR0bits                  Allocated to registers ;size:1
                                           ;@CLR_RAM FSR1bits                  Allocated to registers ;size:1
                                           ;@CLR_RAM PCLbits                   Allocated to registers ;size:1
                                           ;@CLR_RAM PFLAGbits                 Allocated to registers ;size:1
                                           ;@CLR_RAM MCRbits                   Allocated to registers ;size:1
                                           ;@CLR_RAM INDF3bits                 Allocated to registers ;size:1
                                           ;@CLR_RAM INTEbits                  Allocated to registers ;size:1
                                           ;@CLR_RAM INTFbits                  Allocated to registers ;size:1
                                           ;@CLR_RAM DRVCRbits                 Allocated to registers ;size:1
                                           ;@CLR_RAM PFRCCRbits                Allocated to registers ;size:1
                                           ;@CLR_RAM P1KBCRbits                Allocated to registers ;size:1
                                           ;@CLR_RAM PFRCCALbits               Allocated to registers ;size:1
                                           ;@CLR_RAM IOP0bits                  Allocated to registers ;size:1
                                           ;@CLR_RAM OEP0bits                  Allocated to registers ;size:1
                                           ;@CLR_RAM PUP0bits                  Allocated to registers ;size:1
                                           ;@CLR_RAM PDP0bits                  Allocated to registers ;size:1
                                           ;@CLR_RAM IOP1bits                  Allocated to registers ;size:1
                                           ;@CLR_RAM OEP1bits                  Allocated to registers ;size:1
                                           ;@CLR_RAM PUP1bits                  Allocated to registers ;size:1
                                           ;@CLR_RAM PDP1bits                  Allocated to registers ;size:1
                                           ;@CLR_RAM T0CRbits                  Allocated to registers ;size:1
                                           ;@CLR_RAM T0CNTbits                 Allocated to registers ;size:1
                                           ;@CLR_RAM T0LOADbits                Allocated to registers ;size:1
                                           ;@CLR_RAM T0DATAbits                Allocated to registers ;size:1
                                           ;@CLR_RAM T1CRbits                  Allocated to registers ;size:1
                                           ;@CLR_RAM T1CNTbits                 Allocated to registers ;size:1
                                           ;@CLR_RAM T1LOADbits                Allocated to registers ;size:1
                                           ;@CLR_RAM T1DATAbits                Allocated to registers ;size:1
                                           ;@CLR_RAM T2CRbits                  Allocated to registers ;size:1
                                           ;@CLR_RAM T2CNTbits                 Allocated to registers ;size:1
                                           ;@CLR_RAM T2LOADbits                Allocated to registers ;size:1
                                           ;@CLR_RAM T2DATAbits                Allocated to registers ;size:1
                                           ;@CLR_RAM T3CRbits                  Allocated to registers ;size:1
                                           ;@CLR_RAM T3CNTbits                 Allocated to registers ;size:1
                                           ;@CLR_RAM T3LOADbits                Allocated to registers ;size:1
                                           ;@CLR_RAM PWM0DRbits                Allocated to registers ;size:1
                                           ;@CLR_RAM PWM1DRbits                Allocated to registers ;size:1
                                           ;@CLR_RAM PWM2DRbits                Allocated to registers ;size:1
                                           ;@CLR_RAM PWMCR0bits                Allocated to registers ;size:1
                                           ;@CLR_RAM PWMCR1bits                Allocated to registers ;size:1
                                           ;@CLR_RAM OSCMRbits                 Allocated to registers ;size:1
                                           ;@CLR_RAM LVDCRbits                 Allocated to registers ;size:1
                                           ;@CLR_RAM ADCR0bits                 Allocated to registers ;size:1
                                           ;@CLR_RAM ADCR1bits                 Allocated to registers ;size:1
                                           ;@CLR_RAM ADCR2bits                 Allocated to registers ;size:1
                                           ;@CLR_RAM OSADJCRbits               Allocated to registers ;size:1
                                           ;@CLR_RAM ADRHbits                  Allocated to registers ;size:1
                                           ;@CLR_RAM ADRLbits                  Allocated to registers ;size:1
                                           ;@CLR_RAM ADIOS0bits                Allocated to registers ;size:1
                                           ;@CLR_RAM ADIOS1bits                Allocated to registers ;size:1
                                           ;@CLR_RAM PMODbits                  Allocated to registers ;size:1
                                           ;@CLR_RAM PWMCR3bits                Allocated to registers ;size:1
                                           ;@CLR_RAM PWMCR2bits                Allocated to registers ;size:1
                                           ;@CLR_RAM PFRCAUXbits               Allocated to registers ;size:1
                                           ;@CLR_RAM HIRCCALbits               Allocated to registers ;size:1
                                           ;@CLR_RAM Flag1                     Allocated to registers ;size:1
                                           ;@CLR_RAM flag2                     Allocated to registers ;size:1
                                           ;@CLR_RAM adc_data                  Allocated to registers ;size:2
                                           ;@CLR_RAM INDF0                     Allocated to registers ;size:1
                                           ;@CLR_RAM INDF1                     Allocated to registers ;size:1
                                           ;@CLR_RAM INDF2                     Allocated to registers ;size:1
                                           ;@CLR_RAM HIBYTE                    Allocated to registers ;size:1
                                           ;@CLR_RAM FSR0                      Allocated to registers ;size:1
                                           ;@CLR_RAM FSR1                      Allocated to registers ;size:1
                                           ;@CLR_RAM PCL                       Allocated to registers ;size:1
                                           ;@CLR_RAM PFLAG                     Allocated to registers ;size:1
                                           ;@CLR_RAM MCR                       Allocated to registers ;size:1
                                           ;@CLR_RAM INDF3                     Allocated to registers ;size:1
                                           ;@CLR_RAM INTE                      Allocated to registers ;size:1
                                           ;@CLR_RAM INTF                      Allocated to registers ;size:1
                                           ;@CLR_RAM DRVCR                     Allocated to registers ;size:1
                                           ;@CLR_RAM PFRCCR                    Allocated to registers ;size:1
                                           ;@CLR_RAM P1KBCR                    Allocated to registers ;size:1
                                           ;@CLR_RAM PFRCCAL                   Allocated to registers ;size:1
                                           ;@CLR_RAM IOP0                      Allocated to registers ;size:1
                                           ;@CLR_RAM OEP0                      Allocated to registers ;size:1
                                           ;@CLR_RAM PUP0                      Allocated to registers ;size:1
                                           ;@CLR_RAM PDP0                      Allocated to registers ;size:1
                                           ;@CLR_RAM IOP1                      Allocated to registers ;size:1
                                           ;@CLR_RAM OEP1                      Allocated to registers ;size:1
                                           ;@CLR_RAM PUP1                      Allocated to registers ;size:1
                                           ;@CLR_RAM PDP1                      Allocated to registers ;size:1
                                           ;@CLR_RAM T0CR                      Allocated to registers ;size:1
                                           ;@CLR_RAM T0CNT                     Allocated to registers ;size:1
                                           ;@CLR_RAM T0LOAD                    Allocated to registers ;size:1
                                           ;@CLR_RAM T0DATA                    Allocated to registers ;size:1
                                           ;@CLR_RAM T1CR                      Allocated to registers ;size:1
                                           ;@CLR_RAM T1CNT                     Allocated to registers ;size:1
                                           ;@CLR_RAM T1LOAD                    Allocated to registers ;size:1
                                           ;@CLR_RAM T1DATA                    Allocated to registers ;size:1
                                           ;@CLR_RAM T2CR                      Allocated to registers ;size:1
                                           ;@CLR_RAM T2CNT                     Allocated to registers ;size:1
                                           ;@CLR_RAM T2LOAD                    Allocated to registers ;size:1
                                           ;@CLR_RAM T2DATA                    Allocated to registers ;size:1
                                           ;@CLR_RAM T3CR                      Allocated to registers ;size:1
                                           ;@CLR_RAM T3CNT                     Allocated to registers ;size:1
                                           ;@CLR_RAM T3LOAD                    Allocated to registers ;size:1
                                           ;@CLR_RAM PWM0DR                    Allocated to registers ;size:1
                                           ;@CLR_RAM PWM1DR                    Allocated to registers ;size:1
                                           ;@CLR_RAM PWM2DR                    Allocated to registers ;size:1
                                           ;@CLR_RAM PWMCR0                    Allocated to registers ;size:1
                                           ;@CLR_RAM PWMCR1                    Allocated to registers ;size:1
                                           ;@CLR_RAM OSCMR                     Allocated to registers ;size:1
                                           ;@CLR_RAM LVDCR                     Allocated to registers ;size:1
                                           ;@CLR_RAM ADCR0                     Allocated to registers ;size:1
                                           ;@CLR_RAM ADCR1                     Allocated to registers ;size:1
                                           ;@CLR_RAM ADCR2                     Allocated to registers ;size:1
                                           ;@CLR_RAM OSADJCR                   Allocated to registers ;size:1
                                           ;@CLR_RAM ADRH                      Allocated to registers ;size:1
                                           ;@CLR_RAM ADRL                      Allocated to registers ;size:1
                                           ;@CLR_RAM ADIOS0                    Allocated to registers ;size:1
                                           ;@CLR_RAM ADIOS1                    Allocated to registers ;size:1
                                           ;@CLR_RAM PMOD                      Allocated to registers ;size:1
                                           ;@CLR_RAM PWMCR3                    Allocated to registers ;size:1
                                           ;@CLR_RAM PWMCR2                    Allocated to registers ;size:1
                                           ;@CLR_RAM PFRCAUX                   Allocated to registers ;size:1
                                           ;@CLR_RAM HIRCCAL                   Allocated to registers ;size:1
                                           ;@end Allocation info for local variables in function 'CLR_RAM';
                                           ;@Allocation info for local variables in function 'IO_Init'
                                           ;@end Allocation info for local variables in function 'IO_Init';
                                           ;@Allocation info for local variables in function 'TIMER0_INT_Init'
                                           ;@end Allocation info for local variables in function 'TIMER0_INT_Init';
                                           ;@Allocation info for local variables in function 'TIMER1_INT_Init'
                                           ;@end Allocation info for local variables in function 'TIMER1_INT_Init';
                                           ;@Allocation info for local variables in function 'TIMER2_INT_Init'
                                           ;@end Allocation info for local variables in function 'TIMER2_INT_Init';
                                           ;@Allocation info for local variables in function 'TIMER3_INT_Init'
                                           ;@end Allocation info for local variables in function 'TIMER3_INT_Init';
                                           ;@Allocation info for local variables in function 'TIMER0_PWM_Init'
                                           ;@end Allocation info for local variables in function 'TIMER0_PWM_Init';
                                           ;@Allocation info for local variables in function 'TIMER1_PWM_Init'
                                           ;@end Allocation info for local variables in function 'TIMER1_PWM_Init';
                                           ;@Allocation info for local variables in function 'TIMER2_PWM_Init'
                                           ;@end Allocation info for local variables in function 'TIMER2_PWM_Init';
                                           ;@Allocation info for local variables in function 'ADC_Init'
                                           ;@end Allocation info for local variables in function 'ADC_Init';
                                           ;@Allocation info for local variables in function 'delay'
                                           ;@delay num                       Allocated to registers r0x1001 r0x1000 ;size:2
                                           ;@delay i                         Allocated to registers r0x1002 r0x1003 ;size:2
                                           ;@end Allocation info for local variables in function 'delay';
                                           
                                           ;--------------------------------------------------------
                                           ; overlayable items in internal ram 
                                           ;--------------------------------------------------------
                                           ;	udata_ovr
                                           ;--------------------------------------------------------
                                           ; code
                                           ;--------------------------------------------------------
                                           code_Init	code
                                           ;***
                                           ;  pBlock Stats: dbName = C
                                           ;***
                                           ;entry:  _delay	;Function start
                                           ; 2 exit points
                                           ;has an exit
                                           ;5 compiler assigned registers:
                                           ;   r0x1000
                                           ;   STK00
                                           ;   r0x1001
                                           ;   r0x1002
                                           ;   r0x1003
                                           ;; Starting pCode block
                                           _delay	;Function start
                                           ; 2 exit points
                                           ;	.line	249; "Init.c"	void delay(uint16_t num)
000160   5611     movra   0x11             	MOVRA	r0x1000
000161   5806     movar   0x6              	MOVAR	STK00
000162   5610     movra   0x10             	MOVRA	r0x1001
                                           ;	.line	252; "Init.c"	for (i = 0; i < num; i ++)
000163   7612     clrr    0x12             	CLRR	r0x1002
000164   7613     clrr    0x13             	CLRR	r0x1003
                                           _00150_DS_
000165   5811     movar   0x11             	MOVAR	r0x1000
000166   4813     rsubar  0x13             	RSUBAR	r0x1003
000167   e587     jbset   0x187, 0x2       	JBSET	PFLAG,2
000168   a16b     goto    0x16b            	GOTO	_00163_DS_
000169   5810     movar   0x10             	MOVAR	r0x1001
00016a   4812     rsubar  0x12             	RSUBAR	r0x1002
                                           _00163_DS_
00016b   f187     jbclr   0x187, 0         	JBCLR	PFLAG,0
00016c   a172     goto    0x172            	GOTO	_00152_DS_
                                           ;;genSkipc:3291: created from rifx:013B5EFC
                                           ;	.line	254; "Init.c"	Nop();
00016d   0000     nop                      	nop	
                                           ;	.line	252; "Init.c"	for (i = 0; i < num; i ++)
00016e   6612     incr    0x12             	INCR	r0x1002
00016f   f587     jbclr   0x187, 0x2       	JBCLR	PFLAG,2
000170   6613     incr    0x13             	INCR	r0x1003
000171   a165     goto    0x165            	GOTO	_00150_DS_
                                           _00152_DS_
                                           ;	.line	256; "Init.c"	}
000172   000c     return                   	RETURN	
                                           ; exit point of _delay
                                           
                                           ;***
                                           ;  pBlock Stats: dbName = C
                                           ;***
                                           ;entry:  _ADC_Init	;Function start
                                           ; 2 exit points
                                           ;has an exit
                                           ;functions called:
                                           ;   _Set_ADC_Channel
                                           ;   _Set_ADC_Channel
                                           ;; Starting pCode block
                                           _ADC_Init	;Function start
                                           ; 2 exit points
                                           ;	.line	205; "Init.c"	OEP1 &= DEF_CLR_BIT0;                        //P10为输入口
000173   d195     bclr    0x195, 0         	BCLR	_OEP1,0
                                           ;	.line	206; "Init.c"	OEP0 &= DEF_CLR_BIT1;                        //P01为输入口 
000174   d391     bclr    0x191, 0x1       	BCLR	_OEP0,1
                                           ;	.line	208; "Init.c"	ADIOS0 = 0x20;                     //io类型选择  1:模拟输入  0:通用io
000175   3c20     movai   0x20             	MOVAI	0x20
000176   57b6     movra   0x1b6            	MOVRA	_ADIOS0
                                           ;	.line	211; "Init.c"	ADIOS1 = 0x00;                     //io类型选择  1:模拟输入  0:通用io
000177   77b7     clrr    0x1b7            	CLRR	_ADIOS1
                                           ;	.line	214; "Init.c"	PMOD = 0x20 | 0x07;                       //bit7-bit5 P17、P13、P01 io类型选择 1:模拟输入  0:通用io 
000178   3c27     movai   0x27             	MOVAI	0x27
000179   57bc     movra   0x1bc            	MOVRA	_PMOD
                                           ;	.line	217; "Init.c"	ADCR0 = 0xfb;                                //使能ADC、12位数据H8L4
00017a   3cfb     movai   0xfb             	MOVAI	0xfb
00017b   57b0     movra   0x1b0            	MOVRA	_ADCR0
                                           ;	.line	218; "Init.c"	ADCR1 = 0x80;                                //32分频、内部2V 
00017c   3c80     movai   0x80             	MOVAI	0x80
00017d   57b1     movra   0x1b1            	MOVRA	_ADCR1
                                           ;	.line	219; "Init.c"	ADCR2 = 0xff;                                //固定为15ADCLK 
00017e   3cff     movai   0xff             	MOVAI	0xff
00017f   57b2     movra   0x1b2            	MOVRA	_ADCR2
                                           ;	.line	220; "Init.c"	Set_ADC_Channel(5);         // ADC 使能  AD转换通道开启  通道  CHX
000180   3c05     movai   0x5              	MOVAI	0x05
000181   8138     call    0x138            	CALL	_Set_ADC_Channel
                                           ;	.line	221; "Init.c"	}
000182   000c     return                   	RETURN	
                                           ; exit point of _ADC_Init
                                           
                                           ;***
                                           ;  pBlock Stats: dbName = C
                                           ;***
                                           ;entry:  _TIMER2_PWM_Init	;Function start
                                           ; 2 exit points
                                           ;has an exit
                                           ;; Starting pCode block
                                           _TIMER2_PWM_Init	;Function start
                                           ; 2 exit points
                                           ;	.line	187; "Init.c"	T2CR = DEF_SET_BIT6 | PRS_4;     //使能PWM,CPU,4分频
000183   3c42     movai   0x42             	MOVAI	0x42
000184   57a0     movra   0x1a0            	MOVRA	_T2CR
                                           ;	.line	188; "Init.c"	T2CNT = 100-1;
000185   3c63     movai   0x63             	MOVAI	0x63
000186   57a1     movra   0x1a1            	MOVRA	_T2CNT
                                           ;	.line	189; "Init.c"	T2LOAD = 100-1;                                     
000187   3c63     movai   0x63             	MOVAI	0x63
000188   57a2     movra   0x1a2            	MOVRA	_T2LOAD
                                           ;	.line	190; "Init.c"	T2DATA = 25;
000189   3c19     movai   0x19             	MOVAI	0x19
00018a   57a3     movra   0x1a3            	MOVRA	_T2DATA
                                           ;	.line	191; "Init.c"	PWMCR1 = 0x00; 
00018b   77ad     clrr    0x1ad            	CLRR	_PWMCR1
                                           ;	.line	192; "Init.c"	PWMCR2 = 0x03;                                         //4个时钟
00018c   3c03     movai   0x3              	MOVAI	0x03
00018d   57be     movra   0x1be            	MOVRA	_PWMCR2
                                           ;	.line	193; "Init.c"	PWMCR3 |= DEF_SET_BIT6 | DEF_SET_BIT5 | DEF_SET_BIT4;  //使能FPWM,NPWM,正向输出
00018e   3c70     movai   0x70             	MOVAI	0x70
00018f   5fbd     orra    0x1bd            	ORRA	_PWMCR3
                                           ;	.line	194; "Init.c"	T2EN = 1;
000190   cfa0     bset    0x1a0, 0x7       	BSET	_T2CRbits,7
                                           ;	.line	195; "Init.c"	}
000191   000c     return                   	RETURN	
                                           ; exit point of _TIMER2_PWM_Init
                                           
                                           ;***
                                           ;  pBlock Stats: dbName = C
                                           ;***
                                           ;entry:  _TIMER1_PWM_Init	;Function start
                                           ; 2 exit points
                                           ;has an exit
                                           ;; Starting pCode block
                                           _TIMER1_PWM_Init	;Function start
                                           ; 2 exit points
                                           ;	.line	163; "Init.c"	T1CR = DEF_SET_BIT6 | PRS_4;                    //使能PWM,CPU,4分频
000192   3c42     movai   0x42             	MOVAI	0x42
000193   579c     movra   0x19c            	MOVRA	_T1CR
                                           ;	.line	164; "Init.c"	T1CNT = 100-1;
000194   3c63     movai   0x63             	MOVAI	0x63
000195   579d     movra   0x19d            	MOVRA	_T1CNT
                                           ;	.line	165; "Init.c"	T1LOAD = 100-1;                                                  
000196   3c63     movai   0x63             	MOVAI	0x63
000197   579e     movra   0x19e            	MOVRA	_T1LOAD
                                           ;	.line	166; "Init.c"	T1DATA = 25;
000198   3c19     movai   0x19             	MOVAI	0x19
000199   579f     movra   0x19f            	MOVRA	_T1DATA
                                           ;	.line	169; "Init.c"	PWMCR1 = 0x00;                                                        //普通模式
00019a   77ad     clrr    0x1ad            	CLRR	_PWMCR1
                                           ;	.line	170; "Init.c"	T1EN = 1;
00019b   cf9c     bset    0x19c, 0x7       	BSET	_T1CRbits,7
                                           ;	.line	171; "Init.c"	}
00019c   000c     return                   	RETURN	
                                           ; exit point of _TIMER1_PWM_Init
                                           
                                           ;***
                                           ;  pBlock Stats: dbName = C
                                           ;***
                                           ;entry:  _TIMER0_PWM_Init	;Function start
                                           ; 2 exit points
                                           ;has an exit
                                           ;; Starting pCode block
                                           _TIMER0_PWM_Init	;Function start
                                           ; 2 exit points
                                           ;	.line	140; "Init.c"	T0CR = DEF_SET_BIT6 | PRS_4;     //使能PWM,CPU,4频
00019d   3c42     movai   0x42             	MOVAI	0x42
00019e   5798     movra   0x198            	MOVRA	_T0CR
                                           ;	.line	141; "Init.c"	T0CNT = 100-1;
00019f   3c63     movai   0x63             	MOVAI	0x63
0001a0   5799     movra   0x199            	MOVRA	_T0CNT
                                           ;	.line	142; "Init.c"	T0LOAD = 100-1;                                        
0001a1   3c63     movai   0x63             	MOVAI	0x63
0001a2   579a     movra   0x19a            	MOVRA	_T0LOAD
                                           ;	.line	143; "Init.c"	T0DATA = 25;
0001a3   3c19     movai   0x19             	MOVAI	0x19
0001a4   579b     movra   0x19b            	MOVRA	_T0DATA
                                           ;	.line	144; "Init.c"	PWMCR0 = 0x00;                                         //正向输出
0001a5   77ac     clrr    0x1ac            	CLRR	_PWMCR0
                                           ;	.line	145; "Init.c"	PWMCR1 = 0x00;                                         //普通模式
0001a6   77ad     clrr    0x1ad            	CLRR	_PWMCR1
                                           ;	.line	147; "Init.c"	PWMCR3 = DEF_CLR_BIT2;                                 //P16端口输出
0001a7   3cfb     movai   0xfb             	MOVAI	0xfb
0001a8   57bd     movra   0x1bd            	MOVRA	_PWMCR3
                                           ;	.line	148; "Init.c"	T0EN = 1;
0001a9   cf98     bset    0x198, 0x7       	BSET	_T0CRbits,7
                                           ;	.line	149; "Init.c"	}
0001aa   000c     return                   	RETURN	
                                           ; exit point of _TIMER0_PWM_Init
                                           
                                           ;***
                                           ;  pBlock Stats: dbName = C
                                           ;***
                                           ;entry:  _TIMER3_INT_Init	;Function start
                                           ; 2 exit points
                                           ;has an exit
                                           ;; Starting pCode block
                                           _TIMER3_INT_Init	;Function start
                                           ; 2 exit points
                                           ;	.line	122; "Init.c"	T3CR = PRS_128;               //CPU,128分频
0001ab   3c07     movai   0x7              	MOVAI	0x07
0001ac   57a4     movra   0x1a4            	MOVRA	_T3CR
                                           ;	.line	123; "Init.c"	T3CNT = 250 - 1;
0001ad   3cf9     movai   0xf9             	MOVAI	0xf9
0001ae   57a5     movra   0x1a5            	MOVRA	_T3CNT
                                           ;	.line	124; "Init.c"	T3LOAD = 250 - 1;                  
0001af   3cf9     movai   0xf9             	MOVAI	0xf9
0001b0   57a6     movra   0x1a6            	MOVRA	_T3LOAD
                                           ;	.line	125; "Init.c"	T3EN = 1; 
0001b1   cfa4     bset    0x1a4, 0x7       	BSET	_T3CRbits,7
                                           ;	.line	126; "Init.c"	T3IE = 1;
0001b2   cf8a     bset    0x18a, 0x7       	BSET	_INTEbits,7
                                           ;	.line	127; "Init.c"	}
0001b3   000c     return                   	RETURN	
                                           ; exit point of _TIMER3_INT_Init
                                           
                                           ;***
                                           ;  pBlock Stats: dbName = C
                                           ;***
                                           ;entry:  _TIMER2_INT_Init	;Function start
                                           ; 2 exit points
                                           ;has an exit
                                           ;; Starting pCode block
                                           _TIMER2_INT_Init	;Function start
                                           ; 2 exit points
                                           ;	.line	106; "Init.c"	T2CR = PRS_8;   //CPU,8分频
0001b4   3c03     movai   0x3              	MOVAI	0x03
0001b5   57a0     movra   0x1a0            	MOVRA	_T2CR
                                           ;	.line	107; "Init.c"	T2CNT = 100 - 1;
0001b6   3c63     movai   0x63             	MOVAI	0x63
0001b7   57a1     movra   0x1a1            	MOVRA	_T2CNT
                                           ;	.line	108; "Init.c"	T2LOAD = 100 - 1;                 
0001b8   3c63     movai   0x63             	MOVAI	0x63
0001b9   57a2     movra   0x1a2            	MOVRA	_T2LOAD
                                           ;	.line	109; "Init.c"	T2EN = 1;
0001ba   cfa0     bset    0x1a0, 0x7       	BSET	_T2CRbits,7
                                           ;	.line	110; "Init.c"	T2IE = 1;
0001bb   cb8a     bset    0x18a, 0x5       	BSET	_INTEbits,5
                                           ;	.line	111; "Init.c"	}
0001bc   000c     return                   	RETURN	
                                           ; exit point of _TIMER2_INT_Init
                                           
                                           ;***
                                           ;  pBlock Stats: dbName = C
                                           ;***
                                           ;entry:  _TIMER1_INT_Init	;Function start
                                           ; 2 exit points
                                           ;has an exit
                                           ;; Starting pCode block
                                           _TIMER1_INT_Init	;Function start
                                           ; 2 exit points
                                           ;	.line	90; "Init.c"	T1CR = PRS_32; //定时模式,CPU,32分频
0001bd   3c05     movai   0x5              	MOVAI	0x05
0001be   579c     movra   0x19c            	MOVRA	_T1CR
                                           ;	.line	91; "Init.c"	T1CNT = 250 -1;                 
0001bf   3cf9     movai   0xf9             	MOVAI	0xf9
0001c0   579d     movra   0x19d            	MOVRA	_T1CNT
                                           ;	.line	92; "Init.c"	T1LOAD = 250 -1;
0001c1   3cf9     movai   0xf9             	MOVAI	0xf9
0001c2   579e     movra   0x19e            	MOVRA	_T1LOAD
                                           ;	.line	93; "Init.c"	T1EN = 1;
0001c3   cf9c     bset    0x19c, 0x7       	BSET	_T1CRbits,7
                                           ;	.line	94; "Init.c"	T1IE = 1;
0001c4   c38a     bset    0x18a, 0x1       	BSET	_INTEbits,1
                                           ;	.line	95; "Init.c"	}
0001c5   000c     return                   	RETURN	
                                           ; exit point of _TIMER1_INT_Init
                                           
                                           ;***
                                           ;  pBlock Stats: dbName = C
                                           ;***
                                           ;entry:  _TIMER0_INT_Init	;Function start
                                           ; 2 exit points
                                           ;has an exit
                                           ;; Starting pCode block
                                           _TIMER0_INT_Init	;Function start
                                           ; 2 exit points
                                           ;	.line	74; "Init.c"	T0CR = PRS_4; //CPU,4分频
0001c6   3c02     movai   0x2              	MOVAI	0x02
0001c7   5798     movra   0x198            	MOVRA	_T0CR
                                           ;	.line	75; "Init.c"	T0CNT = 100 -1;
0001c8   3c63     movai   0x63             	MOVAI	0x63
0001c9   5799     movra   0x199            	MOVRA	_T0CNT
                                           ;	.line	76; "Init.c"	T0LOAD = 100 -1;                 
0001ca   3c63     movai   0x63             	MOVAI	0x63
0001cb   579a     movra   0x19a            	MOVRA	_T0LOAD
                                           ;	.line	77; "Init.c"	T0EN = 1;
0001cc   cf98     bset    0x198, 0x7       	BSET	_T0CRbits,7
                                           ;	.line	78; "Init.c"	T0IE = 1;
0001cd   c18a     bset    0x18a, 0         	BSET	_INTEbits,0
                                           ;	.line	79; "Init.c"	}
0001ce   000c     return                   	RETURN	
                                           ; exit point of _TIMER0_INT_Init
                                           
                                           ;***
                                           ;  pBlock Stats: dbName = C
                                           ;***
                                           ;entry:  _IO_Init	;Function start
                                           ; 2 exit points
                                           ;has an exit
                                           ;; Starting pCode block
                                           _IO_Init	;Function start
                                           ; 2 exit points
                                           ;	.line	48; "Init.c"	IOP0 = 0x00;                       //io口数据位
0001cf   7790     clrr    0x190            	CLRR	_IOP0
                                           ;	.line	49; "Init.c"	OEP0 = 0xff;                       //io口方向 1:out  0:in
0001d0   3cff     movai   0xff             	MOVAI	0xff
0001d1   5791     movra   0x191            	MOVRA	_OEP0
                                           ;	.line	50; "Init.c"	PUP0 = 0x00;                       //io口上拉电阻   1:enable  0:disable
0001d2   7792     clrr    0x192            	CLRR	_PUP0
                                           ;	.line	51; "Init.c"	PDP0 = 0x00;                       //io口下拉电阻   1:enable  0:disable
0001d3   7793     clrr    0x193            	CLRR	_PDP0
                                           ;	.line	53; "Init.c"	IOP1 = 0x00;                       //io口数据位
0001d4   7794     clrr    0x194            	CLRR	_IOP1
                                           ;	.line	54; "Init.c"	OEP1 = 0xF7;                       //io口方向 1:out  0:in
0001d5   3cf7     movai   0xf7             	MOVAI	0xf7
0001d6   5795     movra   0x195            	MOVRA	_OEP1
                                           ;	.line	55; "Init.c"	PUP1 = 0x08;                       //io口上拉电阻   1:enable  0:disable
0001d7   3c08     movai   0x8              	MOVAI	0x08
0001d8   5796     movra   0x196            	MOVRA	_PUP1
                                           ;	.line	56; "Init.c"	PDP1 = 0x00;                       //io口下拉电阻   1:enable  0:disable
0001d9   7797     clrr    0x197            	CLRR	_PDP1
                                           ;	.line	58; "Init.c"	PMOD = 0x07;                       //bit2-bit0 P13、P01、P00 io端口输出模式  1:推挽输出 0:开漏输出
0001da   3c07     movai   0x7              	MOVAI	0x07
0001db   57bc     movra   0x1bc            	MOVRA	_PMOD
                                           ;	.line	60; "Init.c"	DRVCR = 0x80;                      //普通驱动
0001dc   3c80     movai   0x80             	MOVAI	0x80
0001dd   578c     movra   0x18c            	MOVRA	_DRVCR
                                           ;	.line	62; "Init.c"	P1KBCR = 0x08;                      //P1才有IO唤醒功能  P17~P10
0001de   3c08     movai   0x8              	MOVAI	0x08
0001df   578e     movra   0x18e            	MOVRA	_P1KBCR
                                           ;	.line	63; "Init.c"	}
0001e0   000c     return                   	RETURN	
                                           ; exit point of _IO_Init
                                           
                                           ;***
                                           ;  pBlock Stats: dbName = C
                                           ;***
                                           ;entry:  _CLR_RAM	;Function start
                                           ; 2 exit points
                                           ;has an exit
                                           ;; Starting pCode block
                                           _CLR_RAM	;Function start
                                           ; 2 exit points
                                           ;	.line	33; "Init.c"	for (FSR0 = 0; FSR0 < 0xff; FSR0++)
0001e1   7784     clrr    0x184            	CLRR	_FSR0
                                           ;;unsigned compare: left < lit(0xFF=255), size=1
                                           _00107_DS_
0001e2   3cff     movai   0xff             	MOVAI	0xff
0001e3   4984     rsubar  0x184            	RSUBAR	_FSR0
0001e4   f187     jbclr   0x187, 0         	JBCLR	PFLAG,0
0001e5   a1e9     goto    0x1e9            	GOTO	_00105_DS_
                                           ;;genSkipc:3291: created from rifx:013B5EFC
                                           ;	.line	35; "Init.c"	INDF0 = 0x00;
0001e6   7780     clrr    0x180            	CLRR	_INDF0
                                           ;	.line	33; "Init.c"	for (FSR0 = 0; FSR0 < 0xff; FSR0++)
0001e7   6784     incr    0x184            	INCR	_FSR0
0001e8   a1e2     goto    0x1e2            	GOTO	_00107_DS_
                                           _00105_DS_
                                           ;	.line	37; "Init.c"	FSR0 = 0xFF;
0001e9   3cff     movai   0xff             	MOVAI	0xff
0001ea   5784     movra   0x184            	MOVRA	_FSR0
                                           ;	.line	38; "Init.c"	INDF0 = 0x00;
0001eb   7780     clrr    0x180            	CLRR	_INDF0
                                           ;	.line	39; "Init.c"	}
0001ec   000c     return                   	RETURN	
                                           ; exit point of _CLR_RAM
                                           
                                           
                                           ;	code size estimation:
                                           ;	  140+    0 =   140 instructions (  280 byte)
                                           
                                           	end
                                           ;--------------------------------------------------------
                                           ; File Created by SN-SDCC : SinoMCU ANSI-C Compiler
                                           ; Version 2.0.0 (Dec 11 2019) (MINGW32)
                                           ; This file was generated Wed Nov 13 10:59:59 2024
                                           ;--------------------------------------------------------
                                           ; MC32 port for the RISC core
                                           ;--------------------------------------------------------
                                           ;	.file	"ADC.c"
                                           	list	p=7351
                                           	radix dec
                                           	include "7351.inc"
                                           		LIST
                                           ;mc32p7351.inc    Standard Header File, Version 1.00 by Sinomcu
                                           		NOLIST
                                           ;--------------------------------------------------------
                                           ; external declarations
                                           ;--------------------------------------------------------
                                           	extern	_Sys_Init
                                           	extern	_CLR_RAM
                                           	extern	_IO_Init
                                           	extern	_TIMER0_INT_Init
                                           	extern	_TIMER1_INT_Init
                                           	extern	_TIMER2_INT_Init
                                           	extern	_TIMER3_INT_Init
                                           	extern	_TIMER0_PWM_Init
                                           	extern	_TIMER1_PWM_Init
                                           	extern	_TIMER2_PWM_Init
                                           	extern	_ADC_Init
                                           	extern	_Scan_Key
                                           	extern	_Sleep_Func
                                           	extern	_delay
                                           	extern	_INDF0bits
                                           	extern	_INDF1bits
                                           	extern	_INDF2bits
                                           	extern	_HIBYTEbits
                                           	extern	_FSR0bits
                                           	extern	_FSR1bits
                                           	extern	_PCLbits
                                           	extern	_PFLAGbits
                                           	extern	_MCRbits
                                           	extern	_INDF3bits
                                           	extern	_INTEbits
                                           	extern	_INTFbits
                                           	extern	_DRVCRbits
                                           	extern	_PFRCCRbits
                                           	extern	_P1KBCRbits
                                           	extern	_PFRCCALbits
                                           	extern	_IOP0bits
                                           	extern	_OEP0bits
                                           	extern	_PUP0bits
                                           	extern	_PDP0bits
                                           	extern	_IOP1bits
                                           	extern	_OEP1bits
                                           	extern	_PUP1bits
                                           	extern	_PDP1bits
                                           	extern	_T0CRbits
                                           	extern	_T0CNTbits
                                           	extern	_T0LOADbits
                                           	extern	_T0DATAbits
                                           	extern	_T1CRbits
                                           	extern	_T1CNTbits
                                           	extern	_T1LOADbits
                                           	extern	_T1DATAbits
                                           	extern	_T2CRbits
                                           	extern	_T2CNTbits
                                           	extern	_T2LOADbits
                                           	extern	_T2DATAbits
                                           	extern	_T3CRbits
                                           	extern	_T3CNTbits
                                           	extern	_T3LOADbits
                                           	extern	_PWM0DRbits
                                           	extern	_PWM1DRbits
                                           	extern	_PWM2DRbits
                                           	extern	_PWMCR0bits
                                           	extern	_PWMCR1bits
                                           	extern	_OSCMRbits
                                           	extern	_LVDCRbits
                                           	extern	_ADCR0bits
                                           	extern	_ADCR1bits
                                           	extern	_ADCR2bits
                                           	extern	_OSADJCRbits
                                           	extern	_ADRHbits
                                           	extern	_ADRLbits
                                           	extern	_ADIOS0bits
                                           	extern	_ADIOS1bits
                                           	extern	_PMODbits
                                           	extern	_PWMCR3bits
                                           	extern	_PWMCR2bits
                                           	extern	_PFRCAUXbits
                                           	extern	_HIRCCALbits
                                           	extern	_Flag1
                                           	extern	_flag2
                                           	extern	_INDF0
                                           	extern	_INDF1
                                           	extern	_INDF2
                                           	extern	_HIBYTE
                                           	extern	_FSR0
                                           	extern	_FSR1
                                           	extern	_PCL
                                           	extern	_PFLAG
                                           	extern	_MCR
                                           	extern	_INDF3
                                           	extern	_INTE
                                           	extern	_INTF
                                           	extern	_DRVCR
                                           	extern	_PFRCCR
                                           	extern	_P1KBCR
                                           	extern	_PFRCCAL
                                           	extern	_IOP0
                                           	extern	_OEP0
                                           	extern	_PUP0
                                           	extern	_PDP0
                                           	extern	_IOP1
                                           	extern	_OEP1
                                           	extern	_PUP1
                                           	extern	_PDP1
                                           	extern	_T0CR
                                           	extern	_T0CNT
                                           	extern	_T0LOAD
                                           	extern	_T0DATA
                                           	extern	_T1CR
                                           	extern	_T1CNT
                                           	extern	_T1LOAD
                                           	extern	_T1DATA
                                           	extern	_T2CR
                                           	extern	_T2CNT
                                           	extern	_T2LOAD
                                           	extern	_T2DATA
                                           	extern	_T3CR
                                           	extern	_T3CNT
                                           	extern	_T3LOAD
                                           	extern	_PWM0DR
                                           	extern	_PWM1DR
                                           	extern	_PWM2DR
                                           	extern	_PWMCR0
                                           	extern	_PWMCR1
                                           	extern	_OSCMR
                                           	extern	_LVDCR
                                           	extern	_ADCR0
                                           	extern	_ADCR1
                                           	extern	_ADCR2
                                           	extern	_OSADJCR
                                           	extern	_ADRH
                                           	extern	_ADRL
                                           	extern	_ADIOS0
                                           	extern	_ADIOS1
                                           	extern	_PMOD
                                           	extern	_PWMCR3
                                           	extern	_PWMCR2
                                           	extern	_PFRCAUX
                                           	extern	_HIRCCAL
                                           
                                           	extern STK06
                                           	extern STK05
                                           	extern STK04
                                           	extern STK03
                                           	extern STK02
                                           	extern STK01
                                           	extern STK00
                                           ;--------------------------------------------------------
                                           ; global declarations
                                           ;--------------------------------------------------------
                                           	global	_ADC_Get_Value_Average
                                           	global	_Set_ADC_Channel
                                           	global	_Scan_ADC
                                           	global	_ADC_Zero_ADJ
                                           	global	_adc_star
                                           	global	_g_temp_value
                                           	global	_g_channel
                                           	global	_g_adcsum
                                           	global	_g_adcmax
                                           	global	_g_adcmin
                                           	global	_adc_data
                                           
                                           ;--------------------------------------------------------
                                           ; global definitions
                                           ;--------------------------------------------------------
                                           UD_ADC_0	udata
                                           _adc_star	res	1
                                           
                                           UD_ADC_1	udata
                                           _g_temp_value	res	2
                                           
                                           UD_ADC_2	udata
                                           _g_channel	res	1
                                           
                                           UD_ADC_3	udata
                                           _g_adcsum	res	4
                                           
                                           UD_ADC_4	udata
                                           _g_adcmax	res	2
                                           
                                           UD_ADC_5	udata
                                           _g_adcmin	res	2
                                           
                                           UD_ADC_6	udata
                                           _adc_data	res	2
                                           
                                           ;--------------------------------------------------------
                                           ; absolute symbol definitions
                                           ;--------------------------------------------------------
                                           ;--------------------------------------------------------
                                           ; compiler-defined variables
                                           ;--------------------------------------------------------
                                           UDL_ADC_0	udata
                                           r0x1016	res	1
                                           r0x1017	res	1
                                           r0x1018	res	1
                                           r0x1011	res	1
                                           r0x1010	res	1
                                           r0x1012	res	1
                                           r0x1013	res	1
                                           r0x100E	res	1
                                           r0x100F	res	1
                                           ;--------------------------------------------------------
                                           ; initialized data
                                           ;--------------------------------------------------------
                                           
                                           ;@Allocation info for local variables in function 'Scan_ADC'
                                           ;@Scan_ADC Sys_Init                  Allocated to registers ;size:2
                                           ;@Scan_ADC CLR_RAM                   Allocated to registers ;size:2
                                           ;@Scan_ADC IO_Init                   Allocated to registers ;size:2
                                           ;@Scan_ADC TIMER0_INT_Init           Allocated to registers ;size:2
                                           ;@Scan_ADC TIMER1_INT_Init           Allocated to registers ;size:2
                                           ;@Scan_ADC TIMER2_INT_Init           Allocated to registers ;size:2
                                           ;@Scan_ADC TIMER3_INT_Init           Allocated to registers ;size:2
                                           ;@Scan_ADC TIMER0_PWM_Init           Allocated to registers ;size:2
                                           ;@Scan_ADC TIMER1_PWM_Init           Allocated to registers ;size:2
                                           ;@Scan_ADC TIMER2_PWM_Init           Allocated to registers ;size:2
                                           ;@Scan_ADC ADC_Init                  Allocated to registers ;size:2
                                           ;@Scan_ADC Set_ADC_Channel           Allocated to registers ;size:2
                                           ;@Scan_ADC ADC_Get_Value_Average     Allocated to registers ;size:2
                                           ;@Scan_ADC Scan_Key                  Allocated to registers ;size:2
                                           ;@Scan_ADC Sleep_Func                Allocated to registers ;size:2
                                           ;@Scan_ADC delay                     Allocated to registers ;size:2
                                           ;@Scan_ADC INDF0bits                 Allocated to registers ;size:1
                                           ;@Scan_ADC INDF1bits                 Allocated to registers ;size:1
                                           ;@Scan_ADC INDF2bits                 Allocated to registers ;size:1
                                           ;@Scan_ADC HIBYTEbits                Allocated to registers ;size:1
                                           ;@Scan_ADC FSR0bits                  Allocated to registers ;size:1
                                           ;@Scan_ADC FSR1bits                  Allocated to registers ;size:1
                                           ;@Scan_ADC PCLbits                   Allocated to registers ;size:1
                                           ;@Scan_ADC PFLAGbits                 Allocated to registers ;size:1
                                           ;@Scan_ADC MCRbits                   Allocated to registers ;size:1
                                           ;@Scan_ADC INDF3bits                 Allocated to registers ;size:1
                                           ;@Scan_ADC INTEbits                  Allocated to registers ;size:1
                                           ;@Scan_ADC INTFbits                  Allocated to registers ;size:1
                                           ;@Scan_ADC DRVCRbits                 Allocated to registers ;size:1
                                           ;@Scan_ADC PFRCCRbits                Allocated to registers ;size:1
                                           ;@Scan_ADC P1KBCRbits                Allocated to registers ;size:1
                                           ;@Scan_ADC PFRCCALbits               Allocated to registers ;size:1
                                           ;@Scan_ADC IOP0bits                  Allocated to registers ;size:1
                                           ;@Scan_ADC OEP0bits                  Allocated to registers ;size:1
                                           ;@Scan_ADC PUP0bits                  Allocated to registers ;size:1
                                           ;@Scan_ADC PDP0bits                  Allocated to registers ;size:1
                                           ;@Scan_ADC IOP1bits                  Allocated to registers ;size:1
                                           ;@Scan_ADC OEP1bits                  Allocated to registers ;size:1
                                           ;@Scan_ADC PUP1bits                  Allocated to registers ;size:1
                                           ;@Scan_ADC PDP1bits                  Allocated to registers ;size:1
                                           ;@Scan_ADC T0CRbits                  Allocated to registers ;size:1
                                           ;@Scan_ADC T0CNTbits                 Allocated to registers ;size:1
                                           ;@Scan_ADC T0LOADbits                Allocated to registers ;size:1
                                           ;@Scan_ADC T0DATAbits                Allocated to registers ;size:1
                                           ;@Scan_ADC T1CRbits                  Allocated to registers ;size:1
                                           ;@Scan_ADC T1CNTbits                 Allocated to registers ;size:1
                                           ;@Scan_ADC T1LOADbits                Allocated to registers ;size:1
                                           ;@Scan_ADC T1DATAbits                Allocated to registers ;size:1
                                           ;@Scan_ADC T2CRbits                  Allocated to registers ;size:1
                                           ;@Scan_ADC T2CNTbits                 Allocated to registers ;size:1
                                           ;@Scan_ADC T2LOADbits                Allocated to registers ;size:1
                                           ;@Scan_ADC T2DATAbits                Allocated to registers ;size:1
                                           ;@Scan_ADC T3CRbits                  Allocated to registers ;size:1
                                           ;@Scan_ADC T3CNTbits                 Allocated to registers ;size:1
                                           ;@Scan_ADC T3LOADbits                Allocated to registers ;size:1
                                           ;@Scan_ADC PWM0DRbits                Allocated to registers ;size:1
                                           ;@Scan_ADC PWM1DRbits                Allocated to registers ;size:1
                                           ;@Scan_ADC PWM2DRbits                Allocated to registers ;size:1
                                           ;@Scan_ADC PWMCR0bits                Allocated to registers ;size:1
                                           ;@Scan_ADC PWMCR1bits                Allocated to registers ;size:1
                                           ;@Scan_ADC OSCMRbits                 Allocated to registers ;size:1
                                           ;@Scan_ADC LVDCRbits                 Allocated to registers ;size:1
                                           ;@Scan_ADC ADCR0bits                 Allocated to registers ;size:1
                                           ;@Scan_ADC ADCR1bits                 Allocated to registers ;size:1
                                           ;@Scan_ADC ADCR2bits                 Allocated to registers ;size:1
                                           ;@Scan_ADC OSADJCRbits               Allocated to registers ;size:1
                                           ;@Scan_ADC ADRHbits                  Allocated to registers ;size:1
                                           ;@Scan_ADC ADRLbits                  Allocated to registers ;size:1
                                           ;@Scan_ADC ADIOS0bits                Allocated to registers ;size:1
                                           ;@Scan_ADC ADIOS1bits                Allocated to registers ;size:1
                                           ;@Scan_ADC PMODbits                  Allocated to registers ;size:1
                                           ;@Scan_ADC PWMCR3bits                Allocated to registers ;size:1
                                           ;@Scan_ADC PWMCR2bits                Allocated to registers ;size:1
                                           ;@Scan_ADC PFRCAUXbits               Allocated to registers ;size:1
                                           ;@Scan_ADC HIRCCALbits               Allocated to registers ;size:1
                                           ;@Scan_ADC Flag1                     Allocated to registers ;size:1
                                           ;@Scan_ADC flag2                     Allocated to registers ;size:1
                                           ;@Scan_ADC adc_star                  Allocated to registers ;size:1
                                           ;@Scan_ADC g_temp_value              Allocated to registers ;size:2
                                           ;@Scan_ADC g_channel                 Allocated to registers ;size:1
                                           ;@Scan_ADC g_adcsum                  Allocated to registers ;size:4
                                           ;@Scan_ADC g_adcmax                  Allocated to registers ;size:2
                                           ;@Scan_ADC g_adcmin                  Allocated to registers ;size:2
                                           ;@Scan_ADC adc_data                  Allocated to registers ;size:2
                                           ;@Scan_ADC INDF0                     Allocated to registers ;size:1
                                           ;@Scan_ADC INDF1                     Allocated to registers ;size:1
                                           ;@Scan_ADC INDF2                     Allocated to registers ;size:1
                                           ;@Scan_ADC HIBYTE                    Allocated to registers ;size:1
                                           ;@Scan_ADC FSR0                      Allocated to registers ;size:1
                                           ;@Scan_ADC FSR1                      Allocated to registers ;size:1
                                           ;@Scan_ADC PCL                       Allocated to registers ;size:1
                                           ;@Scan_ADC PFLAG                     Allocated to registers ;size:1
                                           ;@Scan_ADC MCR                       Allocated to registers ;size:1
                                           ;@Scan_ADC INDF3                     Allocated to registers ;size:1
                                           ;@Scan_ADC INTE                      Allocated to registers ;size:1
                                           ;@Scan_ADC INTF                      Allocated to registers ;size:1
                                           ;@Scan_ADC DRVCR                     Allocated to registers ;size:1
                                           ;@Scan_ADC PFRCCR                    Allocated to registers ;size:1
                                           ;@Scan_ADC P1KBCR                    Allocated to registers ;size:1
                                           ;@Scan_ADC PFRCCAL                   Allocated to registers ;size:1
                                           ;@Scan_ADC IOP0                      Allocated to registers ;size:1
                                           ;@Scan_ADC OEP0                      Allocated to registers ;size:1
                                           ;@Scan_ADC PUP0                      Allocated to registers ;size:1
                                           ;@Scan_ADC PDP0                      Allocated to registers ;size:1
                                           ;@Scan_ADC IOP1                      Allocated to registers ;size:1
                                           ;@Scan_ADC OEP1                      Allocated to registers ;size:1
                                           ;@Scan_ADC PUP1                      Allocated to registers ;size:1
                                           ;@Scan_ADC PDP1                      Allocated to registers ;size:1
                                           ;@Scan_ADC T0CR                      Allocated to registers ;size:1
                                           ;@Scan_ADC T0CNT                     Allocated to registers ;size:1
                                           ;@Scan_ADC T0LOAD                    Allocated to registers ;size:1
                                           ;@Scan_ADC T0DATA                    Allocated to registers ;size:1
                                           ;@Scan_ADC T1CR                      Allocated to registers ;size:1
                                           ;@Scan_ADC T1CNT                     Allocated to registers ;size:1
                                           ;@Scan_ADC T1LOAD                    Allocated to registers ;size:1
                                           ;@Scan_ADC T1DATA                    Allocated to registers ;size:1
                                           ;@Scan_ADC T2CR                      Allocated to registers ;size:1
                                           ;@Scan_ADC T2CNT                     Allocated to registers ;size:1
                                           ;@Scan_ADC T2LOAD                    Allocated to registers ;size:1
                                           ;@Scan_ADC T2DATA                    Allocated to registers ;size:1
                                           ;@Scan_ADC T3CR                      Allocated to registers ;size:1
                                           ;@Scan_ADC T3CNT                     Allocated to registers ;size:1
                                           ;@Scan_ADC T3LOAD                    Allocated to registers ;size:1
                                           ;@Scan_ADC PWM0DR                    Allocated to registers ;size:1
                                           ;@Scan_ADC PWM1DR                    Allocated to registers ;size:1
                                           ;@Scan_ADC PWM2DR                    Allocated to registers ;size:1
                                           ;@Scan_ADC PWMCR0                    Allocated to registers ;size:1
                                           ;@Scan_ADC PWMCR1                    Allocated to registers ;size:1
                                           ;@Scan_ADC OSCMR                     Allocated to registers ;size:1
                                           ;@Scan_ADC LVDCR                     Allocated to registers ;size:1
                                           ;@Scan_ADC ADCR0                     Allocated to registers ;size:1
                                           ;@Scan_ADC ADCR1                     Allocated to registers ;size:1
                                           ;@Scan_ADC ADCR2                     Allocated to registers ;size:1
                                           ;@Scan_ADC OSADJCR                   Allocated to registers ;size:1
                                           ;@Scan_ADC ADRH                      Allocated to registers ;size:1
                                           ;@Scan_ADC ADRL                      Allocated to registers ;size:1
                                           ;@Scan_ADC ADIOS0                    Allocated to registers ;size:1
                                           ;@Scan_ADC ADIOS1                    Allocated to registers ;size:1
                                           ;@Scan_ADC PMOD                      Allocated to registers ;size:1
                                           ;@Scan_ADC PWMCR3                    Allocated to registers ;size:1
                                           ;@Scan_ADC PWMCR2                    Allocated to registers ;size:1
                                           ;@Scan_ADC PFRCAUX                   Allocated to registers ;size:1
                                           ;@Scan_ADC HIRCCAL                   Allocated to registers ;size:1
                                           ;@end Allocation info for local variables in function 'Scan_ADC';
                                           ;@Allocation info for local variables in function 'Set_ADC_Channel'
                                           ;@Set_ADC_Channel CHX                       Allocated to registers r0x1016 ;size:1
                                           ;@end Allocation info for local variables in function 'Set_ADC_Channel';
                                           ;@Allocation info for local variables in function 'ADC_Get_Value_Average'
                                           ;@end Allocation info for local variables in function 'ADC_Get_Value_Average';
                                           ;@Allocation info for local variables in function 'ADC_Zero_ADJ'
                                           ;@end Allocation info for local variables in function 'ADC_Zero_ADJ';
                                           
                                           ;--------------------------------------------------------
                                           ; overlayable items in internal ram 
                                           ;--------------------------------------------------------
                                           ;	udata_ovr
                                           ;--------------------------------------------------------
                                           ; code
                                           ;--------------------------------------------------------
                                           code_ADC	code
                                           ;***
                                           ;  pBlock Stats: dbName = C
                                           ;***
                                           ;entry:  _ADC_Zero_ADJ	;Function start
                                           ; 2 exit points
                                           ;has an exit
                                           ;2 compiler assigned registers:
                                           ;   r0x100E
                                           ;   r0x100F
                                           ;; Starting pCode block
                                           _ADC_Zero_ADJ	;Function start
                                           ; 2 exit points
                                           ;	.line	98; "ADC.c"	ADCR0 = 0xeb;                                //使能ADC、12位数据H8L4、GND通道
000039   3ceb     movai   0xeb             	MOVAI	0xeb
00003a   57b0     movra   0x1b0            	MOVRA	_ADCR0
                                           ;	.line	99; "ADC.c"	ADCR1 = 0x80;                                //32分频、内部2V
00003b   3c80     movai   0x80             	MOVAI	0x80
00003c   57b1     movra   0x1b1            	MOVRA	_ADCR1
                                           ;	.line	100; "ADC.c"	ADCR2 = 0xff;                                //固定为15ADCLK
00003d   3cff     movai   0xff             	MOVAI	0xff
00003e   57b2     movra   0x1b2            	MOVRA	_ADCR2
                                           ;	.line	101; "ADC.c"	OSADJCR |= DEF_SET_BIT7;                     //使能零点校准、负向修调
00003f   cfb3     bset    0x1b3, 0x7       	BSET	_OSADJCR,7
                                           ;	.line	102; "ADC.c"	ADEOC = 0;
000040   d3b0     bclr    0x1b0, 0x1       	BCLR	_ADCR0bits,1
                                           _00177_DS_
                                           ;	.line	103; "ADC.c"	while (!ADEOC);
000041   e3b0     jbset   0x1b0, 0x1       	JBSET	_ADCR0bits,1
000042   a041     goto    0x41             	GOTO	_00177_DS_
                                           ;	.line	104; "ADC.c"	if ((ADRH == 0) && ((ADRL & 0x0F) == 0))     //结果是否为0
000043   3c00     movai   0                	MOVAI	0x00
000044   5db4     orar    0x1b4            	ORAR	_ADRH
000045   e587     jbset   0x187, 0x2       	JBSET	PFLAG,2
000046   a07b     goto    0x7b             	GOTO	_00209_DS_
000047   59b5     movar   0x1b5            	MOVAR	_ADRL
000048   560e     movra   0xe              	MOVRA	r0x100E
000049   580e     movar   0xe              	MOVAR	r0x100E
00004a   3e0f     andai   0xf              	ANDAI	0x0f
00004b   e587     jbset   0x187, 0x2       	JBSET	PFLAG,2
00004c   a07b     goto    0x7b             	GOTO	_00209_DS_
                                           ;	.line	106; "ADC.c"	OSADJTD = 1;                             //正向修调
00004d   cdb3     bset    0x1b3, 0x6       	BSET	_OSADJCRbits,6
                                           ;	.line	107; "ADC.c"	OSADJCR |= 0x3F;
00004e   3c3f     movai   0x3f             	MOVAI	0x3f
00004f   5fb3     orra    0x1b3            	ORRA	_OSADJCR
                                           ;	.line	108; "ADC.c"	ADEOC = 0;
000050   d3b0     bclr    0x1b0, 0x1       	BCLR	_ADCR0bits,1
                                           _00180_DS_
                                           ;	.line	109; "ADC.c"	while (!ADEOC);
000051   e3b0     jbset   0x1b0, 0x1       	JBSET	_ADCR0bits,1
000052   a051     goto    0x51             	GOTO	_00180_DS_
                                           ;	.line	110; "ADC.c"	if ((ADRH == 0) && ((ADRL & 0x0F) == 0)) //结果是否为0
000053   3c00     movai   0                	MOVAI	0x00
000054   5db4     orar    0x1b4            	ORAR	_ADRH
000055   e587     jbset   0x187, 0x2       	JBSET	PFLAG,2
000056   a060     goto    0x60             	GOTO	_00193_DS_
000057   59b5     movar   0x1b5            	MOVAR	_ADRL
000058   560e     movra   0xe              	MOVRA	r0x100E
000059   580e     movar   0xe              	MOVAR	r0x100E
00005a   3e0f     andai   0xf              	ANDAI	0x0f
00005b   e587     jbset   0x187, 0x2       	JBSET	PFLAG,2
00005c   a060     goto    0x60             	GOTO	_00193_DS_
                                           ;	.line	112; "ADC.c"	ADEN = 0;
00005d   d1b0     bclr    0x1b0, 0         	BCLR	_ADCR0bits,0
                                           ;	.line	113; "ADC.c"	return PASS;
00005e   3c00     movai   0                	MOVAI	0x00
00005f   a09c     goto    0x9c             	GOTO	_00215_DS_
                                           _00193_DS_
                                           ;	.line	119; "ADC.c"	if (OSADJCR & 0x3f)
000060   59b3     movar   0x1b3            	MOVAR	_OSADJCR
000061   560e     movra   0xe              	MOVRA	r0x100E
000062   580e     movar   0xe              	MOVAR	r0x100E
000063   3e3f     andai   0x3f             	ANDAI	0x3f
000064   e587     jbset   0x187, 0x2       	JBSET	PFLAG,2
000065   a067     goto    0x67             	GOTO	_00301_DS_
000066   a078     goto    0x78             	GOTO	_00190_DS_
                                           _00301_DS_
                                           ;	.line	121; "ADC.c"	OSADJCR --;
000067   6fb3     decr    0x1b3            	DECR	_OSADJCR
                                           ;	.line	122; "ADC.c"	ADEOC = 0;
000068   d3b0     bclr    0x1b0, 0x1       	BCLR	_ADCR0bits,1
                                           _00183_DS_
                                           ;	.line	123; "ADC.c"	while (!ADEOC);
000069   e3b0     jbset   0x1b0, 0x1       	JBSET	_ADCR0bits,1
00006a   a069     goto    0x69             	GOTO	_00183_DS_
                                           ;	.line	124; "ADC.c"	if ((ADRH == 0) && ((ADRL & 0x0F) == 0))//结果是否为0
00006b   3c00     movai   0                	MOVAI	0x00
00006c   5db4     orar    0x1b4            	ORAR	_ADRH
00006d   e587     jbset   0x187, 0x2       	JBSET	PFLAG,2
00006e   a060     goto    0x60             	GOTO	_00193_DS_
00006f   59b5     movar   0x1b5            	MOVAR	_ADRL
000070   560e     movra   0xe              	MOVRA	r0x100E
000071   580e     movar   0xe              	MOVAR	r0x100E
000072   3e0f     andai   0xf              	ANDAI	0x0f
000073   e587     jbset   0x187, 0x2       	JBSET	PFLAG,2
000074   a060     goto    0x60             	GOTO	_00193_DS_
                                           ;	.line	126; "ADC.c"	ADEN = 0;
000075   d1b0     bclr    0x1b0, 0         	BCLR	_ADCR0bits,0
                                           ;	.line	127; "ADC.c"	return PASS;
000076   3c00     movai   0                	MOVAI	0x00
000077   a09c     goto    0x9c             	GOTO	_00215_DS_
                                           _00190_DS_
                                           ;	.line	132; "ADC.c"	ADEN = 0;
000078   d1b0     bclr    0x1b0, 0         	BCLR	_ADCR0bits,0
                                           ;	.line	133; "ADC.c"	return FAIL;
000079   3c01     movai   0x1              	MOVAI	0x01
00007a   a09c     goto    0x9c             	GOTO	_00215_DS_
                                           _00209_DS_
                                           ;	.line	142; "ADC.c"	if ((OSADJCR & 0x3f) == 0x3f)
00007b   59b3     movar   0x1b3            	MOVAR	_OSADJCR
00007c   560e     movra   0xe              	MOVRA	r0x100E
00007d   760f     clrr    0xf              	CLRR	r0x100F
00007e   3c3f     movai   0x3f             	MOVAI	0x3f
00007f   7a0e     andra   0xe              	ANDRA	r0x100E
000080   760f     clrr    0xf              	CLRR	r0x100F
000081   580e     movar   0xe              	MOVAR	r0x100E
000082   393f     xorai   0x3f             	XORAI	0x3f
000083   e587     jbset   0x187, 0x2       	JBSET	PFLAG,2
000084   a08c     goto    0x8c             	GOTO	_00206_DS_
000085   580f     movar   0xf              	MOVAR	r0x100F
000086   3900     xorai   0                	XORAI	0x00
000087   e587     jbset   0x187, 0x2       	JBSET	PFLAG,2
000088   a08c     goto    0x8c             	GOTO	_00206_DS_
                                           ;	.line	144; "ADC.c"	ADEN = 0;
000089   d1b0     bclr    0x1b0, 0         	BCLR	_ADCR0bits,0
                                           ;	.line	145; "ADC.c"	return FAIL;
00008a   3c01     movai   0x1              	MOVAI	0x01
00008b   a09c     goto    0x9c             	GOTO	_00215_DS_
                                           _00206_DS_
                                           ;	.line	149; "ADC.c"	OSADJCR ++;
00008c   67b3     incr    0x1b3            	INCR	_OSADJCR
                                           ;	.line	150; "ADC.c"	ADEOC = 0;
00008d   d3b0     bclr    0x1b0, 0x1       	BCLR	_ADCR0bits,1
                                           _00199_DS_
                                           ;	.line	151; "ADC.c"	while (!ADEOC);
00008e   e3b0     jbset   0x1b0, 0x1       	JBSET	_ADCR0bits,1
00008f   a08e     goto    0x8e             	GOTO	_00199_DS_
                                           ;	.line	152; "ADC.c"	if ((ADRH == 0) && ((ADRL & 0x0F) == 0))//结果是否为0
000090   3c00     movai   0                	MOVAI	0x00
000091   5db4     orar    0x1b4            	ORAR	_ADRH
000092   e587     jbset   0x187, 0x2       	JBSET	PFLAG,2
000093   a07b     goto    0x7b             	GOTO	_00209_DS_
000094   59b5     movar   0x1b5            	MOVAR	_ADRL
000095   560e     movra   0xe              	MOVRA	r0x100E
000096   580e     movar   0xe              	MOVAR	r0x100E
000097   3e0f     andai   0xf              	ANDAI	0x0f
000098   e587     jbset   0x187, 0x2       	JBSET	PFLAG,2
000099   a07b     goto    0x7b             	GOTO	_00209_DS_
                                           ;	.line	154; "ADC.c"	ADEN = 0;
00009a   d1b0     bclr    0x1b0, 0         	BCLR	_ADCR0bits,0
                                           ;	.line	155; "ADC.c"	return PASS;
00009b   3c00     movai   0                	MOVAI	0x00
                                           _00215_DS_
                                           ;	.line	160; "ADC.c"	}
00009c   000c     return                   	RETURN	
                                           ; exit point of _ADC_Zero_ADJ
                                           
                                           ;***
                                           ;  pBlock Stats: dbName = C
                                           ;***
                                           ;entry:  _ADC_Get_Value_Average	;Function start
                                           ; 2 exit points
                                           ;has an exit
                                           ;7 compiler assigned registers:
                                           ;   r0x1010
                                           ;   r0x1011
                                           ;   r0x1012
                                           ;   r0x1013
                                           ;   r0x1014
                                           ;   r0x1015
                                           ;   STK00
                                           ;; Starting pCode block
                                           _ADC_Get_Value_Average	;Function start
                                           ; 2 exit points
                                           ;	.line	63; "ADC.c"	g_adcsum = 0;
00009d   7614     clrr    0x14             	CLRR	_g_adcsum
00009e   7615     clrr    0x15             	CLRR	(_g_adcsum + 1)
00009f   7616     clrr    0x16             	CLRR	(_g_adcsum + 2)
0000a0   7617     clrr    0x17             	CLRR	(_g_adcsum + 3)
                                           ;	.line	64; "ADC.c"	g_adcmax = 0;
0000a1   761d     clrr    0x1d             	CLRR	_g_adcmax
0000a2   761e     clrr    0x1e             	CLRR	(_g_adcmax + 1)
                                           ;	.line	65; "ADC.c"	g_adcmin = 0xffff;
0000a3   3cff     movai   0xff             	MOVAI	0xff
0000a4   561f     movra   0x1f             	MOVRA	_g_adcmin
0000a5   5620     movra   0x20             	MOVRA	(_g_adcmin + 1)
                                           ;	.line	67; "ADC.c"	for (g_channel = 0; g_channel < 20; g_channel ++)
0000a6   762e     clrr    0x2e             	CLRR	_g_channel
                                           _00139_DS_
                                           ;	.line	69; "ADC.c"	ADEOC = 0;
0000a7   d3b0     bclr    0x1b0, 0x1       	BCLR	_ADCR0bits,1
                                           _00128_DS_
                                           ;	.line	70; "ADC.c"	while (!ADEOC);                         //等待转换完成
0000a8   e3b0     jbset   0x1b0, 0x1       	JBSET	_ADCR0bits,1
0000a9   a0a8     goto    0xa8             	GOTO	_00128_DS_
                                           ;	.line	71; "ADC.c"	g_temp_value = ADRH;
0000aa   59b4     movar   0x1b4            	MOVAR	_ADRH
0000ab   561b     movra   0x1b             	MOVRA	_g_temp_value
0000ac   761c     clrr    0x1c             	CLRR	(_g_temp_value + 1)
                                           ;	.line	72; "ADC.c"	g_temp_value = g_temp_value << 4 | (ADRL & 0x0f);
0000ad   441c     swapar  0x1c             	SWAPAR	(_g_temp_value + 1)
0000ae   3ef0     andai   0xf0             	ANDAI	0xf0
0000af   560b     movra   0xb              	MOVRA	r0x1010
0000b0   441b     swapar  0x1b             	SWAPAR	_g_temp_value
0000b1   560a     movra   0xa              	MOVRA	r0x1011
0000b2   3e0f     andai   0xf              	ANDAI	0x0f
0000b3   5e0b     orra    0xb              	ORRA	r0x1010
0000b4   420a     xorra   0xa              	XORRA	r0x1011
0000b5   59b5     movar   0x1b5            	MOVAR	_ADRL
0000b6   560c     movra   0xc              	MOVRA	r0x1012
0000b7   760d     clrr    0xd              	CLRR	r0x1013
0000b8   3c0f     movai   0xf              	MOVAI	0x0f
0000b9   7a0c     andra   0xc              	ANDRA	r0x1012
0000ba   760d     clrr    0xd              	CLRR	r0x1013
                                           ;;101	MOVAR	r0x1012
                                           ;;99	MOVRA	r0x1014
                                           ;;104	MOVAR	r0x1013
                                           ;;102	MOVRA	r0x1015
                                           ;;100	MOVAR	r0x1014
0000bb   580c     movar   0xc              	MOVAR	r0x1012
0000bc   5c0a     orar    0xa              	ORAR	r0x1011
0000bd   561b     movra   0x1b             	MOVRA	_g_temp_value
                                           ;;103	MOVAR	r0x1015
0000be   3c00     movai   0                	MOVAI	0x00
0000bf   5c0b     orar    0xb              	ORAR	r0x1010
0000c0   561c     movra   0x1c             	MOVRA	(_g_temp_value + 1)
                                           ;;unsigned compare: left < lit(0x2=2), size=1
                                           ;	.line	73; "ADC.c"	if (g_channel < 2)
0000c1   3c02     movai   0x2              	MOVAI	0x02
0000c2   482e     rsubar  0x2e             	RSUBAR	_g_channel
0000c3   e187     jbset   0x187, 0         	JBSET	PFLAG,0
0000c4   a0f1     goto    0xf1             	GOTO	_00137_DS_
                                           ;;genSkipc:3291: created from rifx:013B5EFC
                                           ;	.line	76; "ADC.c"	if (g_temp_value > g_adcmax)
0000c5   581c     movar   0x1c             	MOVAR	(_g_temp_value + 1)
0000c6   481e     rsubar  0x1e             	RSUBAR	(_g_adcmax + 1)
0000c7   e587     jbset   0x187, 0x2       	JBSET	PFLAG,2
0000c8   a0cb     goto    0xcb             	GOTO	_00171_DS_
0000c9   581b     movar   0x1b             	MOVAR	_g_temp_value
0000ca   481d     rsubar  0x1d             	RSUBAR	_g_adcmax
                                           _00171_DS_
0000cb   f187     jbclr   0x187, 0         	JBCLR	PFLAG,0
0000cc   a0d1     goto    0xd1             	GOTO	_00134_DS_
                                           ;;genSkipc:3291: created from rifx:013B5EFC
                                           ;	.line	77; "ADC.c"	g_adcmax = g_temp_value;             //最大
0000cd   581b     movar   0x1b             	MOVAR	_g_temp_value
0000ce   561d     movra   0x1d             	MOVRA	_g_adcmax
0000cf   581c     movar   0x1c             	MOVAR	(_g_temp_value + 1)
0000d0   561e     movra   0x1e             	MOVRA	(_g_adcmax + 1)
                                           _00134_DS_
                                           ;	.line	78; "ADC.c"	if (g_temp_value < g_adcmin)
0000d1   5820     movar   0x20             	MOVAR	(_g_adcmin + 1)
0000d2   481c     rsubar  0x1c             	RSUBAR	(_g_temp_value + 1)
0000d3   e587     jbset   0x187, 0x2       	JBSET	PFLAG,2
0000d4   a0d7     goto    0xd7             	GOTO	_00172_DS_
0000d5   581f     movar   0x1f             	MOVAR	_g_adcmin
0000d6   481b     rsubar  0x1b             	RSUBAR	_g_temp_value
                                           _00172_DS_
0000d7   f187     jbclr   0x187, 0         	JBCLR	PFLAG,0
0000d8   a0dd     goto    0xdd             	GOTO	_00136_DS_
                                           ;;genSkipc:3291: created from rifx:013B5EFC
                                           ;	.line	79; "ADC.c"	g_adcmin = g_temp_value;             //最小
0000d9   581b     movar   0x1b             	MOVAR	_g_temp_value
0000da   561f     movra   0x1f             	MOVRA	_g_adcmin
0000db   581c     movar   0x1c             	MOVAR	(_g_temp_value + 1)
0000dc   5620     movra   0x20             	MOVRA	(_g_adcmin + 1)
                                           _00136_DS_
                                           ;	.line	80; "ADC.c"	g_adcsum += g_temp_value;  	   	
0000dd   581b     movar   0x1b             	MOVAR	_g_temp_value
0000de   560a     movra   0xa              	MOVRA	r0x1011
0000df   581c     movar   0x1c             	MOVAR	(_g_temp_value + 1)
0000e0   560b     movra   0xb              	MOVRA	r0x1010
0000e1   760c     clrr    0xc              	CLRR	r0x1012
0000e2   760d     clrr    0xd              	CLRR	r0x1013
0000e3   580a     movar   0xa              	MOVAR	r0x1011
0000e4   7e14     addra   0x14             	ADDRA	_g_adcsum
0000e5   580b     movar   0xb              	MOVAR	r0x1010
0000e6   f187     jbclr   0x187, 0         	JBCLR	PFLAG,0
0000e7   600b     jzar    0xb              	JZAR	r0x1010
0000e8   7e15     addra   0x15             	ADDRA	(_g_adcsum + 1)
0000e9   580c     movar   0xc              	MOVAR	r0x1012
0000ea   f187     jbclr   0x187, 0         	JBCLR	PFLAG,0
0000eb   600c     jzar    0xc              	JZAR	r0x1012
0000ec   7e16     addra   0x16             	ADDRA	(_g_adcsum + 2)
0000ed   580d     movar   0xd              	MOVAR	r0x1013
0000ee   f187     jbclr   0x187, 0         	JBCLR	PFLAG,0
0000ef   600d     jzar    0xd              	JZAR	r0x1013
0000f0   7e17     addra   0x17             	ADDRA	(_g_adcsum + 3)
                                           _00137_DS_
                                           ;	.line	67; "ADC.c"	for (g_channel = 0; g_channel < 20; g_channel ++)
0000f1   662e     incr    0x2e             	INCR	_g_channel
                                           ;;unsigned compare: left < lit(0x14=20), size=1
0000f2   3c14     movai   0x14             	MOVAI	0x14
0000f3   482e     rsubar  0x2e             	RSUBAR	_g_channel
0000f4   e187     jbset   0x187, 0         	JBSET	PFLAG,0
0000f5   a0a7     goto    0xa7             	GOTO	_00139_DS_
                                           ;;genSkipc:3291: created from rifx:013B5EFC
                                           ;	.line	82; "ADC.c"	g_adcsum -= g_adcmax;                       //去掉一个最大
0000f6   581d     movar   0x1d             	MOVAR	_g_adcmax
0000f7   560a     movra   0xa              	MOVRA	r0x1011
0000f8   581e     movar   0x1e             	MOVAR	(_g_adcmax + 1)
0000f9   560b     movra   0xb              	MOVRA	r0x1010
0000fa   760c     clrr    0xc              	CLRR	r0x1012
0000fb   760d     clrr    0xd              	CLRR	r0x1013
0000fc   580a     movar   0xa              	MOVAR	r0x1011
0000fd   4a14     rsubra  0x14             	RSUBRA	_g_adcsum
0000fe   580b     movar   0xb              	MOVAR	r0x1010
0000ff   e187     jbset   0x187, 0         	JBSET	PFLAG,0
000100   600b     jzar    0xb              	JZAR	r0x1010
000101   4a15     rsubra  0x15             	RSUBRA	(_g_adcsum + 1)
000102   580c     movar   0xc              	MOVAR	r0x1012
000103   e187     jbset   0x187, 0         	JBSET	PFLAG,0
000104   600c     jzar    0xc              	JZAR	r0x1012
000105   4a16     rsubra  0x16             	RSUBRA	(_g_adcsum + 2)
000106   580d     movar   0xd              	MOVAR	r0x1013
000107   e187     jbset   0x187, 0         	JBSET	PFLAG,0
000108   600d     jzar    0xd              	JZAR	r0x1013
000109   4a17     rsubra  0x17             	RSUBRA	(_g_adcsum + 3)
                                           ;	.line	83; "ADC.c"	g_adcsum -= g_adcmin;                       //去掉一个最小
00010a   581f     movar   0x1f             	MOVAR	_g_adcmin
00010b   560a     movra   0xa              	MOVRA	r0x1011
00010c   5820     movar   0x20             	MOVAR	(_g_adcmin + 1)
00010d   560b     movra   0xb              	MOVRA	r0x1010
00010e   760c     clrr    0xc              	CLRR	r0x1012
00010f   760d     clrr    0xd              	CLRR	r0x1013
000110   580a     movar   0xa              	MOVAR	r0x1011
000111   4a14     rsubra  0x14             	RSUBRA	_g_adcsum
000112   580b     movar   0xb              	MOVAR	r0x1010
000113   e187     jbset   0x187, 0         	JBSET	PFLAG,0
000114   600b     jzar    0xb              	JZAR	r0x1010
000115   4a15     rsubra  0x15             	RSUBRA	(_g_adcsum + 1)
000116   580c     movar   0xc              	MOVAR	r0x1012
000117   e187     jbset   0x187, 0         	JBSET	PFLAG,0
000118   600c     jzar    0xc              	JZAR	r0x1012
000119   4a16     rsubra  0x16             	RSUBRA	(_g_adcsum + 2)
00011a   580d     movar   0xd              	MOVAR	r0x1013
00011b   e187     jbset   0x187, 0         	JBSET	PFLAG,0
00011c   600d     jzar    0xd              	JZAR	r0x1013
00011d   4a17     rsubra  0x17             	RSUBRA	(_g_adcsum + 3)
                                           ;	.line	84; "ADC.c"	g_temp_value = (g_adcsum >> 4);             //除以16，取平均值
00011e   4414     swapar  0x14             	SWAPAR	_g_adcsum
00011f   3e0f     andai   0xf              	ANDAI	0x0f
000120   560a     movra   0xa              	MOVRA	r0x1011
000121   4415     swapar  0x15             	SWAPAR	(_g_adcsum + 1)
000122   560b     movra   0xb              	MOVRA	r0x1010
000123   3ef0     andai   0xf0             	ANDAI	0xf0
000124   5e0a     orra    0xa              	ORRA	r0x1011
000125   420b     xorra   0xb              	XORRA	r0x1010
000126   4416     swapar  0x16             	SWAPAR	(_g_adcsum + 2)
000127   560c     movra   0xc              	MOVRA	r0x1012
000128   3ef0     andai   0xf0             	ANDAI	0xf0
000129   5e0b     orra    0xb              	ORRA	r0x1010
00012a   420c     xorra   0xc              	XORRA	r0x1012
00012b   4417     swapar  0x17             	SWAPAR	(_g_adcsum + 3)
00012c   560d     movra   0xd              	MOVRA	r0x1013
00012d   3ef0     andai   0xf0             	ANDAI	0xf0
00012e   5e0c     orra    0xc              	ORRA	r0x1012
00012f   420d     xorra   0xd              	XORRA	r0x1013
000130   580a     movar   0xa              	MOVAR	r0x1011
000131   561b     movra   0x1b             	MOVRA	_g_temp_value
000132   580b     movar   0xb              	MOVAR	r0x1010
000133   561c     movra   0x1c             	MOVRA	(_g_temp_value + 1)
                                           ;	.line	85; "ADC.c"	return g_temp_value;
000134   581b     movar   0x1b             	MOVAR	_g_temp_value
000135   5606     movra   0x6              	MOVRA	STK00
000136   581c     movar   0x1c             	MOVAR	(_g_temp_value + 1)
                                           ;	.line	86; "ADC.c"	}
000137   000c     return                   	RETURN	
                                           ; exit point of _ADC_Get_Value_Average
                                           
                                           ;***
                                           ;  pBlock Stats: dbName = C
                                           ;***
                                           ;entry:  _Set_ADC_Channel	;Function start
                                           ; 2 exit points
                                           ;has an exit
                                           ;3 compiler assigned registers:
                                           ;   r0x1016
                                           ;   r0x1017
                                           ;   r0x1018
                                           ;; Starting pCode block
                                           _Set_ADC_Channel	;Function start
                                           ; 2 exit points
000138   5609     movra   0x9              	MOVRA	r0x1018
                                           ;	.line	48; "ADC.c"	void Set_ADC_Channel(u8 CHX)
000139   5607     movra   0x7              	MOVRA	r0x1016
                                           ;	.line	50; "ADC.c"	ADCR0 = (ADCR0 & 0x0f) | (CHX << 4); 
00013a   59b0     movar   0x1b0            	MOVAR	_ADCR0
00013b   5608     movra   0x8              	MOVRA	r0x1017
00013c   3c0f     movai   0xf              	MOVAI	0x0f
00013d   7a08     andra   0x8              	ANDRA	r0x1017
                                           ;;106	MOVAR	r0x1016
00013e   4409     swapar  0x9              	SWAPAR	r0x1018
00013f   3ef0     andai   0xf0             	ANDAI	0xf0
000140   5609     movra   0x9              	MOVRA	r0x1018
000141   5607     movra   0x7              	MOVRA	r0x1016
                                           ;;105	MOVAR	r0x1016
000142   5809     movar   0x9              	MOVAR	r0x1018
000143   5c08     orar    0x8              	ORAR	r0x1017
000144   57b0     movra   0x1b0            	MOVRA	_ADCR0
                                           ;	.line	51; "ADC.c"	}
000145   000c     return                   	RETURN	
                                           ; exit point of _Set_ADC_Channel
                                           
                                           ;***
                                           ;  pBlock Stats: dbName = C
                                           ;***
                                           ;entry:  _Scan_ADC	;Function start
                                           ; 2 exit points
                                           ;has an exit
                                           ;functions called:
                                           ;   _ADC_Get_Value_Average
                                           ;   _Set_ADC_Channel
                                           ;   _ADC_Get_Value_Average
                                           ;   _Set_ADC_Channel
                                           ;   _ADC_Get_Value_Average
                                           ;   _Set_ADC_Channel
                                           ;   _ADC_Get_Value_Average
                                           ;   _Set_ADC_Channel
                                           ;1 compiler assigned register :
                                           ;   STK00
                                           ;; Starting pCode block
                                           _Scan_ADC	;Function start
                                           ; 2 exit points
                                           ;	.line	22; "ADC.c"	switch(adc_star)
000146   582d     movar   0x2d             	MOVAR	_adc_star
000147   e587     jbset   0x187, 0x2       	JBSET	PFLAG,2
000148   a14a     goto    0x14a            	GOTO	_00118_DS_
000149   a150     goto    0x150            	GOTO	_00105_DS_
                                           _00118_DS_
00014a   582d     movar   0x2d             	MOVAR	_adc_star
00014b   3901     xorai   0x1              	XORAI	0x01
00014c   e587     jbset   0x187, 0x2       	JBSET	PFLAG,2
00014d   a14f     goto    0x14f            	GOTO	_00119_DS_
00014e   a158     goto    0x158            	GOTO	_00106_DS_
                                           _00119_DS_
00014f   a15f     goto    0x15f            	GOTO	_00108_DS_
                                           _00105_DS_
                                           ;	.line	26; "ADC.c"	adc_data = ADC_Get_Value_Average();	//采样+求平均时间，约1ms
000150   809d     call    0x9d             	CALL	_ADC_Get_Value_Average
000151   5622     movra   0x22             	MOVRA	(_adc_data + 1)
000152   5806     movar   0x6              	MOVAR	STK00
000153   5621     movra   0x21             	MOVRA	_adc_data
                                           ;	.line	28; "ADC.c"	Set_ADC_Channel(11);    //EVN0 P01 
000154   3c0b     movai   0xb              	MOVAI	0x0b
000155   8138     call    0x138            	CALL	_Set_ADC_Channel
                                           ;	.line	29; "ADC.c"	adc_star++;
000156   662d     incr    0x2d             	INCR	_adc_star
                                           ;	.line	30; "ADC.c"	break;
000157   a15f     goto    0x15f            	GOTO	_00108_DS_
                                           _00106_DS_
                                           ;	.line	34; "ADC.c"	adc_data = ADC_Get_Value_Average();
000158   809d     call    0x9d             	CALL	_ADC_Get_Value_Average
000159   5622     movra   0x22             	MOVRA	(_adc_data + 1)
00015a   5806     movar   0x6              	MOVAR	STK00
00015b   5621     movra   0x21             	MOVRA	_adc_data
                                           ;	.line	36; "ADC.c"	Set_ADC_Channel(5);     //AN5 P10
00015c   3c05     movai   0x5              	MOVAI	0x05
00015d   8138     call    0x138            	CALL	_Set_ADC_Channel
                                           ;	.line	37; "ADC.c"	adc_star = 0;
00015e   762d     clrr    0x2d             	CLRR	_adc_star
                                           _00108_DS_
                                           ;	.line	40; "ADC.c"	}
00015f   000c     return                   	RETURN	
                                           ; exit point of _Scan_ADC
                                           
                                           
                                           ;	code size estimation:
                                           ;	  295+    0 =   295 instructions (  590 byte)
                                           
                                           	end
                                           ;--------------------------------------------------------
                                           ; File Created by SN-SDCC : SinoMCU ANSI-C Compiler
                                           ; Version 2.0.0 (Dec 11 2019) (MINGW32)
                                           ; This file was generated Wed Nov 13 10:59:59 2024
                                           ;--------------------------------------------------------
                                           ; MC32 port for the RISC core
                                           ;--------------------------------------------------------
                                           ;	.file	"MC32P7351.c"
                                           	list	p=7351
                                           	radix dec
                                           	include "7351.inc"
                                           ;--------------------------------------------------------
                                           ; external declarations
                                           ;--------------------------------------------------------
                                           	extern	_CLR_RAM
                                           	extern	_IO_Init
                                           	extern	_TIMER0_INT_Init
                                           	extern	_TIMER1_INT_Init
                                           	extern	_TIMER2_INT_Init
                                           	extern	_TIMER3_INT_Init
                                           	extern	_TIMER0_PWM_Init
                                           	extern	_TIMER1_PWM_Init
                                           	extern	_TIMER2_PWM_Init
                                           	extern	_ADC_Init
                                           	extern	_Scan_ADC
                                           	extern	_Set_ADC_Channel
                                           	extern	_ADC_Get_Value_Average
                                           	extern	_delay
                                           	extern	_INDF0bits
                                           	extern	_INDF1bits
                                           	extern	_INDF2bits
                                           	extern	_HIBYTEbits
                                           	extern	_FSR0bits
                                           	extern	_FSR1bits
                                           	extern	_PCLbits
                                           	extern	_PFLAGbits
                                           	extern	_MCRbits
                                           	extern	_INDF3bits
                                           	extern	_INTEbits
                                           	extern	_INTFbits
                                           	extern	_DRVCRbits
                                           	extern	_PFRCCRbits
                                           	extern	_P1KBCRbits
                                           	extern	_PFRCCALbits
                                           	extern	_IOP0bits
                                           	extern	_OEP0bits
                                           	extern	_PUP0bits
                                           	extern	_PDP0bits
                                           	extern	_IOP1bits
                                           	extern	_OEP1bits
                                           	extern	_PUP1bits
                                           	extern	_PDP1bits
                                           	extern	_T0CRbits
                                           	extern	_T0CNTbits
                                           	extern	_T0LOADbits
                                           	extern	_T0DATAbits
                                           	extern	_T1CRbits
                                           	extern	_T1CNTbits
                                           	extern	_T1LOADbits
                                           	extern	_T1DATAbits
                                           	extern	_T2CRbits
                                           	extern	_T2CNTbits
                                           	extern	_T2LOADbits
                                           	extern	_T2DATAbits
                                           	extern	_T3CRbits
                                           	extern	_T3CNTbits
                                           	extern	_T3LOADbits
                                           	extern	_PWM0DRbits
                                           	extern	_PWM1DRbits
                                           	extern	_PWM2DRbits
                                           	extern	_PWMCR0bits
                                           	extern	_PWMCR1bits
                                           	extern	_OSCMRbits
                                           	extern	_LVDCRbits
                                           	extern	_ADCR0bits
                                           	extern	_ADCR1bits
                                           	extern	_ADCR2bits
                                           	extern	_OSADJCRbits
                                           	extern	_ADRHbits
                                           	extern	_ADRLbits
                                           	extern	_ADIOS0bits
                                           	extern	_ADIOS1bits
                                           	extern	_PMODbits
                                           	extern	_PWMCR3bits
                                           	extern	_PWMCR2bits
                                           	extern	_PFRCAUXbits
                                           	extern	_HIRCCALbits
                                           	extern	_flag2
                                           	extern	_adc_data
                                           	extern	_INDF0
                                           	extern	_INDF1
                                           	extern	_INDF2
                                           	extern	_HIBYTE
                                           	extern	_FSR0
                                           	extern	_FSR1
                                           	extern	_PCL
                                           	extern	_PFLAG
                                           	extern	_MCR
                                           	extern	_INDF3
                                           	extern	_INTE
                                           	extern	_INTF
                                           	extern	_DRVCR
                                           	extern	_PFRCCR
                                           	extern	_P1KBCR
                                           	extern	_PFRCCAL
                                           	extern	_IOP0
                                           	extern	_OEP0
                                           	extern	_PUP0
                                           	extern	_PDP0
                                           	extern	_IOP1
                                           	extern	_OEP1
                                           	extern	_PUP1
                                           	extern	_PDP1
                                           	extern	_T0CR
                                           	extern	_T0CNT
                                           	extern	_T0LOAD
                                           	extern	_T0DATA
                                           	extern	_T1CR
                                           	extern	_T1CNT
                                           	extern	_T1LOAD
                                           	extern	_T1DATA
                                           	extern	_T2CR
                                           	extern	_T2CNT
                                           	extern	_T2LOAD
                                           	extern	_T2DATA
                                           	extern	_T3CR
                                           	extern	_T3CNT
                                           	extern	_T3LOAD
                                           	extern	_PWM0DR
                                           	extern	_PWM1DR
                                           	extern	_PWM2DR
                                           	extern	_PWMCR0
                                           	extern	_PWMCR1
                                           	extern	_OSCMR
                                           	extern	_LVDCR
                                           	extern	_ADCR0
                                           	extern	_ADCR1
                                           	extern	_ADCR2
                                           	extern	_OSADJCR
                                           	extern	_ADRH
                                           	extern	_ADRL
                                           	extern	_ADIOS0
                                           	extern	_ADIOS1
                                           	extern	_PMOD
                                           	extern	_PWMCR3
                                           	extern	_PWMCR2
                                           	extern	_PFRCAUX
                                           	extern	_HIRCCAL
                                           ;--------------------------------------------------------
                                           ; global declarations
                                           ;--------------------------------------------------------
                                           	global	_Sleep_Func
                                           	global	_Scan_Key
                                           	global	_Sys_Init
                                           	global	_main
                                           	global	_int_isr
                                           	global	_abuf
                                           	global	_statusbuf
                                           	global	_sleep_time
                                           	global	_key_per
                                           	global	_key_cur
                                           	global	_key_down
                                           	global	_key_keep
                                           	global	_int_time0
                                           	global	_Flag1
                                           	global	_Flag2
                                           
                                           	global STK06
                                           	global STK05
                                           	global STK04
                                           	global STK03
                                           	global STK02
                                           	global STK01
                                           	global STK00
                                           
                                           sharebank udata_ovr 0x0000
                                           STK06	res 1
                                           STK05	res 1
                                           STK04	res 1
                                           STK03	res 1
                                           STK02	res 1
                                           STK01	res 1
                                           STK00	res 1
                                           
                                           ;--------------------------------------------------------
                                           ; global definitions
                                           ;--------------------------------------------------------
                                           UD_MC32P7351_0	udata
                                           _abuf	res	1
                                           
                                           UD_MC32P7351_1	udata
                                           _statusbuf	res	1
                                           
                                           UD_MC32P7351_2	udata
                                           _sleep_time	res	1
                                           
                                           UD_MC32P7351_3	udata
                                           _key_per	res	1
                                           
                                           UD_MC32P7351_4	udata
                                           _key_cur	res	1
                                           
                                           UD_MC32P7351_5	udata
                                           _key_down	res	1
                                           
                                           UD_MC32P7351_6	udata
                                           _key_keep	res	1
                                           
                                           UD_MC32P7351_7	udata
                                           _int_time0	res	1
                                           
                                           UD_MC32P7351_8	udata
                                           _Flag1	res	1
                                           
                                           UD_MC32P7351_9	udata
                                           _Flag2	res	1
                                           
                                           ;--------------------------------------------------------
                                           ; absolute symbol definitions
                                           ;--------------------------------------------------------
                                           ;--------------------------------------------------------
                                           ; compiler-defined variables
                                           ;--------------------------------------------------------
                                           UDL_MC32P7351_0	udata
                                           r0x1008	res	1
                                           r0x1009	res	1
                                           r0x100A	res	1
                                           ;--------------------------------------------------------
                                           ; initialized data
                                           ;--------------------------------------------------------
                                           
                                           ;@Allocation info for local variables in function 'Sys_Init'
                                           ;@Sys_Init CLR_RAM                   Allocated to registers ;size:2
                                           ;@Sys_Init IO_Init                   Allocated to registers ;size:2
                                           ;@Sys_Init TIMER0_INT_Init           Allocated to registers ;size:2
                                           ;@Sys_Init TIMER1_INT_Init           Allocated to registers ;size:2
                                           ;@Sys_Init TIMER2_INT_Init           Allocated to registers ;size:2
                                           ;@Sys_Init TIMER3_INT_Init           Allocated to registers ;size:2
                                           ;@Sys_Init TIMER0_PWM_Init           Allocated to registers ;size:2
                                           ;@Sys_Init TIMER1_PWM_Init           Allocated to registers ;size:2
                                           ;@Sys_Init TIMER2_PWM_Init           Allocated to registers ;size:2
                                           ;@Sys_Init ADC_Init                  Allocated to registers ;size:2
                                           ;@Sys_Init Scan_ADC                  Allocated to registers ;size:2
                                           ;@Sys_Init Set_ADC_Channel           Allocated to registers ;size:2
                                           ;@Sys_Init ADC_Get_Value_Average     Allocated to registers ;size:2
                                           ;@Sys_Init Scan_Key                  Allocated to registers ;size:2
                                           ;@Sys_Init Sleep_Func                Allocated to registers ;size:2
                                           ;@Sys_Init delay                     Allocated to registers ;size:2
                                           ;@Sys_Init INDF0bits                 Allocated to registers ;size:1
                                           ;@Sys_Init INDF1bits                 Allocated to registers ;size:1
                                           ;@Sys_Init INDF2bits                 Allocated to registers ;size:1
                                           ;@Sys_Init HIBYTEbits                Allocated to registers ;size:1
                                           ;@Sys_Init FSR0bits                  Allocated to registers ;size:1
                                           ;@Sys_Init FSR1bits                  Allocated to registers ;size:1
                                           ;@Sys_Init PCLbits                   Allocated to registers ;size:1
                                           ;@Sys_Init PFLAGbits                 Allocated to registers ;size:1
                                           ;@Sys_Init MCRbits                   Allocated to registers ;size:1
                                           ;@Sys_Init INDF3bits                 Allocated to registers ;size:1
                                           ;@Sys_Init INTEbits                  Allocated to registers ;size:1
                                           ;@Sys_Init INTFbits                  Allocated to registers ;size:1
                                           ;@Sys_Init DRVCRbits                 Allocated to registers ;size:1
                                           ;@Sys_Init PFRCCRbits                Allocated to registers ;size:1
                                           ;@Sys_Init P1KBCRbits                Allocated to registers ;size:1
                                           ;@Sys_Init PFRCCALbits               Allocated to registers ;size:1
                                           ;@Sys_Init IOP0bits                  Allocated to registers ;size:1
                                           ;@Sys_Init OEP0bits                  Allocated to registers ;size:1
                                           ;@Sys_Init PUP0bits                  Allocated to registers ;size:1
                                           ;@Sys_Init PDP0bits                  Allocated to registers ;size:1
                                           ;@Sys_Init IOP1bits                  Allocated to registers ;size:1
                                           ;@Sys_Init OEP1bits                  Allocated to registers ;size:1
                                           ;@Sys_Init PUP1bits                  Allocated to registers ;size:1
                                           ;@Sys_Init PDP1bits                  Allocated to registers ;size:1
                                           ;@Sys_Init T0CRbits                  Allocated to registers ;size:1
                                           ;@Sys_Init T0CNTbits                 Allocated to registers ;size:1
                                           ;@Sys_Init T0LOADbits                Allocated to registers ;size:1
                                           ;@Sys_Init T0DATAbits                Allocated to registers ;size:1
                                           ;@Sys_Init T1CRbits                  Allocated to registers ;size:1
                                           ;@Sys_Init T1CNTbits                 Allocated to registers ;size:1
                                           ;@Sys_Init T1LOADbits                Allocated to registers ;size:1
                                           ;@Sys_Init T1DATAbits                Allocated to registers ;size:1
                                           ;@Sys_Init T2CRbits                  Allocated to registers ;size:1
                                           ;@Sys_Init T2CNTbits                 Allocated to registers ;size:1
                                           ;@Sys_Init T2LOADbits                Allocated to registers ;size:1
                                           ;@Sys_Init T2DATAbits                Allocated to registers ;size:1
                                           ;@Sys_Init T3CRbits                  Allocated to registers ;size:1
                                           ;@Sys_Init T3CNTbits                 Allocated to registers ;size:1
                                           ;@Sys_Init T3LOADbits                Allocated to registers ;size:1
                                           ;@Sys_Init PWM0DRbits                Allocated to registers ;size:1
                                           ;@Sys_Init PWM1DRbits                Allocated to registers ;size:1
                                           ;@Sys_Init PWM2DRbits                Allocated to registers ;size:1
                                           ;@Sys_Init PWMCR0bits                Allocated to registers ;size:1
                                           ;@Sys_Init PWMCR1bits                Allocated to registers ;size:1
                                           ;@Sys_Init OSCMRbits                 Allocated to registers ;size:1
                                           ;@Sys_Init LVDCRbits                 Allocated to registers ;size:1
                                           ;@Sys_Init ADCR0bits                 Allocated to registers ;size:1
                                           ;@Sys_Init ADCR1bits                 Allocated to registers ;size:1
                                           ;@Sys_Init ADCR2bits                 Allocated to registers ;size:1
                                           ;@Sys_Init OSADJCRbits               Allocated to registers ;size:1
                                           ;@Sys_Init ADRHbits                  Allocated to registers ;size:1
                                           ;@Sys_Init ADRLbits                  Allocated to registers ;size:1
                                           ;@Sys_Init ADIOS0bits                Allocated to registers ;size:1
                                           ;@Sys_Init ADIOS1bits                Allocated to registers ;size:1
                                           ;@Sys_Init PMODbits                  Allocated to registers ;size:1
                                           ;@Sys_Init PWMCR3bits                Allocated to registers ;size:1
                                           ;@Sys_Init PWMCR2bits                Allocated to registers ;size:1
                                           ;@Sys_Init PFRCAUXbits               Allocated to registers ;size:1
                                           ;@Sys_Init HIRCCALbits               Allocated to registers ;size:1
                                           ;@Sys_Init flag2                     Allocated to registers ;size:1
                                           ;@Sys_Init adc_data                  Allocated to registers ;size:2
                                           ;@Sys_Init abuf                      Allocated to registers ;size:1
                                           ;@Sys_Init statusbuf                 Allocated to registers ;size:1
                                           ;@Sys_Init sleep_time                Allocated to registers ;size:1
                                           ;@Sys_Init key_per                   Allocated to registers ;size:1
                                           ;@Sys_Init key_cur                   Allocated to registers ;size:1
                                           ;@Sys_Init key_down                  Allocated to registers ;size:1
                                           ;@Sys_Init key_keep                  Allocated to registers ;size:1
                                           ;@Sys_Init int_time0                 Allocated to registers ;size:1
                                           ;@Sys_Init Flag1                     Allocated to registers ;size:1
                                           ;@Sys_Init Flag2                     Allocated to registers ;size:1
                                           ;@Sys_Init INDF0                     Allocated to registers ;size:1
                                           ;@Sys_Init INDF1                     Allocated to registers ;size:1
                                           ;@Sys_Init INDF2                     Allocated to registers ;size:1
                                           ;@Sys_Init HIBYTE                    Allocated to registers ;size:1
                                           ;@Sys_Init FSR0                      Allocated to registers ;size:1
                                           ;@Sys_Init FSR1                      Allocated to registers ;size:1
                                           ;@Sys_Init PCL                       Allocated to registers ;size:1
                                           ;@Sys_Init PFLAG                     Allocated to registers ;size:1
                                           ;@Sys_Init MCR                       Allocated to registers ;size:1
                                           ;@Sys_Init INDF3                     Allocated to registers ;size:1
                                           ;@Sys_Init INTE                      Allocated to registers ;size:1
                                           ;@Sys_Init INTF                      Allocated to registers ;size:1
                                           ;@Sys_Init DRVCR                     Allocated to registers ;size:1
                                           ;@Sys_Init PFRCCR                    Allocated to registers ;size:1
                                           ;@Sys_Init P1KBCR                    Allocated to registers ;size:1
                                           ;@Sys_Init PFRCCAL                   Allocated to registers ;size:1
                                           ;@Sys_Init IOP0                      Allocated to registers ;size:1
                                           ;@Sys_Init OEP0                      Allocated to registers ;size:1
                                           ;@Sys_Init PUP0                      Allocated to registers ;size:1
                                           ;@Sys_Init PDP0                      Allocated to registers ;size:1
                                           ;@Sys_Init IOP1                      Allocated to registers ;size:1
                                           ;@Sys_Init OEP1                      Allocated to registers ;size:1
                                           ;@Sys_Init PUP1                      Allocated to registers ;size:1
                                           ;@Sys_Init PDP1                      Allocated to registers ;size:1
                                           ;@Sys_Init T0CR                      Allocated to registers ;size:1
                                           ;@Sys_Init T0CNT                     Allocated to registers ;size:1
                                           ;@Sys_Init T0LOAD                    Allocated to registers ;size:1
                                           ;@Sys_Init T0DATA                    Allocated to registers ;size:1
                                           ;@Sys_Init T1CR                      Allocated to registers ;size:1
                                           ;@Sys_Init T1CNT                     Allocated to registers ;size:1
                                           ;@Sys_Init T1LOAD                    Allocated to registers ;size:1
                                           ;@Sys_Init T1DATA                    Allocated to registers ;size:1
                                           ;@Sys_Init T2CR                      Allocated to registers ;size:1
                                           ;@Sys_Init T2CNT                     Allocated to registers ;size:1
                                           ;@Sys_Init T2LOAD                    Allocated to registers ;size:1
                                           ;@Sys_Init T2DATA                    Allocated to registers ;size:1
                                           ;@Sys_Init T3CR                      Allocated to registers ;size:1
                                           ;@Sys_Init T3CNT                     Allocated to registers ;size:1
                                           ;@Sys_Init T3LOAD                    Allocated to registers ;size:1
                                           ;@Sys_Init PWM0DR                    Allocated to registers ;size:1
                                           ;@Sys_Init PWM1DR                    Allocated to registers ;size:1
                                           ;@Sys_Init PWM2DR                    Allocated to registers ;size:1
                                           ;@Sys_Init PWMCR0                    Allocated to registers ;size:1
                                           ;@Sys_Init PWMCR1                    Allocated to registers ;size:1
                                           ;@Sys_Init OSCMR                     Allocated to registers ;size:1
                                           ;@Sys_Init LVDCR                     Allocated to registers ;size:1
                                           ;@Sys_Init ADCR0                     Allocated to registers ;size:1
                                           ;@Sys_Init ADCR1                     Allocated to registers ;size:1
                                           ;@Sys_Init ADCR2                     Allocated to registers ;size:1
                                           ;@Sys_Init OSADJCR                   Allocated to registers ;size:1
                                           ;@Sys_Init ADRH                      Allocated to registers ;size:1
                                           ;@Sys_Init ADRL                      Allocated to registers ;size:1
                                           ;@Sys_Init ADIOS0                    Allocated to registers ;size:1
                                           ;@Sys_Init ADIOS1                    Allocated to registers ;size:1
                                           ;@Sys_Init PMOD                      Allocated to registers ;size:1
                                           ;@Sys_Init PWMCR3                    Allocated to registers ;size:1
                                           ;@Sys_Init PWMCR2                    Allocated to registers ;size:1
                                           ;@Sys_Init PFRCAUX                   Allocated to registers ;size:1
                                           ;@Sys_Init HIRCCAL                   Allocated to registers ;size:1
                                           ;@end Allocation info for local variables in function 'Sys_Init';
                                           ;@Allocation info for local variables in function 'main'
                                           ;@end Allocation info for local variables in function 'main';
                                           ;@Allocation info for local variables in function 'Scan_Key'
                                           ;@end Allocation info for local variables in function 'Scan_Key';
                                           ;@Allocation info for local variables in function 'Sleep_Func'
                                           ;@end Allocation info for local variables in function 'Sleep_Func';
                                           ;@Allocation info for local variables in function 'int_isr'
                                           ;@end Allocation info for local variables in function 'int_isr';
                                           
                                           ;--------------------------------------------------------
                                           ; overlayable items in internal ram 
                                           ;--------------------------------------------------------
                                           ;	udata_ovr
                                           ;--------------------------------------------------------
                                           ; reset vector 
                                           ;--------------------------------------------------------
                                           STARTUP	code 0x0000
                                           	goto	_main
                                           ;--------------------------------------------------------
                                           ; interrupt and initialization code
                                           ;--------------------------------------------------------
                                           c_interrupt	code	0x8
                                           __sdcc_interrupt
                                           ;***
                                           ;  pBlock Stats: dbName = I
                                           ;***
                                           ;entry:  _int_isr	;Function start
                                           ; 0 exit points
                                           ;2 compiler assigned registers:
                                           ;   r0x1009
                                           ;   r0x100A
                                           ;; Starting pCode block
                                           _int_isr	;Function start
                                           ; 0 exit points
                                           ;	.line	134; "MC32P7351.c"	__endasm;
                                           	movra	_abuf
                                           	swapar	_PFLAG
                                           	movra	_statusbuf
                                           ;	.line	136; "MC32P7351.c"	if (T0IF & T0IE)   	//100us
                                           	CLRR	r0x1009
                                           	JBCLR	_INTFbits,0
                                           	INCR	r0x1009
                                           	CLRR	r0x100A
                                           	JBCLR	_INTEbits,0
                                           	INCR	r0x100A
                                           	MOVAR	r0x100A
                                           	ANDRA	r0x1009
                                           	MOVAI	0x00
                                           	ORAR	r0x1009
                                           	JBCLR	PFLAG,2
                                           	GOTO	_00137_DS_
                                           ;	.line	139; "MC32P7351.c"	T0IF = 0;
                                           	BCLR	_INTFbits,0
                                           _00137_DS_
                                           ;	.line	142; "MC32P7351.c"	if (T1IF & T1IE)   	//2ms
                                           	CLRR	r0x1009
                                           	JBCLR	_INTFbits,1
                                           	INCR	r0x1009
                                           	CLRR	r0x100A
                                           	JBCLR	_INTEbits,1
                                           	INCR	r0x100A
                                           	MOVAR	r0x100A
                                           	ANDRA	r0x1009
                                           	MOVAI	0x00
                                           	ORAR	r0x1009
                                           	JBCLR	PFLAG,2
                                           	GOTO	_00139_DS_
                                           ;	.line	144; "MC32P7351.c"	P11D = !P11D;
                                           	CLRR	r0x1009
                                           	JBCLR	_IOP1bits,1
                                           	INCR	r0x1009
                                           	MOVAR	r0x1009
                                           	MOVAI	0x00
                                           	JBCLR	PFLAG,2
                                           	MOVAI	0x01
                                           	MOVRA	r0x1009
                                           	MOVRA	r0x100A
                                           ;;99	MOVAR	r0x100A
                                           	RRAR	r0x1009
                                           	JBSET	PFLAG,0
                                           	BCLR	_IOP1bits,1
                                           	JBCLR	PFLAG,0
                                           	BSET	_IOP1bits,1
                                           ;	.line	145; "MC32P7351.c"	T1IF = 0;
                                           	BCLR	_INTFbits,1
                                           ;	.line	146; "MC32P7351.c"	T1_flag    	=  	1;
                                           	BSET	_Flag1,1
                                           _00139_DS_
                                           ;	.line	166; "MC32P7351.c"	__endasm;
                                           	swapar	_statusbuf
                                           	movra	_PFLAG
                                           	swapr	_abuf
                                           	swapar	_abuf
                                           END_OF_INTERRUPT
                                           ;	.line	167; "MC32P7351.c"	}
                                           	RETIE	
                                           
                                           ;--------------------------------------------------------
                                           ; code
                                           ;--------------------------------------------------------
                                           code_MC32P7351	code
                                           ;***
                                           ;  pBlock Stats: dbName = M
                                           ;***
                                           ;entry:  _main	;Function start
                                           ; 2 exit points
                                           ;has an exit
                                           ;functions called:
                                           ;   _Sys_Init
                                           ;   _Scan_ADC
                                           ;   _Scan_Key
                                           ;   _Sys_Init
                                           ;   _Scan_ADC
                                           ;   _Scan_Key
                                           ;; Starting pCode block
                                           _main	;Function start
                                           ; 2 exit points
                                           ;	.line	44; "MC32P7351.c"	Sys_Init();
                                           	CALL	_Sys_Init
                                           _00114_DS_
                                           ;	.line	47; "MC32P7351.c"	if(T1_flag)   //2ms
                                           	JBSET	_Flag1,1
                                           	GOTO	_00114_DS_
                                           ;	.line	49; "MC32P7351.c"	T1_flag = 0;
                                           	BCLR	_Flag1,1
                                           ;	.line	50; "MC32P7351.c"	ClrWdt();
                                           	clrwdt	
                                           ;	.line	51; "MC32P7351.c"	Scan_ADC();     //采样+求平均的时间 =1ms
                                           	CALL	_Scan_ADC
                                           ;	.line	55; "MC32P7351.c"	if(++int_time0 >= 10)   //2ms*10 =20ms
                                           	INCR	_int_time0
                                           ;;unsigned compare: left < lit(0xA=10), size=1
                                           	MOVAI	0x0a
                                           	RSUBAR	_int_time0
                                           	JBSET	PFLAG,0
                                           	GOTO	_00114_DS_
                                           ;;genSkipc:3291: created from rifx:013B5EFC
                                           ;	.line	57; "MC32P7351.c"	int_time0 = 0 ;
                                           	CLRR	_int_time0
                                           ;	.line	58; "MC32P7351.c"	Scan_Key();         //按键扫描
                                           	CALL	_Scan_Key
                                           	GOTO	_00114_DS_
                                           ;	.line	63; "MC32P7351.c"	}
                                           	RETURN	
                                           ; exit point of _main
                                           
                                           ;***
                                           ;  pBlock Stats: dbName = C
                                           ;***
                                           ;entry:  _Sleep_Func	;Function start
                                           ; 2 exit points
                                           ;has an exit
                                           ;; Starting pCode block
                                           _Sleep_Func	;Function start
                                           ; 2 exit points
                                           ;	.line	95; "MC32P7351.c"	if(!ON_flag)
                                           	JBCLR	_Flag2,0
                                           	GOTO	_00129_DS_
                                           ;	.line	97; "MC32P7351.c"	if(++sleep_time >= 100) //2ms*100 =200ms
                                           	INCR	_sleep_time
                                           ;;unsigned compare: left < lit(0x64=100), size=1
                                           	MOVAI	0x64
                                           	RSUBAR	_sleep_time
                                           	JBSET	PFLAG,0
                                           	GOTO	_00131_DS_
                                           ;;genSkipc:3291: created from rifx:013B5EFC
                                           ;	.line	99; "MC32P7351.c"	sleep_time = 0;
                                           	CLRR	_sleep_time
                                           ;	.line	100; "MC32P7351.c"	GIE = 0;
                                           	BCLR	_MCRbits,7
                                           ;	.line	101; "MC32P7351.c"	KBIF = 0;
                                           	BCLR	_INTFbits,4
                                           ;	.line	102; "MC32P7351.c"	KBIE = 1;
                                           	BSET	_INTEbits,4
                                           ;	.line	104; "MC32P7351.c"	Nop();
                                           	nop	
                                           ;	.line	105; "MC32P7351.c"	Nop();
                                           	nop	
                                           ;	.line	106; "MC32P7351.c"	Stop();
                                           	stop	
                                           ;	.line	107; "MC32P7351.c"	Nop();
                                           	nop	
                                           ;	.line	108; "MC32P7351.c"	Nop();
                                           	nop	
                                           ;	.line	109; "MC32P7351.c"	KBIE = 0;
                                           	BCLR	_INTEbits,4
                                           ;	.line	110; "MC32P7351.c"	KBIF = 0;
                                           	BCLR	_INTFbits,4
                                           ;	.line	111; "MC32P7351.c"	GIE = 1;
                                           	BSET	_MCRbits,7
                                           	GOTO	_00131_DS_
                                           _00129_DS_
                                           ;	.line	116; "MC32P7351.c"	sleep_time = 0;
                                           	CLRR	_sleep_time
                                           _00131_DS_
                                           ;	.line	118; "MC32P7351.c"	}
                                           	RETURN	
                                           ; exit point of _Sleep_Func
                                           
                                           ;***
                                           ;  pBlock Stats: dbName = C
                                           ;***
                                           ;entry:  _Scan_Key	;Function start
                                           ; 2 exit points
                                           ;has an exit
                                           ;1 compiler assigned register :
                                           ;   r0x1008
                                           ;; Starting pCode block
                                           _Scan_Key	;Function start
                                           ; 2 exit points
                                           ;	.line	73; "MC32P7351.c"	key_per = key_cur; 	
                                           	MOVAR	_key_cur
                                           	MOVRA	_key_per
                                           ;	.line	75; "MC32P7351.c"	key_cur = (~IOP1)&0x08;    	   	//低有效
                                           	COMAR	_IOP1
                                           	MOVRA	r0x1008
                                           	MOVAI	0x08
                                           	ANDAR	r0x1008
                                           	MOVRA	_key_cur
                                           ;	.line	77; "MC32P7351.c"	key_down = (~key_per) & key_cur;
                                           	COMAR	_key_per
                                           	MOVRA	r0x1008
                                           	MOVAR	_key_cur
                                           	ANDAR	r0x1008
                                           	MOVRA	_key_down
                                           ;	.line	78; "MC32P7351.c"	key_keep = key_per & key_cur;
                                           	MOVAR	_key_cur
                                           	ANDAR	_key_per
                                           	MOVRA	_key_keep
                                           ;	.line	80; "MC32P7351.c"	if(key_down & Key)
                                           	MOVAR	_key_down
                                           	MOVRA	r0x1008
                                           	JBSET	r0x1008,3
                                           	GOTO	_00121_DS_
                                           ;	.line	82; "MC32P7351.c"	key_keep = 1;
                                           	MOVAI	0x01
                                           	MOVRA	_key_keep
                                           _00121_DS_
                                           ;	.line	85; "MC32P7351.c"	}
                                           	RETURN	
                                           ; exit point of _Scan_Key
                                           
                                           ;***
                                           ;  pBlock Stats: dbName = C
                                           ;***
                                           ;entry:  _Sys_Init	;Function start
                                           ; 2 exit points
                                           ;has an exit
                                           ;functions called:
                                           ;   _CLR_RAM
                                           ;   _IO_Init
                                           ;   _TIMER0_INT_Init
                                           ;   _TIMER1_INT_Init
                                           ;   _ADC_Init
                                           ;   _CLR_RAM
                                           ;   _IO_Init
                                           ;   _TIMER0_INT_Init
                                           ;   _TIMER1_INT_Init
                                           ;   _ADC_Init
                                           ;; Starting pCode block
                                           _Sys_Init	;Function start
                                           ; 2 exit points
                                           ;	.line	23; "MC32P7351.c"	GIE = 0;
                                           	BCLR	_MCRbits,7
                                           ;	.line	24; "MC32P7351.c"	CLR_RAM();
                                           	CALL	_CLR_RAM
                                           ;	.line	25; "MC32P7351.c"	IO_Init();
                                           	CALL	_IO_Init
                                           ;	.line	26; "MC32P7351.c"	TIMER0_INT_Init();     	
                                           	CALL	_TIMER0_INT_Init
                                           ;	.line	27; "MC32P7351.c"	TIMER1_INT_Init();
                                           	CALL	_TIMER1_INT_Init
                                           ;	.line	33; "MC32P7351.c"	ADC_Init();
                                           	CALL	_ADC_Init
                                           ;	.line	34; "MC32P7351.c"	GIE = 1;
                                           	BSET	_MCRbits,7
                                           ;	.line	35; "MC32P7351.c"	}
                                           	RETURN	
                                           ; exit point of _Sys_Init
                                           
                                           
                                           ;	code size estimation:
                                           ;	  103+    0 =   103 instructions (  206 byte)
                                           
                                           	end


MEMORY USAGE MAP ('X' = Used,  '-' = Unused)

0000 : XX-------------- XXXXXXXXXXXXXXXX XXXXXXXXXXXXXXXX XXXXXXXXXXXXXXXX
0040 : XXXXXXXXXXXXXXXX XXXXXXXXXXXXXXXX XXXXXXXXXXXXXXXX XXXXXXXXXXXXXXXX
0080 : XXXXXXXXXXXXXXXX XXXXXXXXXXXXXXXX XXXXXXXXXXXXXXXX XXXXXXXXXXXXXXXX
00C0 : XXXXXXXXXXXXXXXX XXXXXXXXXXXXXXXX XXXXXXXXXXXXXXXX XXXXXXXXXXXXXXXX
0100 : XXXXXXXXXXXXXXXX XXXXXXXXXXXXXXXX XXXXXXXXXXXXXXXX XXXXXXXXXXXXXXXX
0140 : XXXXXXXXXXXXXXXX XXXXXXXXXXXXXXXX XXXXXXXXXXXXXXXX XXXXXXXXXXXXXXXX
0180 : XXXXXXXXXXXXXXXX XXXXXXXXXXXXXXXX XXXXXXXXXXXXXXXX XXXXXXXXXXXXXXXX
01C0 : XXXXXXXXXXXXXXXX XXXXXXXXXXXXXXXX XXXXXXXXXXXXXXXX XXXXXXXXXXXXXXXX
0200 : XXXXXXXXXXXXXXXX XXXXXXXXXXXXXXXX XXXXXXXXXXXXXXXX XXXXXXXXXXXXXXXX
0240 : XXXXXXXXXXXXXXXX XXXXXXXXXXXXXXXX XXXXXXXXXXXXXXXX XXXXXXXXXXXXXXXX
0280 : XXXXXXXXXXXXXXXX XXXXXXXXXXXXXXXX XXXXXXXXXXXXXXXX XXXXXXXXXXXXXXXX
02C0 : XXXXXXXXXXXXXXXX XXXXXXXXXXXXXXXX XXXXXXXXXXXXXXXX XXXXXXXXXXXXXXXX
0300 : XXXXXXXXXXXXXXXX XXXXXXXXXXXXXXXX XXXXXXXXXXXXXXXX XXXXXXXXXXXXXXXX
0340 : XXXXXXXXXXXXXXXX XXXXXXXXXXXXXXXX XXXXXXXXXXXXXXXX XXXXXXXXXXXXXXXX
0380 : XXXXXXXXXXXXXXXX XXXXXXXXXXXXXXXX XXXXXXXXXXXXXXXX XXXXXXXXXXXXXXXX
03C0 : XXXXXXXXXXXXXXXX XXXXXXXXXXXXXXXX XXXXXXXXXXXXXXXX XXXXXXXXXXXXXXXX
0400 : XXXXXXXXXXXXXXXX XXXXXXXXXXXXXXXX XXXXXXXXXXXXXXXX XXXXXXXXXXXXXXXX
0440 : XXXXXXXXXXXXXXXX XXXXXXXXXXXXXXXX ---------------- ----------------

All other memory blocks unused.

Program Memory Words Used:   553

