gplink-2.2.37 (Jan 22 2024)
Listing File Generated: 2024-10-31  13:32:13
 
 
Address  Value    Disassembly              Source
-------  -----    -----------              ------
                                           ;--------------------------------------------------------
                                           ; external declarations
                                           ;--------------------------------------------------------
                                           	extern	_INDFbits
                                           	extern	_T0CNTbits
                                           	extern	_PCLbits
                                           	extern	_STATUSbits
                                           	extern	_FSRbits
                                           	extern	_P1bits
                                           	extern	_MCRbits
                                           	extern	_T0CRbits
                                           	extern	_PCLATHbits
                                           	extern	_PDCONbits
                                           	extern	_ODCONbits
                                           	extern	_PUCONbits
                                           	extern	_INTEbits
                                           	extern	_INTFbits
                                           	extern	_PWM1CR0bits
                                           	extern	_PWM1CR1bits
                                           	extern	_PWM1CR2bits
                                           	extern	_DDR1bits
                                           	extern	_TMRCRbits
                                           	extern	_T1CRbits
                                           	extern	_T1CNTbits
                                           	extern	_T1LOADbits
                                           	extern	_T1DATAbits
                                           	extern	_T1DATBbits
                                           	extern	_T1DATCbits
                                           	extern	_T1DATDbits
                                           	extern	_T2CRbits
                                           	extern	_T2CNTHbits
                                           	extern	_T2CNTLbits
                                           	extern	_T2LOADHbits
                                           	extern	_T2LOADLbits
                                           	extern	_P1KBCRbits
                                           	extern	_P1ADCRbits
                                           	extern	_CMPCR0bits
                                           	extern	_CMPCR1bits
                                           	extern	_CMPCR2bits
                                           	extern	_TKCR0bits
                                           	extern	_TKCR1bits
                                           	extern	_TKCR2bits
                                           	extern	_TKCNTHbits
                                           	extern	_TKCNTLbits
                                           	extern	_CTOUCH_FLAG
                                           	extern	_INDF
                                           	extern	_T0CNT
                                           	extern	_PCL
                                           	extern	_STATUS
                                           	extern	_FSR
                                           	extern	_P1
                                           	extern	_MCR
                                           	extern	_T0CR
                                           	extern	_PCLATH
                                           	extern	_PDCON
                                           	extern	_ODCON
                                           	extern	_PUCON
                                           	extern	_INTE
                                           	extern	_INTF
                                           	extern	_PWM1CR0
                                           	extern	_PWM1CR1
                                           	extern	_PWM1CR2
                                           	extern	_DDR1
                                           	extern	_TMRCR
                                           	extern	_T1CR
                                           	extern	_T1CNT
                                           	extern	_T1LOAD
                                           	extern	_T1DATA
                                           	extern	_T1DATB
                                           	extern	_T1DATC
                                           	extern	_T1DATD
                                           	extern	_T2CR
                                           	extern	_T2CNTH
                                           	extern	_T2CNTL
                                           	extern	_T2LOADH
                                           	extern	_T2LOADL
                                           	extern	_P1KBCR
                                           	extern	_P1ADCR
                                           	extern	_CMPCR0
                                           	extern	_CMPCR1
                                           	extern	_CMPCR2
                                           	extern	_TKCR0
                                           	extern	_TKCR1
                                           	extern	_TKCR2
                                           	extern	_TKCNTH
                                           	extern	_TKCNTL
                                           ;--------------------------------------------------------
                                           ; global declarations
                                           ;--------------------------------------------------------
                                           	global	_Delay_us_2
                                           	global	_Delay_us
                                           	global	_Clr_Ram
                                           	global	_Init_Sys
                                           	global	_T0_Time_Init
                                           	global	_T1_PWM_Init
                                           	global	_IO_Init
                                           	global	_TK_Sens_Threshold_value_Detection
                                           	global	_TOUCH_Init
                                           	global	_TK0_Init
                                           	global	_TK0_release_
                                           	global	_TK0_Scan
                                           	global	_PWM_Direction_Judgment
                                           	global	_T_Key_value_Read
                                           	global	_PWM_W_OFF
                                           	global	_PWM_Y_OFF
                                           	global	_LED_PWM_Control
                                           	global	_Power_Low_V_OFF
                                           	global	_TK_5S_Reset
                                           	global	_Sleep_mode
                                           	global	_CMP_Init
                                           	global	_main
                                           	global	_int_isr
                                           	global	_CSAVE_ACC
                                           	global	_CSAVE_STATUS
                                           	global	_CPLAY_FLAG
                                           	global	_flag1
                                           	global	_flag2
                                           	global	_u16_get_val
                                           	global	_u16_Press_val
                                           	global	_u16_release_val
                                           	global	_u16_release_val_TK0
                                           	global	_u16_temp_val
                                           	global	_u16_get_val_Temp
                                           	global	_u16_get_val_Min
                                           	global	_u16_TK0_environment_val
                                           	global	_u16_TK0_environment_val_Sum
                                           	global	_TK0_Filter_Cnt
                                           	global	_FilterCnt_TK0
                                           	global	_SleepCnt
                                           	global	_u16_TK_Reset_Cnt
                                           	global	_u8_WDT_18ms_Cnt
                                           	global	_PWM_Duty_W
                                           	global	_PWM_Duty_Y
                                           	global	_PWM_Duty_WY
                                           	global	_T_key_Value
                                           	global	_TK0_Key_Cnt
                                           	global	_Power_Low_V_OFF_Cnt
                                           	global	_T0_13ms_Cnt
                                           	global	_T0_5ms_Cnt
                                           	global	_uart_send_c
                                           
                                           	global STK06
                                           	global STK05
                                           	global STK04
                                           	global STK03
                                           	global STK02
                                           	global STK01
                                           	global STK00
                                           
                                           sharebank udata_ovr 0x0010
                                           STK06	res 1
                                           STK05	res 1
                                           STK04	res 1
                                           STK03	res 1
                                           STK02	res 1
                                           STK01	res 1
                                           STK00	res 1
                                           
                                           ;--------------------------------------------------------
                                           ; global definitions
                                           ;--------------------------------------------------------
                                           UD_MC30P8160_0	udata
                                           _CSAVE_ACC	res	1
                                           
                                           UD_MC30P8160_1	udata
                                           _CSAVE_STATUS	res	1
                                           
                                           UD_MC30P8160_2	udata
                                           _CPLAY_FLAG	res	1
                                           
                                           UD_MC30P8160_3	udata
                                           _flag1	res	1
                                           
                                           UD_MC30P8160_4	udata
                                           _flag2	res	1
                                           
                                           UD_MC30P8160_5	udata
                                           _u16_get_val	res	2
                                           
                                           UD_MC30P8160_6	udata
                                           _u16_Press_val	res	2
                                           
                                           UD_MC30P8160_7	udata
                                           _u16_release_val	res	2
                                           
                                           UD_MC30P8160_8	udata
                                           _u16_release_val_TK0	res	2
                                           
                                           UD_MC30P8160_9	udata
                                           _u16_temp_val	res	2
                                           
                                           UD_MC30P8160_10	udata
                                           _u16_get_val_Temp	res	2
                                           
                                           UD_MC30P8160_11	udata
                                           _u16_get_val_Min	res	2
                                           
                                           UD_MC30P8160_12	udata
                                           _u16_TK0_environment_val	res	2
                                           
                                           UD_MC30P8160_13	udata
                                           _u16_TK0_environment_val_Sum	res	4
                                           
                                           UD_MC30P8160_14	udata
                                           _TK0_Filter_Cnt	res	1
                                           
                                           UD_MC30P8160_15	udata
                                           _FilterCnt_TK0	res	1
                                           
                                           UD_MC30P8160_16	udata
                                           _SleepCnt	res	1
                                           
                                           UD_MC30P8160_17	udata
                                           _u16_TK_Reset_Cnt	res	2
                                           
                                           UD_MC30P8160_18	udata
                                           _u8_WDT_18ms_Cnt	res	1
                                           
                                           UD_MC30P8160_19	udata
                                           _PWM_Duty_W	res	1
                                           
                                           UD_MC30P8160_20	udata
                                           _PWM_Duty_Y	res	1
                                           
                                           UD_MC30P8160_21	udata
                                           _PWM_Duty_WY	res	1
                                           
                                           UD_MC30P8160_22	udata
                                           _T_key_Value	res	1
                                           
                                           UD_MC30P8160_23	udata
                                           _TK0_Key_Cnt	res	1
                                           
                                           UD_MC30P8160_24	udata
                                           _Power_Low_V_OFF_Cnt	res	1
                                           
                                           UD_MC30P8160_25	udata
                                           _T0_13ms_Cnt	res	1
                                           
                                           UD_MC30P8160_26	udata
                                           _T0_5ms_Cnt	res	1
                                           
                                           ;--------------------------------------------------------
                                           ; absolute symbol definitions
                                           ;--------------------------------------------------------
                                           ;--------------------------------------------------------
                                           ; compiler-defined variables
                                           ;--------------------------------------------------------
                                           UDL_MC30P8160_0	udata
                                           r0x1023	res	1
                                           r0x1022	res	1
                                           r0x1025	res	1
                                           r0x1024	res	1
                                           ;--------------------------------------------------------
                                           ; initialized data
                                           ;--------------------------------------------------------
                                           
                                           ID_MC30P8160_0	idata
                                           _uart_send_c
                                           	db	0x00
                                           
                                           
                                           ;@Allocation info for local variables in function 'Delay_us_2'
                                           ;@Delay_us_2 Delay_us_2                Allocated to registers ;size:2
                                           ;@Delay_us_2 INDFbits                  Allocated to registers ;size:1
                                           ;@Delay_us_2 T0CNTbits                 Allocated to registers ;size:1
                                           ;@Delay_us_2 PCLbits                   Allocated to registers ;size:1
                                           ;@Delay_us_2 STATUSbits                Allocated to registers ;size:1
                                           ;@Delay_us_2 FSRbits                   Allocated to registers ;size:1
                                           ;@Delay_us_2 P1bits                    Allocated to registers ;size:1
                                           ;@Delay_us_2 MCRbits                   Allocated to registers ;size:1
                                           ;@Delay_us_2 T0CRbits                  Allocated to registers ;size:1
                                           ;@Delay_us_2 PCLATHbits                Allocated to registers ;size:1
                                           ;@Delay_us_2 PDCONbits                 Allocated to registers ;size:1
                                           ;@Delay_us_2 ODCONbits                 Allocated to registers ;size:1
                                           ;@Delay_us_2 PUCONbits                 Allocated to registers ;size:1
                                           ;@Delay_us_2 INTEbits                  Allocated to registers ;size:1
                                           ;@Delay_us_2 INTFbits                  Allocated to registers ;size:1
                                           ;@Delay_us_2 PWM1CR0bits               Allocated to registers ;size:1
                                           ;@Delay_us_2 PWM1CR1bits               Allocated to registers ;size:1
                                           ;@Delay_us_2 PWM1CR2bits               Allocated to registers ;size:1
                                           ;@Delay_us_2 DDR1bits                  Allocated to registers ;size:1
                                           ;@Delay_us_2 TMRCRbits                 Allocated to registers ;size:1
                                           ;@Delay_us_2 T1CRbits                  Allocated to registers ;size:1
                                           ;@Delay_us_2 T1CNTbits                 Allocated to registers ;size:1
                                           ;@Delay_us_2 T1LOADbits                Allocated to registers ;size:1
                                           ;@Delay_us_2 T1DATAbits                Allocated to registers ;size:1
                                           ;@Delay_us_2 T1DATBbits                Allocated to registers ;size:1
                                           ;@Delay_us_2 T1DATCbits                Allocated to registers ;size:1
                                           ;@Delay_us_2 T1DATDbits                Allocated to registers ;size:1
                                           ;@Delay_us_2 T2CRbits                  Allocated to registers ;size:1
                                           ;@Delay_us_2 T2CNTHbits                Allocated to registers ;size:1
                                           ;@Delay_us_2 T2CNTLbits                Allocated to registers ;size:1
                                           ;@Delay_us_2 T2LOADHbits               Allocated to registers ;size:1
                                           ;@Delay_us_2 T2LOADLbits               Allocated to registers ;size:1
                                           ;@Delay_us_2 P1KBCRbits                Allocated to registers ;size:1
                                           ;@Delay_us_2 P1ADCRbits                Allocated to registers ;size:1
                                           ;@Delay_us_2 CMPCR0bits                Allocated to registers ;size:1
                                           ;@Delay_us_2 CMPCR1bits                Allocated to registers ;size:1
                                           ;@Delay_us_2 CMPCR2bits                Allocated to registers ;size:1
                                           ;@Delay_us_2 TKCR0bits                 Allocated to registers ;size:1
                                           ;@Delay_us_2 TKCR1bits                 Allocated to registers ;size:1
                                           ;@Delay_us_2 TKCR2bits                 Allocated to registers ;size:1
                                           ;@Delay_us_2 TKCNTHbits                Allocated to registers ;size:1
                                           ;@Delay_us_2 TKCNTLbits                Allocated to registers ;size:1
                                           ;@Delay_us_2 CTOUCH_FLAG               Allocated to registers ;size:1
                                           ;@Delay_us_2 CSAVE_ACC                 Allocated to registers ;size:1
                                           ;@Delay_us_2 CSAVE_STATUS              Allocated to registers ;size:1
                                           ;@Delay_us_2 CPLAY_FLAG                Allocated to registers ;size:1
                                           ;@Delay_us_2 flag1                     Allocated to registers ;size:1
                                           ;@Delay_us_2 flag2                     Allocated to registers ;size:1
                                           ;@Delay_us_2 u16_get_val               Allocated to registers ;size:2
                                           ;@Delay_us_2 u16_Press_val             Allocated to registers ;size:2
                                           ;@Delay_us_2 u16_release_val           Allocated to registers ;size:2
                                           ;@Delay_us_2 u16_release_val_TK0       Allocated to registers ;size:2
                                           ;@Delay_us_2 u16_temp_val              Allocated to registers ;size:2
                                           ;@Delay_us_2 u16_get_val_Temp          Allocated to registers ;size:2
                                           ;@Delay_us_2 u16_get_val_Min           Allocated to registers ;size:2
                                           ;@Delay_us_2 u16_TK0_environment_val   Allocated to registers ;size:2
                                           ;@Delay_us_2 u16_TK0_environment_val_Sum Allocated to registers ;size:4
                                           ;@Delay_us_2 TK0_Filter_Cnt            Allocated to registers ;size:1
                                           ;@Delay_us_2 FilterCnt_TK0             Allocated to registers ;size:1
                                           ;@Delay_us_2 SleepCnt                  Allocated to registers ;size:1
                                           ;@Delay_us_2 u16_TK_Reset_Cnt          Allocated to registers ;size:2
                                           ;@Delay_us_2 u8_WDT_18ms_Cnt           Allocated to registers ;size:1
                                           ;@Delay_us_2 PWM_Duty_W                Allocated to registers ;size:1
                                           ;@Delay_us_2 PWM_Duty_Y                Allocated to registers ;size:1
                                           ;@Delay_us_2 PWM_Duty_WY               Allocated to registers ;size:1
                                           ;@Delay_us_2 T_key_Value               Allocated to registers ;size:1
                                           ;@Delay_us_2 TK0_Key_Cnt               Allocated to registers ;size:1
                                           ;@Delay_us_2 Power_Low_V_OFF_Cnt       Allocated to registers ;size:1
                                           ;@Delay_us_2 T0_13ms_Cnt               Allocated to registers ;size:1
                                           ;@Delay_us_2 T0_5ms_Cnt                Allocated to registers ;size:1
                                           ;@Delay_us_2 i                         Allocated to registers ;size:2
                                           ;@Delay_us_2 INDF                      Allocated to registers ;size:1
                                           ;@Delay_us_2 T0CNT                     Allocated to registers ;size:1
                                           ;@Delay_us_2 PCL                       Allocated to registers ;size:1
                                           ;@Delay_us_2 STATUS                    Allocated to registers ;size:1
                                           ;@Delay_us_2 FSR                       Allocated to registers ;size:1
                                           ;@Delay_us_2 P1                        Allocated to registers ;size:1
                                           ;@Delay_us_2 MCR                       Allocated to registers ;size:1
                                           ;@Delay_us_2 T0CR                      Allocated to registers ;size:1
                                           ;@Delay_us_2 PCLATH                    Allocated to registers ;size:1
                                           ;@Delay_us_2 PDCON                     Allocated to registers ;size:1
                                           ;@Delay_us_2 ODCON                     Allocated to registers ;size:1
                                           ;@Delay_us_2 PUCON                     Allocated to registers ;size:1
                                           ;@Delay_us_2 INTE                      Allocated to registers ;size:1
                                           ;@Delay_us_2 INTF                      Allocated to registers ;size:1
                                           ;@Delay_us_2 PWM1CR0                   Allocated to registers ;size:1
                                           ;@Delay_us_2 PWM1CR1                   Allocated to registers ;size:1
                                           ;@Delay_us_2 PWM1CR2                   Allocated to registers ;size:1
                                           ;@Delay_us_2 DDR1                      Allocated to registers ;size:1
                                           ;@Delay_us_2 TMRCR                     Allocated to registers ;size:1
                                           ;@Delay_us_2 T1CR                      Allocated to registers ;size:1
                                           ;@Delay_us_2 T1CNT                     Allocated to registers ;size:1
                                           ;@Delay_us_2 T1LOAD                    Allocated to registers ;size:1
                                           ;@Delay_us_2 T1DATA                    Allocated to registers ;size:1
                                           ;@Delay_us_2 T1DATB                    Allocated to registers ;size:1
                                           ;@Delay_us_2 T1DATC                    Allocated to registers ;size:1
                                           ;@Delay_us_2 T1DATD                    Allocated to registers ;size:1
                                           ;@Delay_us_2 T2CR                      Allocated to registers ;size:1
                                           ;@Delay_us_2 T2CNTH                    Allocated to registers ;size:1
                                           ;@Delay_us_2 T2CNTL                    Allocated to registers ;size:1
                                           ;@Delay_us_2 T2LOADH                   Allocated to registers ;size:1
                                           ;@Delay_us_2 T2LOADL                   Allocated to registers ;size:1
                                           ;@Delay_us_2 P1KBCR                    Allocated to registers ;size:1
                                           ;@Delay_us_2 P1ADCR                    Allocated to registers ;size:1
                                           ;@Delay_us_2 CMPCR0                    Allocated to registers ;size:1
                                           ;@Delay_us_2 CMPCR1                    Allocated to registers ;size:1
                                           ;@Delay_us_2 CMPCR2                    Allocated to registers ;size:1
                                           ;@Delay_us_2 TKCR0                     Allocated to registers ;size:1
                                           ;@Delay_us_2 TKCR1                     Allocated to registers ;size:1
                                           ;@Delay_us_2 TKCR2                     Allocated to registers ;size:1
                                           ;@Delay_us_2 TKCNTH                    Allocated to registers ;size:1
                                           ;@Delay_us_2 TKCNTL                    Allocated to registers ;size:1
                                           ;@end Allocation info for local variables in function 'Delay_us_2';
                                           ;@Allocation info for local variables in function 'Delay_us'
                                           ;@Delay_us i                         Allocated to registers ;size:1
                                           ;@end Allocation info for local variables in function 'Delay_us';
                                           ;@Allocation info for local variables in function 'Clr_Ram'
                                           ;@end Allocation info for local variables in function 'Clr_Ram';
                                           ;@Allocation info for local variables in function 'Init_Sys'
                                           ;@end Allocation info for local variables in function 'Init_Sys';
                                           ;@Allocation info for local variables in function 'T0_Time_Init'
                                           ;@end Allocation info for local variables in function 'T0_Time_Init';
                                           ;@Allocation info for local variables in function 'T1_PWM_Init'
                                           ;@end Allocation info for local variables in function 'T1_PWM_Init';
                                           ;@Allocation info for local variables in function 'IO_Init'
                                           ;@end Allocation info for local variables in function 'IO_Init';
                                           ;@Allocation info for local variables in function 'TK_Sens_Threshold_value_Detection'
                                           ;@end Allocation info for local variables in function 'TK_Sens_Threshold_value_Detection';
                                           ;@Allocation info for local variables in function 'TOUCH_Init'
                                           ;@end Allocation info for local variables in function 'TOUCH_Init';
                                           ;@Allocation info for local variables in function 'TK0_Init'
                                           ;@end Allocation info for local variables in function 'TK0_Init';
                                           ;@Allocation info for local variables in function 'TK0_release_'
                                           ;@end Allocation info for local variables in function 'TK0_release_';
                                           ;@Allocation info for local variables in function 'TK0_Scan'
                                           ;@end Allocation info for local variables in function 'TK0_Scan';
                                           ;@Allocation info for local variables in function 'PWM_Direction_Judgment'
                                           ;@end Allocation info for local variables in function 'PWM_Direction_Judgment';
                                           ;@Allocation info for local variables in function 'T_Key_value_Read'
                                           ;@end Allocation info for local variables in function 'T_Key_value_Read';
                                           ;@Allocation info for local variables in function 'PWM_W_OFF'
                                           ;@end Allocation info for local variables in function 'PWM_W_OFF';
                                           ;@Allocation info for local variables in function 'PWM_Y_OFF'
                                           ;@end Allocation info for local variables in function 'PWM_Y_OFF';
                                           ;@Allocation info for local variables in function 'LED_PWM_Control'
                                           ;@end Allocation info for local variables in function 'LED_PWM_Control';
                                           ;@Allocation info for local variables in function 'Power_Low_V_OFF'
                                           ;@end Allocation info for local variables in function 'Power_Low_V_OFF';
                                           ;@Allocation info for local variables in function 'TK_5S_Reset'
                                           ;@end Allocation info for local variables in function 'TK_5S_Reset';
                                           ;@Allocation info for local variables in function 'Sleep_mode'
                                           ;@end Allocation info for local variables in function 'Sleep_mode';
                                           ;@Allocation info for local variables in function 'CMP_Init'
                                           ;@end Allocation info for local variables in function 'CMP_Init';
                                           ;@Allocation info for local variables in function 'main'
                                           ;@end Allocation info for local variables in function 'main';
                                           ;@Allocation info for local variables in function 'int_isr'
                                           ;@end Allocation info for local variables in function 'int_isr';
                                           
                                           ;--------------------------------------------------------
                                           ; overlayable items in internal ram 
                                           ;--------------------------------------------------------
                                           ;	udata_ovr
                                           ;--------------------------------------------------------
                                           ; reset vector 
                                           ;--------------------------------------------------------
                                           STARTUP	code 0x0000
000000   2836     goto    0x36             	goto	_main
                                           ;--------------------------------------------------------
                                           ; interrupt and initialization code
                                           ;--------------------------------------------------------
                                           c_interrupt	code	0x8
                                           __sdcc_interrupt
                                           ;***
                                           ;  pBlock Stats: dbName = I
                                           ;***
                                           ;entry:  _int_isr	;Function start
                                           ; 0 exit points
                                           ;; Starting pCode block
                                           _int_isr	;Function start
                                           ; 0 exit points
                                           ;	.line	880; "MC30P8160.c"	__endasm;
000008   15b1     movra   0x31             	MOVRA	_CSAVE_ACC
000009   1103     swapar  0x3              	SWAPAR	STATUS
00000a   15b2     movra   0x32             	MOVRA	_CSAVE_STATUS
                                           	
                                           ;	.line	883; "MC30P8160.c"	if ((CMPIE) && (CMPIF))
00000b   30ea     jbset   0x6a, 0x1        	JBSET	_CMPCR2bits,1
00000c   281b     goto    0x1b             	GOTO	_00473_DS_
00000d   306a     jbset   0x6a, 0          	JBSET	_CMPCR2bits,0
00000e   281b     goto    0x1b             	GOTO	_00473_DS_
                                           ;	.line	885; "MC30P8160.c"	CMPIF = 0;
00000f   3c6a     bclr    0x6a, 0          	BCLR	_CMPCR2bits,0
                                           ;	.line	886; "MC30P8160.c"	if(BAT_Low_V_Flag == 0)
000010   35b5     jbclr   0x35, 0x3        	JBCLR	_flag2,3
000011   2816     goto    0x16             	GOTO	_00470_DS_
                                           ;	.line	888; "MC30P8160.c"	BAT_Low_V_Flag = 1;
000012   39b5     bset    0x35, 0x3        	BSET	_flag2,3
                                           ;	.line	889; "MC30P8160.c"	CMPCR2 = 0x06;           //中断,下降沿触发  电压低到高 	
000013   0b06     movai   0x6              	MOVAI	0x06
000014   15ea     movra   0x6a             	MOVRA	_CMPCR2
000015   281b     goto    0x1b             	GOTO	_00473_DS_
                                           _00470_DS_
                                           ;	.line	891; "MC30P8160.c"	else if(BAT_Low_V_Flag)
000016   31b5     jbset   0x35, 0x3        	JBSET	_flag2,3
000017   281b     goto    0x1b             	GOTO	_00473_DS_
                                           ;	.line	893; "MC30P8160.c"	BAT_Low_V_Flag = 0;
000018   3db5     bclr    0x35, 0x3        	BCLR	_flag2,3
                                           ;	.line	894; "MC30P8160.c"	CMPCR2 = 0x02;           //中断,下降沿触发  电压低到高 	
000019   0b02     movai   0x2              	MOVAI	0x02
00001a   15ea     movra   0x6a             	MOVRA	_CMPCR2
                                           _00473_DS_
                                           ;	.line	899; "MC30P8160.c"	if(T0IF)
00001b   300f     jbset   0xf, 0           	JBSET	_INTFbits,0
00001c   282e     goto    0x2e             	GOTO	_00480_DS_
                                           ;	.line	901; "MC30P8160.c"	T0IF   = 0; 
00001d   3c0f     bclr    0xf, 0           	BCLR	_INTFbits,0
                                           ;	.line	902; "MC30P8160.c"	T0CNT = 247; // T0没有自动重载器，
00001e   0bf7     movai   0xf7             	MOVAI	0xf7
00001f   1581     movra   0x1              	MOVRA	_T0CNT
                                           ;	.line	904; "MC30P8160.c"	T0_5ms_Cnt ++;
000020   19c1     incr    0x41             	INCR	_T0_5ms_Cnt
                                           ;;unsigned compare: left < lit(0x5=5), size=1
                                           ;	.line	905; "MC30P8160.c"	if (T0_5ms_Cnt >= 5)
000021   0b05     movai   0x5              	MOVAI	0x05
000022   1241     rsubar  0x41             	RSUBAR	_T0_5ms_Cnt
000023   3003     jbset   0x3, 0           	JBSET	STATUS,0
000024   2827     goto    0x27             	GOTO	_00476_DS_
                                           ;;genSkipc:3291: created from rifx:013B5EFC
                                           ;	.line	907; "MC30P8160.c"	T0_5ms_Cnt = 0;
000025   1dc1     clrr    0x41             	CLRR	_T0_5ms_Cnt
                                           ;	.line	908; "MC30P8160.c"	T0_5ms_Flag = 1;
000026   3a34     bset    0x34, 0x4        	BSET	_flag1,4
                                           _00476_DS_
                                           ;	.line	911; "MC30P8160.c"	T0_13ms_Cnt ++;
000027   19c0     incr    0x40             	INCR	_T0_13ms_Cnt
                                           ;;unsigned compare: left < lit(0xD=13), size=1
                                           ;	.line	912; "MC30P8160.c"	if(T0_13ms_Cnt >= 13)
000028   0b0d     movai   0xd              	MOVAI	0x0d
000029   1240     rsubar  0x40             	RSUBAR	_T0_13ms_Cnt
00002a   3003     jbset   0x3, 0           	JBSET	STATUS,0
00002b   282e     goto    0x2e             	GOTO	_00480_DS_
                                           ;;genSkipc:3291: created from rifx:013B5EFC
                                           ;	.line	914; "MC30P8160.c"	T0_13ms_Cnt = 0;
00002c   1dc0     clrr    0x40             	CLRR	_T0_13ms_Cnt
                                           ;	.line	915; "MC30P8160.c"	T0_13ms_Flag = 1;
00002d   3ab4     bset    0x34, 0x5        	BSET	_flag1,5
                                           _00480_DS_
                                           ;	.line	918; "MC30P8160.c"	if(T1IF)
00002e   3058     jbset   0x58, 0          	JBSET	_TMRCRbits,0
00002f   2831     goto    0x31             	GOTO	_00482_DS_
                                           ;	.line	920; "MC30P8160.c"	T1IF   = 0; 
000030   3c58     bclr    0x58, 0          	BCLR	_TMRCRbits,0
                                           _00482_DS_
                                           ;	.line	927; "MC30P8160.c"	__endasm;
000031   1132     swapar  0x32             	SWAPAR	_CSAVE_STATUS
000032   1583     movra   0x3              	MOVRA	STATUS
000033   11b1     swapr   0x31             	SWAPR	_CSAVE_ACC
000034   1131     swapar  0x31             	SWAPAR	_CSAVE_ACC
                                           	
                                           END_OF_INTERRUPT
                                           ;	.line	928; "MC30P8160.c"	}
000035   000d     retie                    	RETIE	
                                           
                                           ;--------------------------------------------------------
                                           ; code
                                           ;--------------------------------------------------------
                                           code_MC30P8160	code
                                           ;***
                                           ;  pBlock Stats: dbName = M
                                           ;***
                                           ;entry:  _main	;Function start
                                           ; 2 exit points
                                           ;has an exit
                                           ;functions called:
                                           ;   _Clr_Ram
                                           ;   _Init_Sys
                                           ;   _IO_Init
                                           ;   _Delay_us_2
                                           ;   _TK_Sens_Threshold_value_Detection
                                           ;   _TOUCH_Init
                                           ;   _T0_Time_Init
                                           ;   _T1_PWM_Init
                                           ;   _CMP_Init
                                           ;   _TK0_Scan
                                           ;   _T_Key_value_Read
                                           ;   _LED_PWM_Control
                                           ;   _Power_Low_V_OFF
                                           ;   _TK_5S_Reset
                                           ;   _Sleep_mode
                                           ;   _Clr_Ram
                                           ;   _Init_Sys
                                           ;   _IO_Init
                                           ;   _Delay_us_2
                                           ;   _TK_Sens_Threshold_value_Detection
                                           ;   _TOUCH_Init
                                           ;   _T0_Time_Init
                                           ;   _T1_PWM_Init
                                           ;   _CMP_Init
                                           ;   _TK0_Scan
                                           ;   _T_Key_value_Read
                                           ;   _LED_PWM_Control
                                           ;   _Power_Low_V_OFF
                                           ;   _TK_5S_Reset
                                           ;   _Sleep_mode
                                           ;1 compiler assigned register :
                                           ;   STK00
                                           ;; Starting pCode block
                                           _main	;Function start
                                           ; 2 exit points
                                           ;	.line	815; "MC30P8160.c"	Clr_Ram();
000036   2302     call    0x302            	CALL	_Clr_Ram
                                           ;	.line	816; "MC30P8160.c"	Init_Sys();
000037   22f9     call    0x2f9            	CALL	_Init_Sys
                                           ;	.line	818; "MC30P8160.c"	IO_Init();
000038   22e2     call    0x2e2            	CALL	_IO_Init
                                           ;	.line	820; "MC30P8160.c"	Delay_us_2(0x8001); // 4M 约100ms
000039   0b01     movai   0x1              	MOVAI	0x01
00003a   1596     movra   0x16             	MOVRA	STK00
00003b   0b80     movai   0x80             	MOVAI	0x80
00003c   2315     call    0x315            	CALL	_Delay_us_2
                                           ;	.line	822; "MC30P8160.c"	TK_Sens_Threshold_value_Detection(); // 5档灵敏度
00003d   22a2     call    0x2a2            	CALL	_TK_Sens_Threshold_value_Detection
                                           ;	.line	824; "MC30P8160.c"	TOUCH_Init(); // 设置触摸寄存器 
00003e   229b     call    0x29b            	CALL	_TOUCH_Init
                                           ;	.line	826; "MC30P8160.c"	T0_Time_Init();
00003f   22f4     call    0x2f4            	CALL	_T0_Time_Init
                                           ;	.line	827; "MC30P8160.c"	T1_PWM_Init();
000040   22ed     call    0x2ed            	CALL	_T1_PWM_Init
                                           ;	.line	828; "MC30P8160.c"	SleepCnt = 0xFF;
000041   0bff     movai   0xff             	MOVAI	0xff
000042   15b8     movra   0x38             	MOVRA	_SleepCnt
                                           ;	.line	830; "MC30P8160.c"	PWM_Flag_key = 1;
000043   3bb4     bset    0x34, 0x7        	BSET	_flag1,7
                                           ;	.line	832; "MC30P8160.c"	PWM_Duty_W = PWM_Duty_Max;
000044   0bff     movai   0xff             	MOVAI	0xff
000045   15ba     movra   0x3a             	MOVRA	_PWM_Duty_W
                                           ;	.line	833; "MC30P8160.c"	PWM_Duty_Y = PWM_Duty_Max;
000046   0bff     movai   0xff             	MOVAI	0xff
000047   15bb     movra   0x3b             	MOVRA	_PWM_Duty_Y
                                           ;	.line	834; "MC30P8160.c"	PWM_Duty_WY = PWM_Duty_Max;
000048   0bff     movai   0xff             	MOVAI	0xff
000049   15bc     movra   0x3c             	MOVRA	_PWM_Duty_WY
                                           ;	.line	836; "MC30P8160.c"	T_key_Value = 0; // Power_ONOFF_Flag
00004a   1dbd     clrr    0x3d             	CLRR	_T_key_Value
                                           ;	.line	838; "MC30P8160.c"	Pre_T_Key0_Release = 1;
00004b   38b4     bset    0x34, 0x1        	BSET	_flag1,1
                                           ;	.line	839; "MC30P8160.c"	u16_get_val_Min = 0xffff;
00004c   0bff     movai   0xff             	MOVAI	0xff
00004d   15ab     movra   0x2b             	MOVRA	_u16_get_val_Min
00004e   15ac     movra   0x2c             	MOVRA	(_u16_get_val_Min + 1)
                                           ;	.line	841; "MC30P8160.c"	CMP_Init();
00004f   205f     call    0x5f             	CALL	_CMP_Init
                                           _00462_DS_
                                           ;	.line	845; "MC30P8160.c"	if(T0_5ms_Flag)
000050   3234     jbset   0x34, 0x4        	JBSET	_flag1,4
000051   2854     goto    0x54             	GOTO	_00458_DS_
                                           ;	.line	847; "MC30P8160.c"	T0_5ms_Flag = 0;
000052   3e34     bclr    0x34, 0x4        	BCLR	_flag1,4
                                           ;	.line	848; "MC30P8160.c"	TK0_Scan();
000053   216d     call    0x16d            	CALL	_TK0_Scan
                                           _00458_DS_
                                           ;	.line	851; "MC30P8160.c"	if(T0_13ms_Flag) 
000054   32b4     jbset   0x34, 0x5        	JBSET	_flag1,5
000055   285c     goto    0x5c             	GOTO	_00460_DS_
                                           ;	.line	853; "MC30P8160.c"	T0_13ms_Flag = 0;
000056   3eb4     bclr    0x34, 0x5        	BCLR	_flag1,5
                                           ;	.line	855; "MC30P8160.c"	T_Key_value_Read();
000057   2126     call    0x126            	CALL	_T_Key_value_Read
                                           ;	.line	856; "MC30P8160.c"	LED_PWM_Control();
000058   20ae     call    0xae             	CALL	_LED_PWM_Control
                                           ;	.line	858; "MC30P8160.c"	Power_Low_V_OFF();
000059   209d     call    0x9d             	CALL	_Power_Low_V_OFF
                                           ;	.line	859; "MC30P8160.c"	TK_5S_Reset();
00005a   208b     call    0x8b             	CALL	_TK_5S_Reset
                                           ;	.line	861; "MC30P8160.c"	Sleep_mode();
00005b   206b     call    0x6b             	CALL	_Sleep_mode
                                           _00460_DS_
                                           ;	.line	864; "MC30P8160.c"	WDT_Clear();
00005c   000e     clrwdt                   	CLRWDT	
00005d   2850     goto    0x50             	GOTO	_00462_DS_
                                           ;	.line	866; "MC30P8160.c"	}
00005e   000c     return                   	RETURN	
                                           ; exit point of _main
                                           
                                           ;***
                                           ;  pBlock Stats: dbName = C
                                           ;***
                                           ;entry:  _CMP_Init	;Function start
                                           ; 2 exit points
                                           ;has an exit
                                           ;; Starting pCode block
                                           _CMP_Init	;Function start
                                           ; 2 exit points
                                           ;	.line	798; "MC30P8160.c"	CMPCR0 = 0x80;//开启CMP 正：VIR 负:VDD分压电阻 允许CMP端口输出 输出无回滞
00005f   0b80     movai   0x80             	MOVAI	0x80
000060   15e8     movra   0x68             	MOVRA	_CMPCR0
                                           ;	.line	799; "MC30P8160.c"	CMPCR1 = 0x21;//检测值2.87V 
000061   0b21     movai   0x21             	MOVAI	0x21
000062   15e9     movra   0x69             	MOVRA	_CMPCR1
                                           ;	.line	800; "MC30P8160.c"	Nop();
000063   0000     nop                      	nop	
                                           ;	.line	801; "MC30P8160.c"	Nop();
000064   0000     nop                      	nop	
                                           ;	.line	802; "MC30P8160.c"	Nop();
000065   0000     nop                      	nop	
                                           ;	.line	803; "MC30P8160.c"	Nop();
000066   0000     nop                      	nop	
                                           ;	.line	804; "MC30P8160.c"	Nop();
000067   0000     nop                      	nop	
                                           ;	.line	805; "MC30P8160.c"	CMPCR2 = 0x02;           //中断,上升沿触发    电压高到低
000068   0b02     movai   0x2              	MOVAI	0x02
000069   15ea     movra   0x6a             	MOVRA	_CMPCR2
                                           ;	.line	807; "MC30P8160.c"	}
00006a   000c     return                   	RETURN	
                                           ; exit point of _CMP_Init
                                           
                                           ;***
                                           ;  pBlock Stats: dbName = C
                                           ;***
                                           ;entry:  _Sleep_mode	;Function start
                                           ; 2 exit points
                                           ;has an exit
                                           ;; Starting pCode block
                                           _Sleep_mode	;Function start
                                           ; 2 exit points
                                           ;	.line	751; "MC30P8160.c"	if(SleepCnt) 
00006b   0b00     movai   0                	MOVAI	0x00
00006c   1738     orar    0x38             	ORAR	_SleepCnt
00006d   3503     jbclr   0x3, 0x2         	JBCLR	STATUS,2
00006e   2870     goto    0x70             	GOTO	_00440_DS_
                                           ;	.line	753; "MC30P8160.c"	SleepCnt--;
00006f   1bb8     decr    0x38             	DECR	_SleepCnt
                                           _00440_DS_
                                           ;	.line	756; "MC30P8160.c"	if(T_key_Value)
000070   0b00     movai   0                	MOVAI	0x00
000071   173d     orar    0x3d             	ORAR	_T_key_Value
000072   3503     jbclr   0x3, 0x2         	JBCLR	STATUS,2
000073   2876     goto    0x76             	GOTO	_00442_DS_
                                           ;	.line	758; "MC30P8160.c"	SleepCnt = 0xFF; // 
000074   0bff     movai   0xff             	MOVAI	0xff
000075   15b8     movra   0x38             	MOVRA	_SleepCnt
                                           _00442_DS_
                                           ;	.line	761; "MC30P8160.c"	if(!SleepCnt)
000076   0b00     movai   0                	MOVAI	0x00
000077   1738     orar    0x38             	ORAR	_SleepCnt
000078   3103     jbset   0x3, 0x2         	JBSET	STATUS,2
000079   288a     goto    0x8a             	GOTO	_00448_DS_
                                           ;	.line	763; "MC30P8160.c"	CMPEN = 0; // 关闭比较器
00007a   3fe8     bclr    0x68, 0x7        	BCLR	_CMPCR0bits,7
                                           ;	.line	764; "MC30P8160.c"	CMPIF = 0;
00007b   3c6a     bclr    0x6a, 0          	BCLR	_CMPCR2bits,0
                                           ;	.line	766; "MC30P8160.c"	TKEN = 0;       //关闭TK
00007c   3feb     bclr    0x6b, 0x7        	BCLR	_TKCR0bits,7
                                           ;	.line	769; "MC30P8160.c"	u8_WDT_18ms_Cnt = 0;
00007d   1db9     clrr    0x39             	CLRR	_u8_WDT_18ms_Cnt
                                           ;;unsigned compare: left < lit(0x6=6), size=1
                                           _00443_DS_
                                           ;	.line	770; "MC30P8160.c"	while(u8_WDT_18ms_Cnt < 6)
00007e   0b06     movai   0x6              	MOVAI	0x06
00007f   1239     rsubar  0x39             	RSUBAR	_u8_WDT_18ms_Cnt
000080   3403     jbclr   0x3, 0           	JBCLR	STATUS,0
000081   2885     goto    0x85             	GOTO	_00445_DS_
                                           ;;genSkipc:3291: created from rifx:013B5EFC
                                           ;	.line	772; "MC30P8160.c"	u8_WDT_18ms_Cnt ++;
000082   19b9     incr    0x39             	INCR	_u8_WDT_18ms_Cnt
                                           ;	.line	773; "MC30P8160.c"	SLEEP();   //休眠两种编写方式(方式二)
000083   000b     sleep                    	STOP	
000084   287e     goto    0x7e             	GOTO	_00443_DS_
                                           _00445_DS_
                                           ;	.line	778; "MC30P8160.c"	TKEN = 1;  	   //打开TK
000085   3beb     bset    0x6b, 0x7        	BSET	_TKCR0bits,7
                                           ;	.line	781; "MC30P8160.c"	T0_5ms_Flag = 1;
000086   3a34     bset    0x34, 0x4        	BSET	_flag1,4
                                           ;	.line	782; "MC30P8160.c"	T0_13ms_Flag = 1;
000087   3ab4     bset    0x34, 0x5        	BSET	_flag1,5
                                           ;	.line	784; "MC30P8160.c"	CMPIF = 0;
000088   3c6a     bclr    0x6a, 0          	BCLR	_CMPCR2bits,0
                                           ;	.line	785; "MC30P8160.c"	CMPEN = 1; // 打开比较器
000089   3be8     bset    0x68, 0x7        	BSET	_CMPCR0bits,7
                                           _00448_DS_
                                           ;	.line	788; "MC30P8160.c"	}
00008a   000c     return                   	RETURN	
                                           ; exit point of _Sleep_mode
                                           
                                           ;***
                                           ;  pBlock Stats: dbName = C
                                           ;***
                                           ;entry:  _TK_5S_Reset	;Function start
                                           ; 2 exit points
                                           ;has an exit
                                           ;functions called:
                                           ;   _TK0_release_
                                           ;   _TK0_release_
                                           ;; Starting pCode block
                                           _TK_5S_Reset	;Function start
                                           ; 2 exit points
                                           ;	.line	733; "MC30P8160.c"	if(T_Key0_Signal)
00008b   3034     jbset   0x34, 0          	JBSET	_flag1,0
00008c   289a     goto    0x9a             	GOTO	_00422_DS_
                                           ;	.line	735; "MC30P8160.c"	u16_TK_Reset_Cnt ++;
00008d   19af     incr    0x2f             	INCR	_u16_TK_Reset_Cnt
00008e   3503     jbclr   0x3, 0x2         	JBCLR	STATUS,2
00008f   19b0     incr    0x30             	INCR	(_u16_TK_Reset_Cnt + 1)
                                           ;;unsigned compare: left < lit(0x181=385), size=2
                                           ;	.line	736; "MC30P8160.c"	if(u16_TK_Reset_Cnt >= 385) // 13ms 5S
000090   0b01     movai   0x1              	MOVAI	0x01
000091   1230     rsubar  0x30             	RSUBAR	(_u16_TK_Reset_Cnt + 1)
000092   3103     jbset   0x3, 0x2         	JBSET	STATUS,2
000093   2896     goto    0x96             	GOTO	_00434_DS_
000094   0b81     movai   0x81             	MOVAI	0x81
000095   122f     rsubar  0x2f             	RSUBAR	_u16_TK_Reset_Cnt
                                           _00434_DS_
000096   3003     jbset   0x3, 0           	JBSET	STATUS,0
000097   289c     goto    0x9c             	GOTO	_00424_DS_
                                           ;;genSkipc:3291: created from rifx:013B5EFC
                                           ;	.line	739; "MC30P8160.c"	TK0_release_();
000098   227b     call    0x27b            	CALL	_TK0_release_
000099   289c     goto    0x9c             	GOTO	_00424_DS_
                                           _00422_DS_
                                           ;	.line	744; "MC30P8160.c"	u16_TK_Reset_Cnt = 0;
00009a   1daf     clrr    0x2f             	CLRR	_u16_TK_Reset_Cnt
00009b   1db0     clrr    0x30             	CLRR	(_u16_TK_Reset_Cnt + 1)
                                           _00424_DS_
                                           ;	.line	746; "MC30P8160.c"	}
00009c   000c     return                   	RETURN	
                                           ; exit point of _TK_5S_Reset
                                           
                                           ;***
                                           ;  pBlock Stats: dbName = C
                                           ;***
                                           ;entry:  _Power_Low_V_OFF	;Function start
                                           ; 2 exit points
                                           ;has an exit
                                           ;; Starting pCode block
                                           _Power_Low_V_OFF	;Function start
                                           ; 2 exit points
                                           ;	.line	712; "MC30P8160.c"	if(T_key_Value && BAT_Low_V_Flag)
00009d   0b00     movai   0                	MOVAI	0x00
00009e   173d     orar    0x3d             	ORAR	_T_key_Value
00009f   3503     jbclr   0x3, 0x2         	JBCLR	STATUS,2
0000a0   28ac     goto    0xac             	GOTO	_00411_DS_
0000a1   31b5     jbset   0x35, 0x3        	JBSET	_flag2,3
0000a2   28ac     goto    0xac             	GOTO	_00411_DS_
                                           ;	.line	714; "MC30P8160.c"	Power_Low_V_OFF_Cnt ++;
0000a3   19bf     incr    0x3f             	INCR	_Power_Low_V_OFF_Cnt
                                           ;;swapping arguments (AOP_TYPEs 1/3)
                                           ;;unsigned compare: left >= lit(0xC9=201), size=1
                                           ;	.line	716; "MC30P8160.c"	if(Power_Low_V_OFF_Cnt > 200) // 2.6S
0000a4   0bc9     movai   0xc9             	MOVAI	0xc9
0000a5   123f     rsubar  0x3f             	RSUBAR	_Power_Low_V_OFF_Cnt
0000a6   3003     jbset   0x3, 0           	JBSET	STATUS,0
0000a7   28ad     goto    0xad             	GOTO	_00414_DS_
                                           ;;genSkipc:3291: created from rifx:013B5EFC
                                           ;	.line	718; "MC30P8160.c"	Power_Low_V_OFF_Cnt = 0;
0000a8   1dbf     clrr    0x3f             	CLRR	_Power_Low_V_OFF_Cnt
                                           ;	.line	720; "MC30P8160.c"	T_key_Value = 0;
0000a9   1dbd     clrr    0x3d             	CLRR	_T_key_Value
                                           ;	.line	722; "MC30P8160.c"	PWM_Update_F = 1;
0000aa   38b5     bset    0x35, 0x1        	BSET	_flag2,1
0000ab   28ad     goto    0xad             	GOTO	_00414_DS_
                                           _00411_DS_
                                           ;	.line	727; "MC30P8160.c"	Power_Low_V_OFF_Cnt = 0;
0000ac   1dbf     clrr    0x3f             	CLRR	_Power_Low_V_OFF_Cnt
                                           _00414_DS_
                                           ;	.line	729; "MC30P8160.c"	}
0000ad   000c     return                   	RETURN	
                                           ; exit point of _Power_Low_V_OFF
                                           
                                           ;***
                                           ;  pBlock Stats: dbName = C
                                           ;***
                                           ;entry:  _LED_PWM_Control	;Function start
                                           ; 2 exit points
                                           ;has an exit
                                           ;functions called:
                                           ;   _PWM_W_OFF
                                           ;   _PWM_Y_OFF
                                           ;   _PWM_Y_OFF
                                           ;   _PWM_W_OFF
                                           ;   _PWM_W_OFF
                                           ;   _PWM_Y_OFF
                                           ;   _PWM_Y_OFF
                                           ;   _PWM_W_OFF
                                           ;1 compiler assigned register :
                                           ;   r0x1022
                                           ;; Starting pCode block
                                           _LED_PWM_Control	;Function start
                                           ; 2 exit points
                                           ;	.line	616; "MC30P8160.c"	if(PWM_Update_F == 1) 	//按键值改变更新状态
0000ae   1d9c     clrr    0x1c             	CLRR	r0x1022
0000af   34b5     jbclr   0x35, 0x1        	JBCLR	_flag2,1
0000b0   199c     incr    0x1c             	INCR	r0x1022
0000b1   161c     movar   0x1c             	MOVAR	r0x1022
0000b2   0801     xorai   0x1              	XORAI	0x01
0000b3   3103     jbset   0x3, 0x2         	JBSET	STATUS,2
0000b4   28dd     goto    0xdd             	GOTO	_00369_DS_
                                           ;	.line	618; "MC30P8160.c"	PWM_Update_F = 0;
0000b5   3cb5     bclr    0x35, 0x1        	BCLR	_flag2,1
                                           ;	.line	620; "MC30P8160.c"	if(T_key_Value == 0) //全关
0000b6   0b00     movai   0                	MOVAI	0x00
0000b7   173d     orar    0x3d             	ORAR	_T_key_Value
0000b8   3103     jbset   0x3, 0x2         	JBSET	STATUS,2
0000b9   28bd     goto    0xbd             	GOTO	_00366_DS_
                                           ;	.line	622; "MC30P8160.c"	PWM_W_OFF();
0000ba   2122     call    0x122            	CALL	_PWM_W_OFF
                                           ;	.line	623; "MC30P8160.c"	PWM_Y_OFF();      	   	
0000bb   211e     call    0x11e            	CALL	_PWM_Y_OFF
0000bc   28dd     goto    0xdd             	GOTO	_00369_DS_
                                           _00366_DS_
                                           ;	.line	625; "MC30P8160.c"	else if(T_key_Value == 2)      	// W
0000bd   163d     movar   0x3d             	MOVAR	_T_key_Value
0000be   0802     xorai   0x2              	XORAI	0x02
0000bf   3103     jbset   0x3, 0x2         	JBSET	STATUS,2
0000c0   28c7     goto    0xc7             	GOTO	_00363_DS_
                                           ;	.line	627; "MC30P8160.c"	PWM_Y_OFF();   	   	   	
0000c1   211e     call    0x11e            	CALL	_PWM_Y_OFF
                                           ;	.line	629; "MC30P8160.c"	T1DATD = PWM_Duty_W; // 
0000c2   163a     movar   0x3a             	MOVAR	_PWM_Duty_W
0000c3   15df     movra   0x5f             	MOVRA	_T1DATD
                                           ;	.line	631; "MC30P8160.c"	PWM1DOE = 1; //打开端口输出脉宽调制波形
0000c4   3ad0     bset    0x50, 0x5        	BSET	_PWM1CR0bits,5
                                           ;	.line	632; "MC30P8160.c"	PWM1DEN = 1; //打开 PWM1D 功能 	
0000c5   3a50     bset    0x50, 0x4        	BSET	_PWM1CR0bits,4
0000c6   28dd     goto    0xdd             	GOTO	_00369_DS_
                                           _00363_DS_
                                           ;	.line	635; "MC30P8160.c"	else if(T_key_Value == 1)      	// Y
0000c7   163d     movar   0x3d             	MOVAR	_T_key_Value
0000c8   0801     xorai   0x1              	XORAI	0x01
0000c9   3103     jbset   0x3, 0x2         	JBSET	STATUS,2
0000ca   28d1     goto    0xd1             	GOTO	_00360_DS_
                                           ;	.line	637; "MC30P8160.c"	PWM_W_OFF();
0000cb   2122     call    0x122            	CALL	_PWM_W_OFF
                                           ;	.line	639; "MC30P8160.c"	T1DATC = PWM_Duty_Y;
0000cc   163b     movar   0x3b             	MOVAR	_PWM_Duty_Y
0000cd   15de     movra   0x5e             	MOVRA	_T1DATC
                                           ;	.line	640; "MC30P8160.c"	PWM1COE = 1; //打开端口输出脉宽调制波形
0000ce   39d0     bset    0x50, 0x3        	BSET	_PWM1CR0bits,3
                                           ;	.line	641; "MC30P8160.c"	PWM1CEN = 1; //打开 PWM1D 功能   	   	   	   	
0000cf   3950     bset    0x50, 0x2        	BSET	_PWM1CR0bits,2
0000d0   28dd     goto    0xdd             	GOTO	_00369_DS_
                                           _00360_DS_
                                           ;	.line	643; "MC30P8160.c"	else if(T_key_Value == 3)      	// WY  50%
0000d1   163d     movar   0x3d             	MOVAR	_T_key_Value
0000d2   0803     xorai   0x3              	XORAI	0x03
0000d3   3103     jbset   0x3, 0x2         	JBSET	STATUS,2
0000d4   28dd     goto    0xdd             	GOTO	_00369_DS_
                                           ;	.line	645; "MC30P8160.c"	T1DATD = PWM_Duty_WY;
0000d5   163c     movar   0x3c             	MOVAR	_PWM_Duty_WY
0000d6   15df     movra   0x5f             	MOVRA	_T1DATD
                                           ;	.line	646; "MC30P8160.c"	PWM1DOE = 1; //打开端口输出脉宽调制波形
0000d7   3ad0     bset    0x50, 0x5        	BSET	_PWM1CR0bits,5
                                           ;	.line	647; "MC30P8160.c"	PWM1DEN = 1; //打开 PWM1D 功能 	 
0000d8   3a50     bset    0x50, 0x4        	BSET	_PWM1CR0bits,4
                                           ;	.line	649; "MC30P8160.c"	T1DATC = PWM_Duty_WY;
0000d9   163c     movar   0x3c             	MOVAR	_PWM_Duty_WY
0000da   15de     movra   0x5e             	MOVRA	_T1DATC
                                           ;	.line	650; "MC30P8160.c"	PWM1COE = 1; //打开端口输出脉宽调制波形
0000db   39d0     bset    0x50, 0x3        	BSET	_PWM1CR0bits,3
                                           ;	.line	651; "MC30P8160.c"	PWM1CEN = 1; //打开 PWM1D 功能   	   	   	  	
0000dc   3950     bset    0x50, 0x2        	BSET	_PWM1CR0bits,2
                                           _00369_DS_
                                           ;	.line	655; "MC30P8160.c"	if(T_Long_press_Flag) //长按无极调光（255极）
0000dd   3334     jbset   0x34, 0x6        	JBSET	_flag1,6
0000de   291d     goto    0x11d            	GOTO	_00403_DS_
                                           ;	.line	657; "MC30P8160.c"	PWM_Update_F = 1;
0000df   38b5     bset    0x35, 0x1        	BSET	_flag2,1
                                           ;	.line	659; "MC30P8160.c"	if(PWM_Flag_key == 0)  	//逐渐变暗
0000e0   37b4     jbclr   0x34, 0x7        	JBCLR	_flag1,7
0000e1   2900     goto    0x100            	GOTO	_00399_DS_
                                           ;	.line	661; "MC30P8160.c"	if(T_key_Value == 2)
0000e2   163d     movar   0x3d             	MOVAR	_T_key_Value
0000e3   0802     xorai   0x2              	XORAI	0x02
0000e4   3103     jbset   0x3, 0x2         	JBSET	STATUS,2
0000e5   28ec     goto    0xec             	GOTO	_00382_DS_
                                           ;;unsigned compare: left < lit(0xFF=255), size=1
                                           ;	.line	663; "MC30P8160.c"	if(PWM_Duty_W < PWM_Duty_Max) //最大亮度 100%
0000e6   0bff     movai   0xff             	MOVAI	0xff
0000e7   123a     rsubar  0x3a             	RSUBAR	_PWM_Duty_W
0000e8   3403     jbclr   0x3, 0           	JBCLR	STATUS,0
0000e9   291d     goto    0x11d            	GOTO	_00403_DS_
                                           ;;genSkipc:3291: created from rifx:013B5EFC
                                           ;	.line	665; "MC30P8160.c"	PWM_Duty_W ++;
0000ea   19ba     incr    0x3a             	INCR	_PWM_Duty_W
0000eb   291d     goto    0x11d            	GOTO	_00403_DS_
                                           _00382_DS_
                                           ;	.line	668; "MC30P8160.c"	else if (T_key_Value == 1)
0000ec   163d     movar   0x3d             	MOVAR	_T_key_Value
0000ed   0801     xorai   0x1              	XORAI	0x01
0000ee   3103     jbset   0x3, 0x2         	JBSET	STATUS,2
0000ef   28f6     goto    0xf6             	GOTO	_00379_DS_
                                           ;;unsigned compare: left < lit(0xFF=255), size=1
                                           ;	.line	670; "MC30P8160.c"	if(PWM_Duty_Y < PWM_Duty_Max) //最大亮度 100%
0000f0   0bff     movai   0xff             	MOVAI	0xff
0000f1   123b     rsubar  0x3b             	RSUBAR	_PWM_Duty_Y
0000f2   3403     jbclr   0x3, 0           	JBCLR	STATUS,0
0000f3   291d     goto    0x11d            	GOTO	_00403_DS_
                                           ;;genSkipc:3291: created from rifx:013B5EFC
                                           ;	.line	672; "MC30P8160.c"	PWM_Duty_Y ++;
0000f4   19bb     incr    0x3b             	INCR	_PWM_Duty_Y
0000f5   291d     goto    0x11d            	GOTO	_00403_DS_
                                           _00379_DS_
                                           ;	.line	675; "MC30P8160.c"	else if (T_key_Value == 3)
0000f6   163d     movar   0x3d             	MOVAR	_T_key_Value
0000f7   0803     xorai   0x3              	XORAI	0x03
0000f8   3103     jbset   0x3, 0x2         	JBSET	STATUS,2
0000f9   291d     goto    0x11d            	GOTO	_00403_DS_
                                           ;;unsigned compare: left < lit(0xFF=255), size=1
                                           ;	.line	677; "MC30P8160.c"	if (PWM_Duty_WY < PWM_Duty_Max) //最大亮度 100%
0000fa   0bff     movai   0xff             	MOVAI	0xff
0000fb   123c     rsubar  0x3c             	RSUBAR	_PWM_Duty_WY
0000fc   3403     jbclr   0x3, 0           	JBCLR	STATUS,0
0000fd   291d     goto    0x11d            	GOTO	_00403_DS_
                                           ;;genSkipc:3291: created from rifx:013B5EFC
                                           ;	.line	679; "MC30P8160.c"	PWM_Duty_WY ++;
0000fe   19bc     incr    0x3c             	INCR	_PWM_Duty_WY
0000ff   291d     goto    0x11d            	GOTO	_00403_DS_
                                           _00399_DS_
                                           ;	.line	685; "MC30P8160.c"	if(T_key_Value == 2)
000100   163d     movar   0x3d             	MOVAR	_T_key_Value
000101   0802     xorai   0x2              	XORAI	0x02
000102   3103     jbset   0x3, 0x2         	JBSET	STATUS,2
000103   290a     goto    0x10a            	GOTO	_00396_DS_
                                           ;;swapping arguments (AOP_TYPEs 1/3)
                                           ;;unsigned compare: left >= lit(0x1A=26), size=1
                                           ;	.line	687; "MC30P8160.c"	if(PWM_Duty_W > PWM_Duty_Min ) //最小亮度PWM值：255 * 8%，
000104   0b1a     movai   0x1a             	MOVAI	0x1a
000105   123a     rsubar  0x3a             	RSUBAR	_PWM_Duty_W
000106   3003     jbset   0x3, 0           	JBSET	STATUS,0
000107   291d     goto    0x11d            	GOTO	_00403_DS_
                                           ;;genSkipc:3291: created from rifx:013B5EFC
                                           ;	.line	689; "MC30P8160.c"	PWM_Duty_W --; 
000108   1bba     decr    0x3a             	DECR	_PWM_Duty_W
000109   291d     goto    0x11d            	GOTO	_00403_DS_
                                           _00396_DS_
                                           ;	.line	692; "MC30P8160.c"	else if (T_key_Value == 1)
00010a   163d     movar   0x3d             	MOVAR	_T_key_Value
00010b   0801     xorai   0x1              	XORAI	0x01
00010c   3103     jbset   0x3, 0x2         	JBSET	STATUS,2
00010d   2914     goto    0x114            	GOTO	_00393_DS_
                                           ;;swapping arguments (AOP_TYPEs 1/3)
                                           ;;unsigned compare: left >= lit(0x1A=26), size=1
                                           ;	.line	694; "MC30P8160.c"	if(PWM_Duty_Y > PWM_Duty_Min ) //最小亮度PWM值：255 * 5%，
00010e   0b1a     movai   0x1a             	MOVAI	0x1a
00010f   123b     rsubar  0x3b             	RSUBAR	_PWM_Duty_Y
000110   3003     jbset   0x3, 0           	JBSET	STATUS,0
000111   291d     goto    0x11d            	GOTO	_00403_DS_
                                           ;;genSkipc:3291: created from rifx:013B5EFC
                                           ;	.line	696; "MC30P8160.c"	PWM_Duty_Y --; 
000112   1bbb     decr    0x3b             	DECR	_PWM_Duty_Y
000113   291d     goto    0x11d            	GOTO	_00403_DS_
                                           _00393_DS_
                                           ;	.line	699; "MC30P8160.c"	else if (T_key_Value == 3)
000114   163d     movar   0x3d             	MOVAR	_T_key_Value
000115   0803     xorai   0x3              	XORAI	0x03
000116   3103     jbset   0x3, 0x2         	JBSET	STATUS,2
000117   291d     goto    0x11d            	GOTO	_00403_DS_
                                           ;;swapping arguments (AOP_TYPEs 1/3)
                                           ;;unsigned compare: left >= lit(0x1A=26), size=1
                                           ;	.line	701; "MC30P8160.c"	if (PWM_Duty_WY > PWM_Duty_Min) //最小亮度PWM值：255 * 5%，
000118   0b1a     movai   0x1a             	MOVAI	0x1a
000119   123c     rsubar  0x3c             	RSUBAR	_PWM_Duty_WY
00011a   3003     jbset   0x3, 0           	JBSET	STATUS,0
00011b   291d     goto    0x11d            	GOTO	_00403_DS_
                                           ;;genSkipc:3291: created from rifx:013B5EFC
                                           ;	.line	703; "MC30P8160.c"	PWM_Duty_WY--;
00011c   1bbc     decr    0x3c             	DECR	_PWM_Duty_WY
                                           _00403_DS_
                                           ;	.line	708; "MC30P8160.c"	}
00011d   000c     return                   	RETURN	
                                           ; exit point of _LED_PWM_Control
                                           
                                           ;***
                                           ;  pBlock Stats: dbName = C
                                           ;***
                                           ;entry:  _PWM_Y_OFF	;Function start
                                           ; 2 exit points
                                           ;has an exit
                                           ;; Starting pCode block
                                           _PWM_Y_OFF	;Function start
                                           ; 2 exit points
                                           ;	.line	608; "MC30P8160.c"	T1DATC = 0;
00011e   1dde     clrr    0x5e             	CLRR	_T1DATC
                                           ;	.line	609; "MC30P8160.c"	PWM1COE = 0; //禁止端口输出脉宽调制波形；
00011f   3dd0     bclr    0x50, 0x3        	BCLR	_PWM1CR0bits,3
                                           ;	.line	610; "MC30P8160.c"	PWM1CEN = 0; //关闭 PWM1C 功能；
000120   3d50     bclr    0x50, 0x2        	BCLR	_PWM1CR0bits,2
                                           ;	.line	611; "MC30P8160.c"	}
000121   000c     return                   	RETURN	
                                           ; exit point of _PWM_Y_OFF
                                           
                                           ;***
                                           ;  pBlock Stats: dbName = C
                                           ;***
                                           ;entry:  _PWM_W_OFF	;Function start
                                           ; 2 exit points
                                           ;has an exit
                                           ;; Starting pCode block
                                           _PWM_W_OFF	;Function start
                                           ; 2 exit points
                                           ;	.line	601; "MC30P8160.c"	T1DATD = 0;
000122   1ddf     clrr    0x5f             	CLRR	_T1DATD
                                           ;	.line	602; "MC30P8160.c"	PWM1DOE = 0; //禁止端口输出脉宽调制波形；
000123   3ed0     bclr    0x50, 0x5        	BCLR	_PWM1CR0bits,5
                                           ;	.line	603; "MC30P8160.c"	PWM1DEN = 0; //关闭 PWM1D 功能；
000124   3e50     bclr    0x50, 0x4        	BCLR	_PWM1CR0bits,4
                                           ;	.line	604; "MC30P8160.c"	}
000125   000c     return                   	RETURN	
                                           ; exit point of _PWM_W_OFF
                                           
                                           ;***
                                           ;  pBlock Stats: dbName = C
                                           ;***
                                           ;entry:  _T_Key_value_Read	;Function start
                                           ; 2 exit points
                                           ;has an exit
                                           ;functions called:
                                           ;   _PWM_Direction_Judgment
                                           ;   _PWM_Direction_Judgment
                                           ;   _PWM_Direction_Judgment
                                           ;   _PWM_Direction_Judgment
                                           ;; Starting pCode block
                                           _T_Key_value_Read	;Function start
                                           ; 2 exit points
                                           ;	.line	563; "MC30P8160.c"	if(T_Key0_Signal && TK0_Key_Release_Flag == 0) //有按键按下
000126   3034     jbset   0x34, 0          	JBSET	_flag1,0
000127   2933     goto    0x133            	GOTO	_00341_DS_
000128   3535     jbclr   0x35, 0x2        	JBCLR	_flag2,2
000129   2933     goto    0x133            	GOTO	_00341_DS_
                                           ;	.line	565; "MC30P8160.c"	TK0_Key_Cnt ++;  	   	 	   	
00012a   19be     incr    0x3e             	INCR	_TK0_Key_Cnt
                                           ;;unsigned compare: left < lit(0x2A=42), size=1
                                           ;	.line	567; "MC30P8160.c"	if(TK0_Key_Cnt >= 42) //550ms
00012b   0b2a     movai   0x2a             	MOVAI	0x2a
00012c   123e     rsubar  0x3e             	RSUBAR	_TK0_Key_Cnt
00012d   3003     jbset   0x3, 0           	JBSET	STATUS,0
00012e   2948     goto    0x148            	GOTO	_00344_DS_
                                           ;;genSkipc:3291: created from rifx:013B5EFC
                                           ;	.line	569; "MC30P8160.c"	TK0_Key_Release_Flag = 1;
00012f   3935     bset    0x35, 0x2        	BSET	_flag2,2
                                           ;	.line	571; "MC30P8160.c"	T_Long_press_Flag = 1;     	//长按标志位置1     
000130   3b34     bset    0x34, 0x6        	BSET	_flag1,6
                                           ;	.line	573; "MC30P8160.c"	PWM_Direction_Judgment();
000131   2149     call    0x149            	CALL	_PWM_Direction_Judgment
000132   2948     goto    0x148            	GOTO	_00344_DS_
                                           _00341_DS_
                                           ;	.line	577; "MC30P8160.c"	else if(!T_Key0_Signal)
000133   3434     jbclr   0x34, 0          	JBCLR	_flag1,0
000134   2948     goto    0x148            	GOTO	_00344_DS_
                                           ;	.line	579; "MC30P8160.c"	T_Long_press_Flag = 0; 	//长按标志位清0
000135   3f34     bclr    0x34, 0x6        	BCLR	_flag1,6
                                           ;	.line	581; "MC30P8160.c"	if(TK0_Key_Cnt > 0 && TK0_Key_Cnt < 42)
000136   0b00     movai   0                	MOVAI	0x00
000137   173e     orar    0x3e             	ORAR	_TK0_Key_Cnt
000138   3503     jbclr   0x3, 0x2         	JBCLR	STATUS,2
000139   2946     goto    0x146            	GOTO	_00336_DS_
                                           ;;unsigned compare: left < lit(0x2A=42), size=1
00013a   0b2a     movai   0x2a             	MOVAI	0x2a
00013b   123e     rsubar  0x3e             	RSUBAR	_TK0_Key_Cnt
00013c   3403     jbclr   0x3, 0           	JBCLR	STATUS,0
00013d   2946     goto    0x146            	GOTO	_00336_DS_
                                           ;;genSkipc:3291: created from rifx:013B5EFC
                                           ;	.line	583; "MC30P8160.c"	PWM_Update_F = 1;
00013e   38b5     bset    0x35, 0x1        	BSET	_flag2,1
                                           ;	.line	585; "MC30P8160.c"	T_key_Value ++;    	//按键值累加    	   	   	
00013f   19bd     incr    0x3d             	INCR	_T_key_Value
                                           ;;swapping arguments (AOP_TYPEs 1/3)
                                           ;;unsigned compare: left >= lit(0x4=4), size=1
                                           ;	.line	586; "MC30P8160.c"	if(T_key_Value > 3 ) // 1 2 3 按键值循环（三色调光）
000140   0b04     movai   0x4              	MOVAI	0x04
000141   123d     rsubar  0x3d             	RSUBAR	_T_key_Value
000142   3003     jbset   0x3, 0           	JBSET	STATUS,0
000143   2945     goto    0x145            	GOTO	_00334_DS_
                                           ;;genSkipc:3291: created from rifx:013B5EFC
                                           ;	.line	588; "MC30P8160.c"	T_key_Value = 0;
000144   1dbd     clrr    0x3d             	CLRR	_T_key_Value
                                           _00334_DS_
                                           ;	.line	591; "MC30P8160.c"	PWM_Direction_Judgment();
000145   2149     call    0x149            	CALL	_PWM_Direction_Judgment
                                           _00336_DS_
                                           ;	.line	594; "MC30P8160.c"	TK0_Key_Release_Flag = 0;
000146   3d35     bclr    0x35, 0x2        	BCLR	_flag2,2
                                           ;	.line	595; "MC30P8160.c"	TK0_Key_Cnt = 0;   	//触摸按下累加值清0
000147   1dbe     clrr    0x3e             	CLRR	_TK0_Key_Cnt
                                           _00344_DS_
                                           ;	.line	597; "MC30P8160.c"	}
000148   000c     return                   	RETURN	
                                           ; exit point of _T_Key_value_Read
                                           
                                           ;***
                                           ;  pBlock Stats: dbName = C
                                           ;***
                                           ;entry:  _PWM_Direction_Judgment	;Function start
                                           ; 2 exit points
                                           ;has an exit
                                           ;; Starting pCode block
                                           _PWM_Direction_Judgment	;Function start
                                           ; 2 exit points
                                           ;	.line	525; "MC30P8160.c"	if(T_key_Value == 2)
000149   163d     movar   0x3d             	MOVAR	_T_key_Value
00014a   0802     xorai   0x2              	XORAI	0x02
00014b   3103     jbset   0x3, 0x2         	JBSET	STATUS,2
00014c   2955     goto    0x155            	GOTO	_00324_DS_
                                           ;;swapping arguments (AOP_TYPEs 1/3)
                                           ;;unsigned compare: left >= lit(0x80=128), size=1
                                           ;	.line	527; "MC30P8160.c"	if(PWM_Duty_W > PWM_Duty_Half)
00014d   0b80     movai   0x80             	MOVAI	0x80
00014e   123a     rsubar  0x3a             	RSUBAR	_PWM_Duty_W
00014f   3003     jbset   0x3, 0           	JBSET	STATUS,0
000150   2953     goto    0x153            	GOTO	_00310_DS_
                                           ;;genSkipc:3291: created from rifx:013B5EFC
                                           ;	.line	529; "MC30P8160.c"	PWM_Flag_key = 1;  //调亮调暗标志位状态变换
000151   3bb4     bset    0x34, 0x7        	BSET	_flag1,7
000152   296c     goto    0x16c            	GOTO	_00326_DS_
                                           _00310_DS_
                                           ;	.line	533; "MC30P8160.c"	PWM_Flag_key = 0;  //调亮调暗标志位状态变换
000153   3fb4     bclr    0x34, 0x7        	BCLR	_flag1,7
000154   296c     goto    0x16c            	GOTO	_00326_DS_
                                           _00324_DS_
                                           ;	.line	536; "MC30P8160.c"	else if (T_key_Value == 1)
000155   163d     movar   0x3d             	MOVAR	_T_key_Value
000156   0801     xorai   0x1              	XORAI	0x01
000157   3103     jbset   0x3, 0x2         	JBSET	STATUS,2
000158   2961     goto    0x161            	GOTO	_00321_DS_
                                           ;;swapping arguments (AOP_TYPEs 1/3)
                                           ;;unsigned compare: left >= lit(0x80=128), size=1
                                           ;	.line	538; "MC30P8160.c"	if(PWM_Duty_Y > PWM_Duty_Half)
000159   0b80     movai   0x80             	MOVAI	0x80
00015a   123b     rsubar  0x3b             	RSUBAR	_PWM_Duty_Y
00015b   3003     jbset   0x3, 0           	JBSET	STATUS,0
00015c   295f     goto    0x15f            	GOTO	_00313_DS_
                                           ;;genSkipc:3291: created from rifx:013B5EFC
                                           ;	.line	540; "MC30P8160.c"	PWM_Flag_key = 1;  //调亮调暗标志位状态变换
00015d   3bb4     bset    0x34, 0x7        	BSET	_flag1,7
00015e   296c     goto    0x16c            	GOTO	_00326_DS_
                                           _00313_DS_
                                           ;	.line	544; "MC30P8160.c"	PWM_Flag_key = 0;  //调亮调暗标志位状态变换
00015f   3fb4     bclr    0x34, 0x7        	BCLR	_flag1,7
000160   296c     goto    0x16c            	GOTO	_00326_DS_
                                           _00321_DS_
                                           ;	.line	547; "MC30P8160.c"	else if(T_key_Value == 3)
000161   163d     movar   0x3d             	MOVAR	_T_key_Value
000162   0803     xorai   0x3              	XORAI	0x03
000163   3103     jbset   0x3, 0x2         	JBSET	STATUS,2
000164   296c     goto    0x16c            	GOTO	_00326_DS_
                                           ;;swapping arguments (AOP_TYPEs 1/3)
                                           ;;unsigned compare: left >= lit(0x80=128), size=1
                                           ;	.line	549; "MC30P8160.c"	if(PWM_Duty_WY > PWM_Duty_Half)
000165   0b80     movai   0x80             	MOVAI	0x80
000166   123c     rsubar  0x3c             	RSUBAR	_PWM_Duty_WY
000167   3003     jbset   0x3, 0           	JBSET	STATUS,0
000168   296b     goto    0x16b            	GOTO	_00316_DS_
                                           ;;genSkipc:3291: created from rifx:013B5EFC
                                           ;	.line	551; "MC30P8160.c"	PWM_Flag_key = 1;  //调亮调暗标志位状态变换
000169   3bb4     bset    0x34, 0x7        	BSET	_flag1,7
00016a   296c     goto    0x16c            	GOTO	_00326_DS_
                                           _00316_DS_
                                           ;	.line	555; "MC30P8160.c"	PWM_Flag_key = 0;  //调亮调暗标志位状态变换
00016b   3fb4     bclr    0x34, 0x7        	BCLR	_flag1,7
                                           _00326_DS_
                                           ;	.line	558; "MC30P8160.c"	}
00016c   000c     return                   	RETURN	
                                           ; exit point of _PWM_Direction_Judgment
                                           
                                           ;***
                                           ;  pBlock Stats: dbName = C
                                           ;***
                                           ;entry:  _TK0_Scan	;Function start
                                           ; 2 exit points
                                           ;has an exit
                                           ;functions called:
                                           ;   _TK0_Init
                                           ;   _TK0_release_
                                           ;   _TK0_Init
                                           ;   _TK0_release_
                                           ;4 compiler assigned registers:
                                           ;   r0x1022
                                           ;   r0x1023
                                           ;   r0x1024
                                           ;   r0x1025
                                           ;; Starting pCode block
                                           _TK0_Scan	;Function start
                                           ; 2 exit points
                                           ;	.line	403; "MC30P8160.c"	DDR1 |= 0x01;     // 1： 端口作为输入口          0： 端口作为输出口
00016d   3856     bset    0x56, 0          	BSET	_DDR1,0
                                           ;	.line	404; "MC30P8160.c"	P1ADCR |= 0x01;   // 0 使能端口的数字 I/O 功能； 1 关闭端口的数字 I/O 功能；
00016e   3867     bset    0x67, 0          	BSET	_P1ADCR,0
                                           ;	.line	406; "MC30P8160.c"	TK0_Init();
00016f   228b     call    0x28b            	CALL	_TK0_Init
                                           _00200_DS_
                                           ;	.line	408; "MC30P8160.c"	while(TKCF == 1)
000170   1d9c     clrr    0x1c             	CLRR	r0x1022
000171   36ec     jbclr   0x6c, 0x5        	JBCLR	_TKCR1bits,5
000172   199c     incr    0x1c             	INCR	r0x1022
000173   161c     movar   0x1c             	MOVAR	r0x1022
000174   0801     xorai   0x1              	XORAI	0x01
000175   3103     jbset   0x3, 0x2         	JBSET	STATUS,2
000176   2979     goto    0x179            	GOTO	_00202_DS_
                                           ;	.line	410; "MC30P8160.c"	WDT_Clear();
000177   000e     clrwdt                   	CLRWDT	
000178   2970     goto    0x170            	GOTO	_00200_DS_
                                           _00202_DS_
                                           ;	.line	412; "MC30P8160.c"	u16_get_val =  (TKCNTH << 8) | TKCNTL;
000179   166e     movar   0x6e             	MOVAR	_TKCNTH
00017a   159e     movra   0x1e             	MOVRA	r0x1024
00017b   159c     movra   0x1c             	MOVRA	r0x1022
00017c   1d9b     clrr    0x1b             	CLRR	r0x1023
                                           ;;99	MOVAR	r0x1022
                                           ;;100	CLRR	r0x1025
00017d   166f     movar   0x6f             	MOVAR	_TKCNTL
00017e   159f     movra   0x1f             	MOVRA	_u16_get_val
00017f   159c     movra   0x1c             	MOVRA	r0x1022
000180   1d9b     clrr    0x1b             	CLRR	r0x1023
                                           ;;102	MOVAR	r0x1022
                                           ;;101	ORAR	r0x1025
000181   0b00     movai   0                	MOVAI	0x00
000182   171e     orar    0x1e             	ORAR	r0x1024
000183   15a0     movra   0x20             	MOVRA	(_u16_get_val + 1)
                                           ;	.line	414; "MC30P8160.c"	TKCON = 0;  // 关闭 TKM 电容充放计数；
000184   3f6b     bclr    0x6b, 0x6        	BCLR	_TKCR0bits,6
                                           ;	.line	415; "MC30P8160.c"	TKCNTH = 0; // 清TOUCH读数,必须手工清零
000185   1dee     clrr    0x6e             	CLRR	_TKCNTH
                                           ;	.line	416; "MC30P8160.c"	TKCNTL = 0;
000186   1def     clrr    0x6f             	CLRR	_TKCNTL
                                           ;	.line	419; "MC30P8160.c"	DDR1 &= 0xFE;     // 1： 端口作为输入口         0： 端口作为输出口
000187   3c56     bclr    0x56, 0          	BCLR	_DDR1,0
                                           ;	.line	420; "MC30P8160.c"	P1ADCR &= 0xFE;   // 1 关闭端口的数字 I/O 功能； 0 使能端口的数字 I/O 功能； 
000188   3c67     bclr    0x67, 0          	BCLR	_P1ADCR,0
                                           ;	.line	421; "MC30P8160.c"	P10D = 0;
000189   3c06     bclr    0x6, 0           	BCLR	_P1bits,0
                                           ;	.line	423; "MC30P8160.c"	u16_temp_val = u16_get_val + Const_SEN_T_Key0 - 10;
00018a   0b28     movai   0x28             	MOVAI	0x28
00018b   1f1f     addar   0x1f             	ADDAR	_u16_get_val
00018c   15a7     movra   0x27             	MOVRA	_u16_temp_val
00018d   1da8     clrr    0x28             	CLRR	(_u16_temp_val + 1)
00018e   14a8     rlr     0x28             	RLR	(_u16_temp_val + 1)
00018f   1620     movar   0x20             	MOVAR	(_u16_get_val + 1)
000190   1fa8     addra   0x28             	ADDRA	(_u16_temp_val + 1)
                                           ;	.line	424; "MC30P8160.c"	if(u16_temp_val < u16_TK0_environment_val)
000191   162e     movar   0x2e             	MOVAR	(_u16_TK0_environment_val + 1)
000192   1228     rsubar  0x28             	RSUBAR	(_u16_temp_val + 1)
000193   3103     jbset   0x3, 0x2         	JBSET	STATUS,2
000194   2997     goto    0x197            	GOTO	_00297_DS_
000195   162d     movar   0x2d             	MOVAR	_u16_TK0_environment_val
000196   1227     rsubar  0x27             	RSUBAR	_u16_temp_val
                                           _00297_DS_
000197   3403     jbclr   0x3, 0           	JBCLR	STATUS,0
000198   299b     goto    0x19b            	GOTO	_00204_DS_
                                           ;;genSkipc:3291: created from rifx:013B5EFC
                                           ;	.line	426; "MC30P8160.c"	SleepCnt = 100; // 1000ms
000199   0b64     movai   0x64             	MOVAI	0x64
00019a   15b8     movra   0x38             	MOVRA	_SleepCnt
                                           _00204_DS_
                                           ;	.line	429; "MC30P8160.c"	u16_temp_val = u16_get_val_Temp << 2;
00019b   3c03     bclr    0x3, 0           	BCLR	STATUS,0
00019c   1429     rlar    0x29             	RLAR	_u16_get_val_Temp
00019d   15a7     movra   0x27             	MOVRA	_u16_temp_val
00019e   142a     rlar    0x2a             	RLAR	(_u16_get_val_Temp + 1)
00019f   15a8     movra   0x28             	MOVRA	(_u16_temp_val + 1)
0001a0   3c03     bclr    0x3, 0           	BCLR	STATUS,0
0001a1   14a7     rlr     0x27             	RLR	_u16_temp_val
0001a2   14a8     rlr     0x28             	RLR	(_u16_temp_val + 1)
                                           ;	.line	430; "MC30P8160.c"	u16_temp_val -= u16_get_val_Temp;
0001a3   1629     movar   0x29             	MOVAR	_u16_get_val_Temp
0001a4   12a7     rsubra  0x27             	RSUBRA	_u16_temp_val
0001a5   162a     movar   0x2a             	MOVAR	(_u16_get_val_Temp + 1)
0001a6   3003     jbset   0x3, 0           	JBSET	STATUS,0
0001a7   182a     jzar    0x2a             	JZAR	(_u16_get_val_Temp + 1)
0001a8   12a8     rsubra  0x28             	RSUBRA	(_u16_temp_val + 1)
                                           ;	.line	431; "MC30P8160.c"	u16_temp_val += u16_get_val;
0001a9   161f     movar   0x1f             	MOVAR	_u16_get_val
0001aa   1fa7     addra   0x27             	ADDRA	_u16_temp_val
0001ab   1620     movar   0x20             	MOVAR	(_u16_get_val + 1)
0001ac   3403     jbclr   0x3, 0           	JBCLR	STATUS,0
0001ad   1820     jzar    0x20             	JZAR	(_u16_get_val + 1)
0001ae   1fa8     addra   0x28             	ADDRA	(_u16_temp_val + 1)
                                           ;;shiftRight_Left2ResultLit:5339: shCount=1, size=2, sign=0, same=0, offr=0
                                           ;	.line	432; "MC30P8160.c"	u16_get_val_Temp = u16_temp_val >> 2;
0001af   3c03     bclr    0x3, 0           	BCLR	STATUS,0
0001b0   1328     rrar    0x28             	RRAR	(_u16_temp_val + 1)
0001b1   15aa     movra   0x2a             	MOVRA	(_u16_get_val_Temp + 1)
0001b2   1327     rrar    0x27             	RRAR	_u16_temp_val
0001b3   15a9     movra   0x29             	MOVRA	_u16_get_val_Temp
                                           ;;shiftRight_Left2ResultLit:5339: shCount=1, size=2, sign=0, same=1, offr=0
0001b4   3c03     bclr    0x3, 0           	BCLR	STATUS,0
0001b5   13aa     rrr     0x2a             	RRR	(_u16_get_val_Temp + 1)
0001b6   13a9     rrr     0x29             	RRR	_u16_get_val_Temp
                                           ;	.line	434; "MC30P8160.c"	u16_get_val = u16_get_val_Temp;
0001b7   1629     movar   0x29             	MOVAR	_u16_get_val_Temp
0001b8   159f     movra   0x1f             	MOVRA	_u16_get_val
0001b9   162a     movar   0x2a             	MOVAR	(_u16_get_val_Temp + 1)
0001ba   15a0     movra   0x20             	MOVRA	(_u16_get_val + 1)
                                           ;	.line	436; "MC30P8160.c"	if(Pre_T_Key0_Release) 
0001bb   30b4     jbset   0x34, 0x1        	JBSET	_flag1,1
0001bc   2a42     goto    0x242            	GOTO	_00233_DS_
                                           ;	.line	438; "MC30P8160.c"	u16_Press_val = u16_get_val + Const_SEN_T_Key0;
0001bd   0b32     movai   0x32             	MOVAI	0x32
0001be   1f1f     addar   0x1f             	ADDAR	_u16_get_val
0001bf   15a1     movra   0x21             	MOVRA	_u16_Press_val
0001c0   1da2     clrr    0x22             	CLRR	(_u16_Press_val + 1)
0001c1   14a2     rlr     0x22             	RLR	(_u16_Press_val + 1)
0001c2   1620     movar   0x20             	MOVAR	(_u16_get_val + 1)
0001c3   1fa2     addra   0x22             	ADDRA	(_u16_Press_val + 1)
                                           ;	.line	440; "MC30P8160.c"	if(u16_Press_val < u16_TK0_environment_val)	 //按下
0001c4   162e     movar   0x2e             	MOVAR	(_u16_TK0_environment_val + 1)
0001c5   1222     rsubar  0x22             	RSUBAR	(_u16_Press_val + 1)
0001c6   3103     jbset   0x3, 0x2         	JBSET	STATUS,2
0001c7   29ca     goto    0x1ca            	GOTO	_00298_DS_
0001c8   162d     movar   0x2d             	MOVAR	_u16_TK0_environment_val
0001c9   1221     rsubar  0x21             	RSUBAR	_u16_Press_val
                                           _00298_DS_
0001ca   3403     jbclr   0x3, 0           	JBCLR	STATUS,0
0001cb   29df     goto    0x1df            	GOTO	_00222_DS_
                                           ;;genSkipc:3291: created from rifx:013B5EFC
                                           ;	.line	442; "MC30P8160.c"	SleepCnt = 0xFF;
0001cc   0bff     movai   0xff             	MOVAI	0xff
0001cd   15b8     movra   0x38             	MOVRA	_SleepCnt
                                           ;	.line	443; "MC30P8160.c"	FilterCnt_TK0 ++;
0001ce   19b7     incr    0x37             	INCR	_FilterCnt_TK0
                                           ;;unsigned compare: left < lit(0x8=8), size=1
                                           ;	.line	444; "MC30P8160.c"	if(FilterCnt_TK0 >= FilterCnt_Value)
0001cf   0b08     movai   0x8              	MOVAI	0x08
0001d0   1237     rsubar  0x37             	RSUBAR	_FilterCnt_TK0
0001d1   3003     jbset   0x3, 0           	JBSET	STATUS,0
0001d2   2a7a     goto    0x27a            	GOTO	_00235_DS_
                                           ;;genSkipc:3291: created from rifx:013B5EFC
                                           ;	.line	446; "MC30P8160.c"	T_Key0_Signal = 1;     	   	   	   	
0001d3   3834     bset    0x34, 0          	BSET	_flag1,0
                                           ;	.line	447; "MC30P8160.c"	Pre_T_Key0_Release = 0;
0001d4   3cb4     bclr    0x34, 0x1        	BCLR	_flag1,1
                                           ;	.line	448; "MC30P8160.c"	u16_release_val_TK0 = u16_TK0_environment_val - Const_SEN_T_Key0; //   	   	   	   	
0001d5   0bce     movai   0xce             	MOVAI	0xce
0001d6   1f2d     addar   0x2d             	ADDAR	_u16_TK0_environment_val
0001d7   15a5     movra   0x25             	MOVRA	_u16_release_val_TK0
0001d8   0bff     movai   0xff             	MOVAI	0xff
0001d9   15a6     movra   0x26             	MOVRA	(_u16_release_val_TK0 + 1)
0001da   162e     movar   0x2e             	MOVAR	(_u16_TK0_environment_val + 1)
0001db   3403     jbclr   0x3, 0           	JBCLR	STATUS,0
0001dc   182e     jzar    0x2e             	JZAR	(_u16_TK0_environment_val + 1)
0001dd   1fa6     addra   0x26             	ADDRA	(_u16_release_val_TK0 + 1)
0001de   2a7a     goto    0x27a            	GOTO	_00235_DS_
                                           _00222_DS_
                                           ;	.line	453; "MC30P8160.c"	FilterCnt_TK0 = 0;
0001df   1db7     clrr    0x37             	CLRR	_FilterCnt_TK0
                                           ;	.line	454; "MC30P8160.c"	if(SleepCnt)
0001e0   0b00     movai   0                	MOVAI	0x00
0001e1   1738     orar    0x38             	ORAR	_SleepCnt
0001e2   3503     jbclr   0x3, 0x2         	JBCLR	STATUS,2
0001e3   2a25     goto    0x225            	GOTO	_00215_DS_
                                           ;	.line	456; "MC30P8160.c"	if(TK0_Filter_Flag)
0001e4   31b4     jbset   0x34, 0x3        	JBSET	_flag1,3
0001e5   29e8     goto    0x1e8            	GOTO	_00208_DS_
                                           ;	.line	458; "MC30P8160.c"	TK0_Filter_Flag = 0;
0001e6   3db4     bclr    0x34, 0x3        	BCLR	_flag1,3
0001e7   29fe     goto    0x1fe            	GOTO	_00209_DS_
                                           _00208_DS_
                                           ;	.line	462; "MC30P8160.c"	TK0_Filter_Flag = 1;
0001e8   39b4     bset    0x34, 0x3        	BSET	_flag1,3
                                           ;	.line	463; "MC30P8160.c"	u16_TK0_environment_val_Sum += u16_get_val;
0001e9   161f     movar   0x1f             	MOVAR	_u16_get_val
0001ea   159c     movra   0x1c             	MOVRA	r0x1022
0001eb   1620     movar   0x20             	MOVAR	(_u16_get_val + 1)
0001ec   159b     movra   0x1b             	MOVRA	r0x1023
0001ed   1d9d     clrr    0x1d             	CLRR	r0x1025
0001ee   1d9e     clrr    0x1e             	CLRR	r0x1024
0001ef   161c     movar   0x1c             	MOVAR	r0x1022
0001f0   1f97     addra   0x17             	ADDRA	_u16_TK0_environment_val_Sum
0001f1   161b     movar   0x1b             	MOVAR	r0x1023
0001f2   3403     jbclr   0x3, 0           	JBCLR	STATUS,0
0001f3   181b     jzar    0x1b             	JZAR	r0x1023
0001f4   1f98     addra   0x18             	ADDRA	(_u16_TK0_environment_val_Sum + 1)
0001f5   161d     movar   0x1d             	MOVAR	r0x1025
0001f6   3403     jbclr   0x3, 0           	JBCLR	STATUS,0
0001f7   181d     jzar    0x1d             	JZAR	r0x1025
0001f8   1f99     addra   0x19             	ADDRA	(_u16_TK0_environment_val_Sum + 2)
0001f9   161e     movar   0x1e             	MOVAR	r0x1024
0001fa   3403     jbclr   0x3, 0           	JBCLR	STATUS,0
0001fb   181e     jzar    0x1e             	JZAR	r0x1024
0001fc   1f9a     addra   0x1a             	ADDRA	(_u16_TK0_environment_val_Sum + 3)
                                           ;	.line	464; "MC30P8160.c"	TK0_Filter_Cnt++;
0001fd   19b6     incr    0x36             	INCR	_TK0_Filter_Cnt
                                           ;;swapping arguments (AOP_TYPEs 1/3)
                                           ;;unsigned compare: left >= lit(0x10=16), size=1
                                           _00209_DS_
                                           ;	.line	467; "MC30P8160.c"	if(TK0_Filter_Cnt > 15)
0001fe   0b10     movai   0x10             	MOVAI	0x10
0001ff   1236     rsubar  0x36             	RSUBAR	_TK0_Filter_Cnt
000200   3003     jbset   0x3, 0           	JBSET	STATUS,0
000201   2a2e     goto    0x22e            	GOTO	_00216_DS_
                                           ;;genSkipc:3291: created from rifx:013B5EFC
                                           ;	.line	469; "MC30P8160.c"	TK0_Filter_Cnt = 0;
000202   1db6     clrr    0x36             	CLRR	_TK0_Filter_Cnt
                                           ;	.line	470; "MC30P8160.c"	u16_TK0_environment_val = u16_TK0_environment_val_Sum >> 4;
000203   1117     swapar  0x17             	SWAPAR	_u16_TK0_environment_val_Sum
000204   0d0f     andai   0xf              	ANDAI	0x0f
000205   159c     movra   0x1c             	MOVRA	r0x1022
000206   1118     swapar  0x18             	SWAPAR	(_u16_TK0_environment_val_Sum + 1)
000207   159b     movra   0x1b             	MOVRA	r0x1023
000208   0df0     andai   0xf0             	ANDAI	0xf0
000209   179c     orra    0x1c             	ORRA	r0x1022
00020a   109b     xorra   0x1b             	XORRA	r0x1023
00020b   1119     swapar  0x19             	SWAPAR	(_u16_TK0_environment_val_Sum + 2)
00020c   159d     movra   0x1d             	MOVRA	r0x1025
00020d   0df0     andai   0xf0             	ANDAI	0xf0
00020e   179b     orra    0x1b             	ORRA	r0x1023
00020f   109d     xorra   0x1d             	XORRA	r0x1025
000210   111a     swapar  0x1a             	SWAPAR	(_u16_TK0_environment_val_Sum + 3)
000211   159e     movra   0x1e             	MOVRA	r0x1024
000212   0df0     andai   0xf0             	ANDAI	0xf0
000213   179d     orra    0x1d             	ORRA	r0x1025
000214   109e     xorra   0x1e             	XORRA	r0x1024
000215   161c     movar   0x1c             	MOVAR	r0x1022
000216   15ad     movra   0x2d             	MOVRA	_u16_TK0_environment_val
000217   161b     movar   0x1b             	MOVAR	r0x1023
000218   15ae     movra   0x2e             	MOVRA	(_u16_TK0_environment_val + 1)
                                           ;	.line	471; "MC30P8160.c"	u16_TK0_environment_val_Sum = 0;
000219   1d97     clrr    0x17             	CLRR	_u16_TK0_environment_val_Sum
00021a   1d98     clrr    0x18             	CLRR	(_u16_TK0_environment_val_Sum + 1)
00021b   1d99     clrr    0x19             	CLRR	(_u16_TK0_environment_val_Sum + 2)
00021c   1d9a     clrr    0x1a             	CLRR	(_u16_TK0_environment_val_Sum + 3)
                                           ;	.line	472; "MC30P8160.c"	if(TK0_Release_Flag)
00021d   3134     jbset   0x34, 0x2        	JBSET	_flag1,2
00021e   2a2e     goto    0x22e            	GOTO	_00216_DS_
                                           ;	.line	474; "MC30P8160.c"	TK0_Release_Flag = 0;
00021f   3d34     bclr    0x34, 0x2        	BCLR	_flag1,2
                                           ;	.line	475; "MC30P8160.c"	u16_TK0_environment_val = u16_get_val;
000220   161f     movar   0x1f             	MOVAR	_u16_get_val
000221   15ad     movra   0x2d             	MOVRA	_u16_TK0_environment_val
000222   1620     movar   0x20             	MOVAR	(_u16_get_val + 1)
000223   15ae     movra   0x2e             	MOVRA	(_u16_TK0_environment_val + 1)
000224   2a2e     goto    0x22e            	GOTO	_00216_DS_
                                           _00215_DS_
                                           ;	.line	481; "MC30P8160.c"	u16_TK0_environment_val = u16_get_val;
000225   161f     movar   0x1f             	MOVAR	_u16_get_val
000226   15ad     movra   0x2d             	MOVRA	_u16_TK0_environment_val
000227   1620     movar   0x20             	MOVAR	(_u16_get_val + 1)
000228   15ae     movra   0x2e             	MOVRA	(_u16_TK0_environment_val + 1)
                                           ;	.line	482; "MC30P8160.c"	u16_TK0_environment_val_Sum = 0;
000229   1d97     clrr    0x17             	CLRR	_u16_TK0_environment_val_Sum
00022a   1d98     clrr    0x18             	CLRR	(_u16_TK0_environment_val_Sum + 1)
00022b   1d99     clrr    0x19             	CLRR	(_u16_TK0_environment_val_Sum + 2)
00022c   1d9a     clrr    0x1a             	CLRR	(_u16_TK0_environment_val_Sum + 3)
                                           ;	.line	483; "MC30P8160.c"	TK0_Filter_Cnt = 0;
00022d   1db6     clrr    0x36             	CLRR	_TK0_Filter_Cnt
                                           _00216_DS_
                                           ;	.line	486; "MC30P8160.c"	if(TK0_Release_Flag == 1)
00022e   1d9c     clrr    0x1c             	CLRR	r0x1022
00022f   3534     jbclr   0x34, 0x2        	JBCLR	_flag1,2
000230   199c     incr    0x1c             	INCR	r0x1022
000231   161c     movar   0x1c             	MOVAR	r0x1022
000232   0801     xorai   0x1              	XORAI	0x01
000233   3103     jbset   0x3, 0x2         	JBSET	STATUS,2
000234   2a7a     goto    0x27a            	GOTO	_00235_DS_
                                           ;	.line	488; "MC30P8160.c"	if(u16_get_val > u16_TK0_environment_val)
000235   1620     movar   0x20             	MOVAR	(_u16_get_val + 1)
000236   122e     rsubar  0x2e             	RSUBAR	(_u16_TK0_environment_val + 1)
000237   3103     jbset   0x3, 0x2         	JBSET	STATUS,2
000238   2a3b     goto    0x23b            	GOTO	_00301_DS_
000239   161f     movar   0x1f             	MOVAR	_u16_get_val
00023a   122d     rsubar  0x2d             	RSUBAR	_u16_TK0_environment_val
                                           _00301_DS_
00023b   3403     jbclr   0x3, 0           	JBCLR	STATUS,0
00023c   2a7a     goto    0x27a            	GOTO	_00235_DS_
                                           ;;genSkipc:3291: created from rifx:013B5EFC
                                           ;	.line	490; "MC30P8160.c"	u16_TK0_environment_val = u16_get_val;
00023d   161f     movar   0x1f             	MOVAR	_u16_get_val
00023e   15ad     movra   0x2d             	MOVRA	_u16_TK0_environment_val
00023f   1620     movar   0x20             	MOVAR	(_u16_get_val + 1)
000240   15ae     movra   0x2e             	MOVRA	(_u16_TK0_environment_val + 1)
000241   2a7a     goto    0x27a            	GOTO	_00235_DS_
                                           _00233_DS_
                                           ;	.line	497; "MC30P8160.c"	if(u16_get_val < u16_get_val_Min)
000242   162c     movar   0x2c             	MOVAR	(_u16_get_val_Min + 1)
000243   1220     rsubar  0x20             	RSUBAR	(_u16_get_val + 1)
000244   3103     jbset   0x3, 0x2         	JBSET	STATUS,2
000245   2a48     goto    0x248            	GOTO	_00302_DS_
000246   162b     movar   0x2b             	MOVAR	_u16_get_val_Min
000247   121f     rsubar  0x1f             	RSUBAR	_u16_get_val
                                           _00302_DS_
000248   3403     jbclr   0x3, 0           	JBCLR	STATUS,0
000249   2a4e     goto    0x24e            	GOTO	_00225_DS_
                                           ;;genSkipc:3291: created from rifx:013B5EFC
                                           ;	.line	499; "MC30P8160.c"	u16_get_val_Min = u16_get_val;
00024a   161f     movar   0x1f             	MOVAR	_u16_get_val
00024b   15ab     movra   0x2b             	MOVRA	_u16_get_val_Min
00024c   1620     movar   0x20             	MOVAR	(_u16_get_val + 1)
00024d   15ac     movra   0x2c             	MOVRA	(_u16_get_val_Min + 1)
                                           _00225_DS_
                                           ;	.line	502; "MC30P8160.c"	u16_temp_val = u16_release_val_TK0 + Const_SEN_T_Key0 + u16_get_val_Min;
00024e   0b32     movai   0x32             	MOVAI	0x32
00024f   1f25     addar   0x25             	ADDAR	_u16_release_val_TK0
000250   159c     movra   0x1c             	MOVRA	r0x1022
000251   1d9b     clrr    0x1b             	CLRR	r0x1023
000252   149b     rlr     0x1b             	RLR	r0x1023
000253   1626     movar   0x26             	MOVAR	(_u16_release_val_TK0 + 1)
000254   1f9b     addra   0x1b             	ADDRA	r0x1023
000255   162b     movar   0x2b             	MOVAR	_u16_get_val_Min
000256   1f1c     addar   0x1c             	ADDAR	r0x1022
000257   15a7     movra   0x27             	MOVRA	_u16_temp_val
000258   161b     movar   0x1b             	MOVAR	r0x1023
000259   15a8     movra   0x28             	MOVRA	(_u16_temp_val + 1)
00025a   162c     movar   0x2c             	MOVAR	(_u16_get_val_Min + 1)
00025b   3403     jbclr   0x3, 0           	JBCLR	STATUS,0
00025c   182c     jzar    0x2c             	JZAR	(_u16_get_val_Min + 1)
00025d   1fa8     addra   0x28             	ADDRA	(_u16_temp_val + 1)
                                           ;;shiftRight_Left2ResultLit:5339: shCount=1, size=2, sign=0, same=1, offr=0
                                           ;	.line	503; "MC30P8160.c"	u16_temp_val = u16_temp_val >> 1;
00025e   3c03     bclr    0x3, 0           	BCLR	STATUS,0
00025f   13a8     rrr     0x28             	RRR	(_u16_temp_val + 1)
000260   13a7     rrr     0x27             	RRR	_u16_temp_val
                                           ;	.line	505; "MC30P8160.c"	if(u16_get_val > u16_release_val_TK0 || u16_get_val > u16_temp_val)	//松开
000261   1620     movar   0x20             	MOVAR	(_u16_get_val + 1)
000262   1226     rsubar  0x26             	RSUBAR	(_u16_release_val_TK0 + 1)
000263   3103     jbset   0x3, 0x2         	JBSET	STATUS,2
000264   2a67     goto    0x267            	GOTO	_00303_DS_
000265   161f     movar   0x1f             	MOVAR	_u16_get_val
000266   1225     rsubar  0x25             	RSUBAR	_u16_release_val_TK0
                                           _00303_DS_
000267   3003     jbset   0x3, 0           	JBSET	STATUS,0
000268   2a71     goto    0x271            	GOTO	_00228_DS_
                                           ;;genSkipc:3291: created from rifx:013B5EFC
000269   1620     movar   0x20             	MOVAR	(_u16_get_val + 1)
00026a   1228     rsubar  0x28             	RSUBAR	(_u16_temp_val + 1)
00026b   3103     jbset   0x3, 0x2         	JBSET	STATUS,2
00026c   2a6f     goto    0x26f            	GOTO	_00304_DS_
00026d   161f     movar   0x1f             	MOVAR	_u16_get_val
00026e   1227     rsubar  0x27             	RSUBAR	_u16_temp_val
                                           _00304_DS_
00026f   3403     jbclr   0x3, 0           	JBCLR	STATUS,0
000270   2a79     goto    0x279            	GOTO	_00229_DS_
                                           ;;genSkipc:3291: created from rifx:013B5EFC
                                           _00228_DS_
                                           ;	.line	507; "MC30P8160.c"	FilterCnt_TK0 ++;
000271   19b7     incr    0x37             	INCR	_FilterCnt_TK0
                                           ;;unsigned compare: left < lit(0x4=4), size=1
                                           ;	.line	508; "MC30P8160.c"	if(FilterCnt_TK0 >= 4) //触摸松开滤波 20ms
000272   0b04     movai   0x4              	MOVAI	0x04
000273   1237     rsubar  0x37             	RSUBAR	_FilterCnt_TK0
000274   3003     jbset   0x3, 0           	JBSET	STATUS,0
000275   2a7a     goto    0x27a            	GOTO	_00235_DS_
                                           ;;genSkipc:3291: created from rifx:013B5EFC
                                           ;	.line	510; "MC30P8160.c"	FilterCnt_TK0 = 0;
000276   1db7     clrr    0x37             	CLRR	_FilterCnt_TK0
                                           ;	.line	511; "MC30P8160.c"	TK0_release_();
000277   227b     call    0x27b            	CALL	_TK0_release_
000278   2a7a     goto    0x27a            	GOTO	_00235_DS_
                                           _00229_DS_
                                           ;	.line	516; "MC30P8160.c"	FilterCnt_TK0 = 0;
000279   1db7     clrr    0x37             	CLRR	_FilterCnt_TK0
                                           _00235_DS_
                                           ;	.line	519; "MC30P8160.c"	}
00027a   000c     return                   	RETURN	
                                           ; exit point of _TK0_Scan
                                           
                                           ;***
                                           ;  pBlock Stats: dbName = C
                                           ;***
                                           ;entry:  _TK0_release_	;Function start
                                           ; 2 exit points
                                           ;has an exit
                                           ;; Starting pCode block
                                           _TK0_release_	;Function start
                                           ; 2 exit points
                                           ;	.line	389; "MC30P8160.c"	T_Key0_Signal = 0;
00027b   3c34     bclr    0x34, 0          	BCLR	_flag1,0
                                           ;	.line	391; "MC30P8160.c"	Pre_T_Key0_Release = 1;	   	   	   	   	
00027c   38b4     bset    0x34, 0x1        	BSET	_flag1,1
                                           ;	.line	392; "MC30P8160.c"	u16_TK0_environment_val = u16_get_val;
00027d   161f     movar   0x1f             	MOVAR	_u16_get_val
00027e   15ad     movra   0x2d             	MOVRA	_u16_TK0_environment_val
00027f   1620     movar   0x20             	MOVAR	(_u16_get_val + 1)
000280   15ae     movra   0x2e             	MOVRA	(_u16_TK0_environment_val + 1)
                                           ;	.line	393; "MC30P8160.c"	TK0_Filter_Cnt = 0;
000281   1db6     clrr    0x36             	CLRR	_TK0_Filter_Cnt
                                           ;	.line	394; "MC30P8160.c"	u16_TK0_environment_val_Sum = 0;
000282   1d97     clrr    0x17             	CLRR	_u16_TK0_environment_val_Sum
000283   1d98     clrr    0x18             	CLRR	(_u16_TK0_environment_val_Sum + 1)
000284   1d99     clrr    0x19             	CLRR	(_u16_TK0_environment_val_Sum + 2)
000285   1d9a     clrr    0x1a             	CLRR	(_u16_TK0_environment_val_Sum + 3)
                                           ;	.line	396; "MC30P8160.c"	TK0_Release_Flag = 1;
000286   3934     bset    0x34, 0x2        	BSET	_flag1,2
                                           ;	.line	397; "MC30P8160.c"	u16_get_val_Min = 0xFFFF;
000287   0bff     movai   0xff             	MOVAI	0xff
000288   15ab     movra   0x2b             	MOVRA	_u16_get_val_Min
000289   15ac     movra   0x2c             	MOVRA	(_u16_get_val_Min + 1)
                                           ;	.line	398; "MC30P8160.c"	}
00028a   000c     return                   	RETURN	
                                           ; exit point of _TK0_release_
                                           
                                           ;***
                                           ;  pBlock Stats: dbName = C
                                           ;***
                                           ;entry:  _TK0_Init	;Function start
                                           ; 2 exit points
                                           ;has an exit
                                           ;; Starting pCode block
                                           _TK0_Init	;Function start
                                           ; 2 exit points
                                           ;	.line	360; "MC30P8160.c"	TKCR1 = 0x00; // 关闭触摸
00028b   1dec     clrr    0x6c             	CLRR	_TKCR1
                                           ;	.line	361; "MC30P8160.c"	TKCNTH = 0;
00028c   1dee     clrr    0x6e             	CLRR	_TKCNTH
                                           ;	.line	362; "MC30P8160.c"	TKCNTL = 0;
00028d   1def     clrr    0x6f             	CLRR	_TKCNTL
                                           ;	.line	364; "MC30P8160.c"	T2MOD = 1;   // 单次计时模式（触摸模式）
00028e   3b60     bset    0x60, 0x6        	BSET	_T2CRbits,6
                                           ;	.line	366; "MC30P8160.c"	T2CR = 0x4A;   // 01_0_01_010 FOSC 16M 4分频 4M
00028f   0b4a     movai   0x4a             	MOVAI	0x4a
000290   15e0     movra   0x60             	MOVRA	_T2CR
                                           ;	.line	373; "MC30P8160.c"	TKCR1 &= 0xFC; // 写0000_0000 bit0-1: 00 TK0 选择相应按键输入通道
000291   0bfc     movai   0xfc             	MOVAI	0xfc
000292   1eec     andra   0x6c             	ANDRA	_TKCR1
                                           ;	.line	374; "MC30P8160.c"	TKCR0 = 0xF4;  // 写1111_0000 bit0-3: 000 TK0 选择 4.8MHz
000293   0bf4     movai   0xf4             	MOVAI	0xf4
000294   15eb     movra   0x6b             	MOVRA	_TKCR0
                                           ;	.line	377; "MC30P8160.c"	TKCFL = 1; 	   // TKM 计数时钟滤波时间（典型值）为 50ns；
000295   3aeb     bset    0x6b, 0x5        	BSET	_TKCR0bits,5
                                           ;	.line	380; "MC30P8160.c"	TKFJE = 0; 	// 关闭 TKM 自动跳频功能
000296   3deb     bclr    0x6b, 0x3        	BCLR	_TKCR0bits,3
                                           ;	.line	381; "MC30P8160.c"	T2EN = 1;  	// 开启定时器 T2
000297   3be0     bset    0x60, 0x7        	BSET	_T2CRbits,7
                                           ;	.line	382; "MC30P8160.c"	TKCON = 1; 	// 允许 TKM 电容充放计数
000298   3b6b     bset    0x6b, 0x6        	BSET	_TKCR0bits,6
                                           ;	.line	383; "MC30P8160.c"	TKEN = 1;  	// 开启 TKM  	   	  
000299   3beb     bset    0x6b, 0x7        	BSET	_TKCR0bits,7
                                           ;	.line	384; "MC30P8160.c"	}
00029a   000c     return                   	RETURN	
                                           ; exit point of _TK0_Init
                                           
                                           ;***
                                           ;  pBlock Stats: dbName = C
                                           ;***
                                           ;entry:  _TOUCH_Init	;Function start
                                           ; 2 exit points
                                           ;has an exit
                                           ;; Starting pCode block
                                           _TOUCH_Init	;Function start
                                           ; 2 exit points
                                           ;	.line	355; "MC30P8160.c"	__endasm;
00029b   3dd8     bclr    0x58, 0x3        	BCLR	TMRCR,3
00029c   0b00     movai   0                	MOVAI	00000000B
00029d   15eb     movra   0x6b             	MOVRA	TKCR0
00029e   0bff     movai   0xff             	MOVAI	11111111B
00029f   15ed     movra   0x6d             	MOVRA	TKCR2
0002a0   000c     return                   	RETURN
                                           ;	.line	356; "MC30P8160.c"	}
0002a1   000c     return                   	RETURN	
                                           ; exit point of _TOUCH_Init
                                           
                                           ;***
                                           ;  pBlock Stats: dbName = C
                                           ;***
                                           ;entry:  _TK_Sens_Threshold_value_Detection	;Function start
                                           ; 2 exit points
                                           ;has an exit
                                           ;functions called:
                                           ;   _Delay_us
                                           ;   _Delay_us
                                           ;; Starting pCode block
                                           _TK_Sens_Threshold_value_Detection	;Function start
                                           ; 2 exit points
                                           ;	.line	294; "MC30P8160.c"	u16_temp_val = 0;
0002a2   1da7     clrr    0x27             	CLRR	_u16_temp_val
0002a3   1da8     clrr    0x28             	CLRR	(_u16_temp_val + 1)
                                           ;	.line	296; "MC30P8160.c"	DDR1 &= 0xDF; // P15 设输出 0 输出
0002a4   3ed6     bclr    0x56, 0x5        	BCLR	_DDR1,5
                                           ;	.line	297; "MC30P8160.c"	PUCON |= 0x20; //  1：端口内部上拉电阻无效；  0：端口内部上拉电阻有效
0002a5   3a8d     bset    0xd, 0x5         	BSET	_PUCON,5
                                           ;	.line	301; "MC30P8160.c"	Delay_us(0xff); //
0002a6   0bff     movai   0xff             	MOVAI	0xff
0002a7   230c     call    0x30c            	CALL	_Delay_us
                                           ;	.line	302; "MC30P8160.c"	DDR1 |= 0x20; // P15 设输出  1 输入     	
0002a8   3ad6     bset    0x56, 0x5        	BSET	_DDR1,5
                                           ;	.line	303; "MC30P8160.c"	P1ADCR &= 0xDF;   //  0 使能端口的数字 I/O 功能； 1 关闭端口的数字 I/O 功能；
0002a9   3ee7     bclr    0x67, 0x5        	BCLR	_P1ADCR,5
                                           ;	.line	304; "MC30P8160.c"	PUCON &= 0xDF; 	  //  1：端口内部上拉电阻无效；    0：端口内部上拉电阻有效
0002aa   3e8d     bclr    0xd, 0x5         	BCLR	_PUCON,5
                                           _00139_DS_
                                           ;	.line	306; "MC30P8160.c"	while(P15D == 0)
0002ab   3686     jbclr   0x6, 0x5         	JBCLR	_P1bits,5
0002ac   2ab1     goto    0x2b1            	GOTO	_00141_DS_
                                           ;	.line	308; "MC30P8160.c"	u16_temp_val ++;
0002ad   19a7     incr    0x27             	INCR	_u16_temp_val
0002ae   3503     jbclr   0x3, 0x2         	JBCLR	STATUS,2
0002af   19a8     incr    0x28             	INCR	(_u16_temp_val + 1)
0002b0   2aab     goto    0x2ab            	GOTO	_00139_DS_
                                           ;;swapping arguments (AOP_TYPEs 1/3)
                                           ;;unsigned compare: left >= lit(0x191=401), size=2
                                           _00141_DS_
                                           ;	.line	312; "MC30P8160.c"	if(u16_temp_val > 400) // 100nF    	   	高灵敏度
0002b1   0b01     movai   0x1              	MOVAI	0x01
0002b2   1228     rsubar  0x28             	RSUBAR	(_u16_temp_val + 1)
0002b3   3103     jbset   0x3, 0x2         	JBSET	STATUS,2
0002b4   2ab7     goto    0x2b7            	GOTO	_00180_DS_
0002b5   0b91     movai   0x91             	MOVAI	0x91
0002b6   1227     rsubar  0x27             	RSUBAR	_u16_temp_val
                                           _00180_DS_
0002b7   3003     jbset   0x3, 0           	JBSET	STATUS,0
0002b8   2abc     goto    0x2bc            	GOTO	_00152_DS_
                                           ;;genSkipc:3291: created from rifx:013B5EFC
                                           ;	.line	314; "MC30P8160.c"	T2LOADH = TK_SENS_LEVEL_H5;
0002b9   0b17     movai   0x17             	MOVAI	0x17
0002ba   15e3     movra   0x63             	MOVRA	_T2LOADH
0002bb   2adf     goto    0x2df            	GOTO	_00153_DS_
                                           ;;swapping arguments (AOP_TYPEs 1/3)
                                           ;;unsigned compare: left >= lit(0x51=81), size=2
                                           _00152_DS_
                                           ;	.line	316; "MC30P8160.c"	else if(u16_temp_val > 80) // 22或27nF   中灵敏度
0002bc   0b00     movai   0                	MOVAI	0x00
0002bd   1228     rsubar  0x28             	RSUBAR	(_u16_temp_val + 1)
0002be   3103     jbset   0x3, 0x2         	JBSET	STATUS,2
0002bf   2ac2     goto    0x2c2            	GOTO	_00181_DS_
0002c0   0b51     movai   0x51             	MOVAI	0x51
0002c1   1227     rsubar  0x27             	RSUBAR	_u16_temp_val
                                           _00181_DS_
0002c2   3003     jbset   0x3, 0           	JBSET	STATUS,0
0002c3   2ac7     goto    0x2c7            	GOTO	_00149_DS_
                                           ;;genSkipc:3291: created from rifx:013B5EFC
                                           ;	.line	318; "MC30P8160.c"	T2LOADH = TK_SENS_LEVEL_H4;
0002c4   0b12     movai   0x12             	MOVAI	0x12
0002c5   15e3     movra   0x63             	MOVRA	_T2LOADH
0002c6   2adf     goto    0x2df            	GOTO	_00153_DS_
                                           ;;swapping arguments (AOP_TYPEs 1/3)
                                           ;;unsigned compare: left >= lit(0x10=16), size=2
                                           _00149_DS_
                                           ;	.line	320; "MC30P8160.c"	else if(u16_temp_val > 15) // 4.7nF   中灵敏度
0002c7   0b00     movai   0                	MOVAI	0x00
0002c8   1228     rsubar  0x28             	RSUBAR	(_u16_temp_val + 1)
0002c9   3103     jbset   0x3, 0x2         	JBSET	STATUS,2
0002ca   2acd     goto    0x2cd            	GOTO	_00182_DS_
0002cb   0b10     movai   0x10             	MOVAI	0x10
0002cc   1227     rsubar  0x27             	RSUBAR	_u16_temp_val
                                           _00182_DS_
0002cd   3003     jbset   0x3, 0           	JBSET	STATUS,0
0002ce   2ad2     goto    0x2d2            	GOTO	_00146_DS_
                                           ;;genSkipc:3291: created from rifx:013B5EFC
                                           ;	.line	322; "MC30P8160.c"	T2LOADH = TK_SENS_LEVEL_H3;
0002cf   0b0e     movai   0xe              	MOVAI	0x0e
0002d0   15e3     movra   0x63             	MOVRA	_T2LOADH
0002d1   2adf     goto    0x2df            	GOTO	_00153_DS_
                                           ;;swapping arguments (AOP_TYPEs 1/3)
                                           ;;unsigned compare: left >= lit(0x3=3), size=2
                                           _00146_DS_
                                           ;	.line	324; "MC30P8160.c"	else if(u16_temp_val > 2) // 1nF   中灵敏度
0002d2   0b00     movai   0                	MOVAI	0x00
0002d3   1228     rsubar  0x28             	RSUBAR	(_u16_temp_val + 1)
0002d4   3103     jbset   0x3, 0x2         	JBSET	STATUS,2
0002d5   2ad8     goto    0x2d8            	GOTO	_00183_DS_
0002d6   0b03     movai   0x3              	MOVAI	0x03
0002d7   1227     rsubar  0x27             	RSUBAR	_u16_temp_val
                                           _00183_DS_
0002d8   3003     jbset   0x3, 0           	JBSET	STATUS,0
0002d9   2add     goto    0x2dd            	GOTO	_00143_DS_
                                           ;;genSkipc:3291: created from rifx:013B5EFC
                                           ;	.line	326; "MC30P8160.c"	T2LOADH = TK_SENS_LEVEL_H2;
0002da   0b0c     movai   0xc              	MOVAI	0x0c
0002db   15e3     movra   0x63             	MOVRA	_T2LOADH
0002dc   2adf     goto    0x2df            	GOTO	_00153_DS_
                                           _00143_DS_
                                           ;	.line	330; "MC30P8160.c"	T2LOADH = TK_SENS_LEVEL_H1;    	   	
0002dd   0b0a     movai   0xa              	MOVAI	0x0a
0002de   15e3     movra   0x63             	MOVRA	_T2LOADH
                                           _00153_DS_
                                           ;	.line	333; "MC30P8160.c"	T2LOADL = TK_SENS_LEVEL_L;
0002df   0bff     movai   0xff             	MOVAI	0xff
0002e0   15e4     movra   0x64             	MOVRA	_T2LOADL
                                           ;	.line	337; "MC30P8160.c"	}
0002e1   000c     return                   	RETURN	
                                           ; exit point of _TK_Sens_Threshold_value_Detection
                                           
                                           ;***
                                           ;  pBlock Stats: dbName = C
                                           ;***
                                           ;entry:  _IO_Init	;Function start
                                           ; 2 exit points
                                           ;has an exit
                                           ;; Starting pCode block
                                           _IO_Init	;Function start
                                           ; 2 exit points
                                           ;	.line	277; "MC30P8160.c"	P1 = 0x00; //  	P1nD C P1n 端口数据位（n=5-0）
0002e2   1d86     clrr    0x6              	CLRR	_P1
                                           ;	.line	280; "MC30P8160.c"	DDR1 = 0x33;   	   // DR1n C P1n 端口方向控制位（n=5-0）  0： 端口作为输出口
0002e3   0b33     movai   0x33             	MOVAI	0x33
0002e4   15d6     movra   0x56             	MOVRA	_DDR1
                                           ;	.line	284; "MC30P8160.c"	P1ADCR = 0x01;   // 0 使能端口的数字 I/O 功能； 1 关闭端口的数字 I/O 功能；
0002e5   0b01     movai   0x1              	MOVAI	0x01
0002e6   15e7     movra   0x67             	MOVRA	_P1ADCR
                                           ;	.line	286; "MC30P8160.c"	PUCON = 0xFF;  	 //  1：端口内部上拉电阻无效
0002e7   0bff     movai   0xff             	MOVAI	0xff
0002e8   158d     movra   0xd              	MOVRA	_PUCON
                                           ;	.line	287; "MC30P8160.c"	PDCON = 0xFF; //  1：端口内部下拉电阻无效；  0：端口内部下拉电阻有效  	  	
0002e9   0bff     movai   0xff             	MOVAI	0xff
0002ea   158b     movra   0xb              	MOVRA	_PDCON
                                           ;	.line	289; "MC30P8160.c"	ODCON = 0x00; // 0： 端口输出时为推挽输出   1 开漏输出  
0002eb   1d8c     clrr    0xc              	CLRR	_ODCON
                                           ;	.line	290; "MC30P8160.c"	}
0002ec   000c     return                   	RETURN	
                                           ; exit point of _IO_Init
                                           
                                           ;***
                                           ;  pBlock Stats: dbName = C
                                           ;***
                                           ;entry:  _T1_PWM_Init	;Function start
                                           ; 2 exit points
                                           ;has an exit
                                           ;; Starting pCode block
                                           _T1_PWM_Init	;Function start
                                           ; 2 exit points
                                           ;	.line	258; "MC30P8160.c"	T1CR = 0x8A;    // 100_01_001 使能T1、时钟为FOSC、4分频
0002ed   0b8a     movai   0x8a             	MOVAI	0x8a
0002ee   15d9     movra   0x59             	MOVRA	_T1CR
                                           ;	.line	259; "MC30P8160.c"	T1CNT = 255 - 1;
0002ef   0bfe     movai   0xfe             	MOVAI	0xfe
0002f0   15da     movra   0x5a             	MOVRA	_T1CNT
                                           ;	.line	260; "MC30P8160.c"	T1LOAD = 255 - 1;  	//16k
0002f1   0bfe     movai   0xfe             	MOVAI	0xfe
0002f2   15db     movra   0x5b             	MOVRA	_T1LOAD
                                           ;	.line	271; "MC30P8160.c"	}
0002f3   000c     return                   	RETURN	
                                           ; exit point of _T1_PWM_Init
                                           
                                           ;***
                                           ;  pBlock Stats: dbName = C
                                           ;***
                                           ;entry:  _T0_Time_Init	;Function start
                                           ; 2 exit points
                                           ;has an exit
                                           ;; Starting pCode block
                                           _T0_Time_Init	;Function start
                                           ; 2 exit points
                                           ;	.line	253; "MC30P8160.c"	__endasm;
0002f4   0b07     movai   0x7              	MOVAI	00000111B
0002f5   1589     movra   0x9              	MOVRA	T0CR
0002f6   0bf7     movai   0xf7             	MOVAI	247
0002f7   1d81     clrr    0x1              	CLRR	T0CNT
                                           ;	.line	254; "MC30P8160.c"	}
0002f8   000c     return                   	RETURN	
                                           ; exit point of _T0_Time_Init
                                           
                                           ;***
                                           ;  pBlock Stats: dbName = C
                                           ;***
                                           ;entry:  _Init_Sys	;Function start
                                           ; 2 exit points
                                           ;has an exit
                                           ;; Starting pCode block
                                           _Init_Sys	;Function start
                                           ; 2 exit points
                                           ;	.line	238; "MC30P8160.c"	__endasm;
                                           SET_OPTION:
0002f9   0b01     movai   0x1              	MOVAI	00000001B
0002fa   158e     movra   0xe              	MOVRA	INTE
0002fb   3b8e     bset    0xe, 0x7         	BSET	INTE,7
0002fc   0b00     movai   0                	MOVAI	0x00
0002fd   158f     movra   0xf              	MOVRA	INTF
0002fe   0b00     movai   0                	MOVAI	0x00
0002ff   15e5     movra   0x65             	MOVRA	P1KBCR
000300   000c     return                   	RETURN
                                           	
                                           ;	.line	239; "MC30P8160.c"	} 
000301   000c     return                   	RETURN	
                                           ; exit point of _Init_Sys
                                           
                                           ;***
                                           ;  pBlock Stats: dbName = C
                                           ;***
                                           ;entry:  _Clr_Ram	;Function start
                                           ; 2 exit points
                                           ;has an exit
                                           ;; Starting pCode block
                                           _Clr_Ram	;Function start
                                           ; 2 exit points
                                           ;	.line	183; "MC30P8160.c"	__endasm;
                                           CLR_RAM:
000302   0b4f     movai   0x4f             	MOVAI	0X4F
000303   1584     movra   0x4              	MOVRA	FSR
000304   0b3f     movai   0x3f             	MOVAI	0X3F
000305   15cf     movra   0x4f             	MOVRA	0X4F ;
                                           CLR_RAM_LOOP:
000306   1b84     decr    0x4              	DECR	FSR
000307   1d80     clrr    0                	CLRR	INDF
000308   1acf     djzr    0x4f             	DJZR	0X4F
000309   2b06     goto    0x306            	GOTO	CLR_RAM_LOOP
00030a   000c     return                   	RETURN
                                           	
                                           ;	.line	184; "MC30P8160.c"	}  
00030b   000c     return                   	RETURN	
                                           ; exit point of _Clr_Ram
                                           
                                           ;***
                                           ;  pBlock Stats: dbName = C
                                           ;***
                                           ;entry:  _Delay_us	;Function start
                                           ; 2 exit points
                                           ;has an exit
                                           ;2 compiler assigned registers:
                                           ;   r0x1022
                                           ;   r0x1023
                                           ;; Starting pCode block
                                           _Delay_us	;Function start
                                           ; 2 exit points
                                           ;	.line	108; "MC30P8160.c"	void Delay_us(unsigned char i)
00030c   159c     movra   0x1c             	MOVRA	r0x1022
                                           _00114_DS_
                                           ;	.line	110; "MC30P8160.c"	while(i--);
00030d   161c     movar   0x1c             	MOVAR	r0x1022
00030e   159b     movra   0x1b             	MOVRA	r0x1023
00030f   1b9c     decr    0x1c             	DECR	r0x1022
000310   0b00     movai   0                	MOVAI	0x00
000311   171b     orar    0x1b             	ORAR	r0x1023
000312   3103     jbset   0x3, 0x2         	JBSET	STATUS,2
000313   2b0d     goto    0x30d            	GOTO	_00114_DS_
                                           ;	.line	111; "MC30P8160.c"	}
000314   000c     return                   	RETURN	
                                           ; exit point of _Delay_us
                                           
                                           ;***
                                           ;  pBlock Stats: dbName = C
                                           ;***
                                           ;entry:  _Delay_us_2	;Function start
                                           ; 2 exit points
                                           ;has an exit
                                           ;3 compiler assigned registers:
                                           ;   r0x1022
                                           ;   STK00
                                           ;   r0x1023
                                           ;; Starting pCode block
                                           _Delay_us_2	;Function start
                                           ; 2 exit points
                                           ;	.line	101; "MC30P8160.c"	void Delay_us_2(uint16_t i)
000315   159c     movra   0x1c             	MOVRA	r0x1022
000316   1616     movar   0x16             	MOVAR	STK00
000317   159b     movra   0x1b             	MOVRA	r0x1023
                                           _00107_DS_
                                           ;	.line	103; "MC30P8160.c"	for(; i>0; i--)
000318   161b     movar   0x1b             	MOVAR	r0x1023
000319   171c     orar    0x1c             	ORAR	r0x1022
00031a   3503     jbclr   0x3, 0x2         	JBCLR	STATUS,2
00031b   2b22     goto    0x322            	GOTO	_00109_DS_
                                           ;	.line	105; "MC30P8160.c"	WDT_Clear();
00031c   000e     clrwdt                   	CLRWDT	
                                           ;	.line	103; "MC30P8160.c"	for(; i>0; i--)
00031d   0bff     movai   0xff             	MOVAI	0xff
00031e   1f9b     addra   0x1b             	ADDRA	r0x1023
00031f   3003     jbset   0x3, 0           	JBSET	STATUS,0
000320   1b9c     decr    0x1c             	DECR	r0x1022
000321   2b18     goto    0x318            	GOTO	_00107_DS_
                                           _00109_DS_
                                           ;	.line	107; "MC30P8160.c"	}
000322   000c     return                   	RETURN	
                                           ; exit point of _Delay_us_2
                                           
                                           
                                           ;	code size estimation:
                                           ;	  752+    0 =   752 instructions ( 1504 byte)
                                           
                                           	end
                                           ;--------------------------------------------------------
                                           ; File Created by SN-SDCC : SinoMCU ANSI-C Compiler
                                           ; Version 2.0.0 (Dec 11 2019) (MINGW32)
                                           ; This file was generated Thu Oct 31 13:32:13 2024
                                           ;--------------------------------------------------------
                                           ; MC30 port for the RISC core
                                           ;--------------------------------------------------------
                                           ;	.file	"MC30P8160.c"
                                           	list	p=1K8160
                                           	radix dec
                                           	include "1K8160.inc"
                                           ;--------------------------------------------------------
                                           ; external declarations
                                           ;--------------------------------------------------------
                                           	extern	_INDFbits
                                           	extern	_T0CNTbits
                                           	extern	_PCLbits
                                           	extern	_STATUSbits
                                           	extern	_FSRbits
                                           	extern	_P1bits
                                           	extern	_MCRbits
                                           	extern	_T0CRbits
                                           	extern	_PCLATHbits
                                           	extern	_PDCONbits
                                           	extern	_ODCONbits
                                           	extern	_PUCONbits
                                           	extern	_INTEbits
                                           	extern	_INTFbits
                                           	extern	_PWM1CR0bits
                                           	extern	_PWM1CR1bits
                                           	extern	_PWM1CR2bits
                                           	extern	_DDR1bits
                                           	extern	_TMRCRbits
                                           	extern	_T1CRbits
                                           	extern	_T1CNTbits
                                           	extern	_T1LOADbits
                                           	extern	_T1DATAbits
                                           	extern	_T1DATBbits
                                           	extern	_T1DATCbits
                                           	extern	_T1DATDbits
                                           	extern	_T2CRbits
                                           	extern	_T2CNTHbits
                                           	extern	_T2CNTLbits
                                           	extern	_T2LOADHbits
                                           	extern	_T2LOADLbits
                                           	extern	_P1KBCRbits
                                           	extern	_P1ADCRbits
                                           	extern	_CMPCR0bits
                                           	extern	_CMPCR1bits
                                           	extern	_CMPCR2bits
                                           	extern	_TKCR0bits
                                           	extern	_TKCR1bits
                                           	extern	_TKCR2bits
                                           	extern	_TKCNTHbits
                                           	extern	_TKCNTLbits
                                           	extern	_CTOUCH_FLAG
                                           	extern	_INDF
                                           	extern	_T0CNT
                                           	extern	_PCL
                                           	extern	_STATUS
                                           	extern	_FSR
                                           	extern	_P1
                                           	extern	_MCR
                                           	extern	_T0CR
                                           	extern	_PCLATH
                                           	extern	_PDCON
                                           	extern	_ODCON
                                           	extern	_PUCON
                                           	extern	_INTE
                                           	extern	_INTF
                                           	extern	_PWM1CR0
                                           	extern	_PWM1CR1
                                           	extern	_PWM1CR2
                                           	extern	_DDR1
                                           	extern	_TMRCR
                                           	extern	_T1CR
                                           	extern	_T1CNT
                                           	extern	_T1LOAD
                                           	extern	_T1DATA
                                           	extern	_T1DATB
                                           	extern	_T1DATC
                                           	extern	_T1DATD
                                           	extern	_T2CR
                                           	extern	_T2CNTH
                                           	extern	_T2CNTL
                                           	extern	_T2LOADH
                                           	extern	_T2LOADL
                                           	extern	_P1KBCR
                                           	extern	_P1ADCR
                                           	extern	_CMPCR0
                                           	extern	_CMPCR1
                                           	extern	_CMPCR2
                                           	extern	_TKCR0
                                           	extern	_TKCR1
                                           	extern	_TKCR2
                                           	extern	_TKCNTH
                                           	extern	_TKCNTL
                                           ;--------------------------------------------------------
                                           ; global declarations
                                           ;--------------------------------------------------------
                                           	global	_Delay_us_2
                                           	global	_Delay_us
                                           	global	_Clr_Ram
                                           	global	_Init_Sys
                                           	global	_T0_Time_Init
                                           	global	_T1_PWM_Init
                                           	global	_IO_Init
                                           	global	_TK_Sens_Threshold_value_Detection
                                           	global	_TOUCH_Init
                                           	global	_TK0_Init
                                           	global	_TK0_release_
                                           	global	_TK0_Scan
                                           	global	_PWM_Direction_Judgment
                                           	global	_T_Key_value_Read
                                           	global	_PWM_W_OFF
                                           	global	_PWM_Y_OFF
                                           	global	_LED_PWM_Control
                                           	global	_Power_Low_V_OFF
                                           	global	_TK_5S_Reset
                                           	global	_Sleep_mode
                                           	global	_CMP_Init
                                           	global	_main
                                           	global	_int_isr
                                           	global	_CSAVE_ACC
                                           	global	_CSAVE_STATUS
                                           	global	_CPLAY_FLAG
                                           	global	_flag1
                                           	global	_flag2
                                           	global	_u16_get_val
                                           	global	_u16_Press_val
                                           	global	_u16_release_val
                                           	global	_u16_release_val_TK0
                                           	global	_u16_temp_val
                                           	global	_u16_get_val_Temp
                                           	global	_u16_get_val_Min
                                           	global	_u16_TK0_environment_val
                                           	global	_u16_TK0_environment_val_Sum
                                           	global	_TK0_Filter_Cnt
                                           	global	_FilterCnt_TK0
                                           	global	_SleepCnt
                                           	global	_u16_TK_Reset_Cnt
                                           	global	_u8_WDT_18ms_Cnt
                                           	global	_PWM_Duty_W
                                           	global	_PWM_Duty_Y
                                           	global	_PWM_Duty_WY
                                           	global	_T_key_Value
                                           	global	_TK0_Key_Cnt
                                           	global	_Power_Low_V_OFF_Cnt
                                           	global	_T0_13ms_Cnt
                                           	global	_T0_5ms_Cnt
                                           	global	_uart_send_c
                                           
                                           	global STK06
                                           	global STK05
                                           	global STK04
                                           	global STK03
                                           	global STK02
                                           	global STK01
                                           	global STK00
                                           
                                           sharebank udata_ovr 0x0010
                                           STK06	res 1
                                           STK05	res 1
                                           STK04	res 1
                                           STK03	res 1
                                           STK02	res 1
                                           STK01	res 1
                                           STK00	res 1
                                           
                                           ;--------------------------------------------------------
                                           ; global definitions
                                           ;--------------------------------------------------------
                                           UD_MC30P8160_0	udata
                                           _CSAVE_ACC	res	1
                                           
                                           UD_MC30P8160_1	udata
                                           _CSAVE_STATUS	res	1
                                           
                                           UD_MC30P8160_2	udata
                                           _CPLAY_FLAG	res	1
                                           
                                           UD_MC30P8160_3	udata
                                           _flag1	res	1
                                           
                                           UD_MC30P8160_4	udata
                                           _flag2	res	1
                                           
                                           UD_MC30P8160_5	udata
                                           _u16_get_val	res	2
                                           
                                           UD_MC30P8160_6	udata
                                           _u16_Press_val	res	2
                                           
                                           UD_MC30P8160_7	udata
                                           _u16_release_val	res	2
                                           
                                           UD_MC30P8160_8	udata
                                           _u16_release_val_TK0	res	2
                                           
                                           UD_MC30P8160_9	udata
                                           _u16_temp_val	res	2
                                           
                                           UD_MC30P8160_10	udata
                                           _u16_get_val_Temp	res	2
                                           
                                           UD_MC30P8160_11	udata
                                           _u16_get_val_Min	res	2
                                           
                                           UD_MC30P8160_12	udata
                                           _u16_TK0_environment_val	res	2
                                           
                                           UD_MC30P8160_13	udata
                                           _u16_TK0_environment_val_Sum	res	4
                                           
                                           UD_MC30P8160_14	udata
                                           _TK0_Filter_Cnt	res	1
                                           
                                           UD_MC30P8160_15	udata
                                           _FilterCnt_TK0	res	1
                                           
                                           UD_MC30P8160_16	udata
                                           _SleepCnt	res	1
                                           
                                           UD_MC30P8160_17	udata
                                           _u16_TK_Reset_Cnt	res	2
                                           
                                           UD_MC30P8160_18	udata
                                           _u8_WDT_18ms_Cnt	res	1
                                           
                                           UD_MC30P8160_19	udata
                                           _PWM_Duty_W	res	1
                                           
                                           UD_MC30P8160_20	udata
                                           _PWM_Duty_Y	res	1
                                           
                                           UD_MC30P8160_21	udata
                                           _PWM_Duty_WY	res	1
                                           
                                           UD_MC30P8160_22	udata
                                           _T_key_Value	res	1
                                           
                                           UD_MC30P8160_23	udata
                                           _TK0_Key_Cnt	res	1
                                           
                                           UD_MC30P8160_24	udata
                                           _Power_Low_V_OFF_Cnt	res	1
                                           
                                           UD_MC30P8160_25	udata
                                           _T0_13ms_Cnt	res	1
                                           
                                           UD_MC30P8160_26	udata
                                           _T0_5ms_Cnt	res	1
                                           
                                           ;--------------------------------------------------------
                                           ; absolute symbol definitions
                                           ;--------------------------------------------------------
                                           ;--------------------------------------------------------
                                           ; compiler-defined variables
                                           ;--------------------------------------------------------
                                           UDL_MC30P8160_0	udata
                                           r0x1023	res	1
                                           r0x1022	res	1
                                           r0x1025	res	1
                                           r0x1024	res	1
                                           ;--------------------------------------------------------
                                           ; initialized data
                                           ;--------------------------------------------------------
                                           
                                           ID_MC30P8160_0	idata
                                           _uart_send_c
                                           	db	0x00
                                           
                                           
                                           ;@Allocation info for local variables in function 'Delay_us_2'
                                           ;@Delay_us_2 Delay_us_2                Allocated to registers ;size:2
                                           ;@Delay_us_2 INDFbits                  Allocated to registers ;size:1
                                           ;@Delay_us_2 T0CNTbits                 Allocated to registers ;size:1
                                           ;@Delay_us_2 PCLbits                   Allocated to registers ;size:1
                                           ;@Delay_us_2 STATUSbits                Allocated to registers ;size:1
                                           ;@Delay_us_2 FSRbits                   Allocated to registers ;size:1
                                           ;@Delay_us_2 P1bits                    Allocated to registers ;size:1
                                           ;@Delay_us_2 MCRbits                   Allocated to registers ;size:1
                                           ;@Delay_us_2 T0CRbits                  Allocated to registers ;size:1
                                           ;@Delay_us_2 PCLATHbits                Allocated to registers ;size:1
                                           ;@Delay_us_2 PDCONbits                 Allocated to registers ;size:1
                                           ;@Delay_us_2 ODCONbits                 Allocated to registers ;size:1
                                           ;@Delay_us_2 PUCONbits                 Allocated to registers ;size:1
                                           ;@Delay_us_2 INTEbits                  Allocated to registers ;size:1
                                           ;@Delay_us_2 INTFbits                  Allocated to registers ;size:1
                                           ;@Delay_us_2 PWM1CR0bits               Allocated to registers ;size:1
                                           ;@Delay_us_2 PWM1CR1bits               Allocated to registers ;size:1
                                           ;@Delay_us_2 PWM1CR2bits               Allocated to registers ;size:1
                                           ;@Delay_us_2 DDR1bits                  Allocated to registers ;size:1
                                           ;@Delay_us_2 TMRCRbits                 Allocated to registers ;size:1
                                           ;@Delay_us_2 T1CRbits                  Allocated to registers ;size:1
                                           ;@Delay_us_2 T1CNTbits                 Allocated to registers ;size:1
                                           ;@Delay_us_2 T1LOADbits                Allocated to registers ;size:1
                                           ;@Delay_us_2 T1DATAbits                Allocated to registers ;size:1
                                           ;@Delay_us_2 T1DATBbits                Allocated to registers ;size:1
                                           ;@Delay_us_2 T1DATCbits                Allocated to registers ;size:1
                                           ;@Delay_us_2 T1DATDbits                Allocated to registers ;size:1
                                           ;@Delay_us_2 T2CRbits                  Allocated to registers ;size:1
                                           ;@Delay_us_2 T2CNTHbits                Allocated to registers ;size:1
                                           ;@Delay_us_2 T2CNTLbits                Allocated to registers ;size:1
                                           ;@Delay_us_2 T2LOADHbits               Allocated to registers ;size:1
                                           ;@Delay_us_2 T2LOADLbits               Allocated to registers ;size:1
                                           ;@Delay_us_2 P1KBCRbits                Allocated to registers ;size:1
                                           ;@Delay_us_2 P1ADCRbits                Allocated to registers ;size:1
                                           ;@Delay_us_2 CMPCR0bits                Allocated to registers ;size:1
                                           ;@Delay_us_2 CMPCR1bits                Allocated to registers ;size:1
                                           ;@Delay_us_2 CMPCR2bits                Allocated to registers ;size:1
                                           ;@Delay_us_2 TKCR0bits                 Allocated to registers ;size:1
                                           ;@Delay_us_2 TKCR1bits                 Allocated to registers ;size:1
                                           ;@Delay_us_2 TKCR2bits                 Allocated to registers ;size:1
                                           ;@Delay_us_2 TKCNTHbits                Allocated to registers ;size:1
                                           ;@Delay_us_2 TKCNTLbits                Allocated to registers ;size:1
                                           ;@Delay_us_2 CTOUCH_FLAG               Allocated to registers ;size:1
                                           ;@Delay_us_2 CSAVE_ACC                 Allocated to registers ;size:1
                                           ;@Delay_us_2 CSAVE_STATUS              Allocated to registers ;size:1
                                           ;@Delay_us_2 CPLAY_FLAG                Allocated to registers ;size:1
                                           ;@Delay_us_2 flag1                     Allocated to registers ;size:1
                                           ;@Delay_us_2 flag2                     Allocated to registers ;size:1
                                           ;@Delay_us_2 u16_get_val               Allocated to registers ;size:2
                                           ;@Delay_us_2 u16_Press_val             Allocated to registers ;size:2
                                           ;@Delay_us_2 u16_release_val           Allocated to registers ;size:2
                                           ;@Delay_us_2 u16_release_val_TK0       Allocated to registers ;size:2
                                           ;@Delay_us_2 u16_temp_val              Allocated to registers ;size:2
                                           ;@Delay_us_2 u16_get_val_Temp          Allocated to registers ;size:2
                                           ;@Delay_us_2 u16_get_val_Min           Allocated to registers ;size:2
                                           ;@Delay_us_2 u16_TK0_environment_val   Allocated to registers ;size:2
                                           ;@Delay_us_2 u16_TK0_environment_val_Sum Allocated to registers ;size:4
                                           ;@Delay_us_2 TK0_Filter_Cnt            Allocated to registers ;size:1
                                           ;@Delay_us_2 FilterCnt_TK0             Allocated to registers ;size:1
                                           ;@Delay_us_2 SleepCnt                  Allocated to registers ;size:1
                                           ;@Delay_us_2 u16_TK_Reset_Cnt          Allocated to registers ;size:2
                                           ;@Delay_us_2 u8_WDT_18ms_Cnt           Allocated to registers ;size:1
                                           ;@Delay_us_2 PWM_Duty_W                Allocated to registers ;size:1
                                           ;@Delay_us_2 PWM_Duty_Y                Allocated to registers ;size:1
                                           ;@Delay_us_2 PWM_Duty_WY               Allocated to registers ;size:1
                                           ;@Delay_us_2 T_key_Value               Allocated to registers ;size:1
                                           ;@Delay_us_2 TK0_Key_Cnt               Allocated to registers ;size:1
                                           ;@Delay_us_2 Power_Low_V_OFF_Cnt       Allocated to registers ;size:1
                                           ;@Delay_us_2 T0_13ms_Cnt               Allocated to registers ;size:1
                                           ;@Delay_us_2 T0_5ms_Cnt                Allocated to registers ;size:1
                                           ;@Delay_us_2 i                         Allocated to registers ;size:2
                                           ;@Delay_us_2 INDF                      Allocated to registers ;size:1
                                           ;@Delay_us_2 T0CNT                     Allocated to registers ;size:1
                                           ;@Delay_us_2 PCL                       Allocated to registers ;size:1
                                           ;@Delay_us_2 STATUS                    Allocated to registers ;size:1
                                           ;@Delay_us_2 FSR                       Allocated to registers ;size:1
                                           ;@Delay_us_2 P1                        Allocated to registers ;size:1
                                           ;@Delay_us_2 MCR                       Allocated to registers ;size:1
                                           ;@Delay_us_2 T0CR                      Allocated to registers ;size:1
                                           ;@Delay_us_2 PCLATH                    Allocated to registers ;size:1
                                           ;@Delay_us_2 PDCON                     Allocated to registers ;size:1
                                           ;@Delay_us_2 ODCON                     Allocated to registers ;size:1
                                           ;@Delay_us_2 PUCON                     Allocated to registers ;size:1
                                           ;@Delay_us_2 INTE                      Allocated to registers ;size:1
                                           ;@Delay_us_2 INTF                      Allocated to registers ;size:1
                                           ;@Delay_us_2 PWM1CR0                   Allocated to registers ;size:1
                                           ;@Delay_us_2 PWM1CR1                   Allocated to registers ;size:1
                                           ;@Delay_us_2 PWM1CR2                   Allocated to registers ;size:1
                                           ;@Delay_us_2 DDR1                      Allocated to registers ;size:1
                                           ;@Delay_us_2 TMRCR                     Allocated to registers ;size:1
                                           ;@Delay_us_2 T1CR                      Allocated to registers ;size:1
                                           ;@Delay_us_2 T1CNT                     Allocated to registers ;size:1
                                           ;@Delay_us_2 T1LOAD                    Allocated to registers ;size:1
                                           ;@Delay_us_2 T1DATA                    Allocated to registers ;size:1
                                           ;@Delay_us_2 T1DATB                    Allocated to registers ;size:1
                                           ;@Delay_us_2 T1DATC                    Allocated to registers ;size:1
                                           ;@Delay_us_2 T1DATD                    Allocated to registers ;size:1
                                           ;@Delay_us_2 T2CR                      Allocated to registers ;size:1
                                           ;@Delay_us_2 T2CNTH                    Allocated to registers ;size:1
                                           ;@Delay_us_2 T2CNTL                    Allocated to registers ;size:1
                                           ;@Delay_us_2 T2LOADH                   Allocated to registers ;size:1
                                           ;@Delay_us_2 T2LOADL                   Allocated to registers ;size:1
                                           ;@Delay_us_2 P1KBCR                    Allocated to registers ;size:1
                                           ;@Delay_us_2 P1ADCR                    Allocated to registers ;size:1
                                           ;@Delay_us_2 CMPCR0                    Allocated to registers ;size:1
                                           ;@Delay_us_2 CMPCR1                    Allocated to registers ;size:1
                                           ;@Delay_us_2 CMPCR2                    Allocated to registers ;size:1
                                           ;@Delay_us_2 TKCR0                     Allocated to registers ;size:1
                                           ;@Delay_us_2 TKCR1                     Allocated to registers ;size:1
                                           ;@Delay_us_2 TKCR2                     Allocated to registers ;size:1
                                           ;@Delay_us_2 TKCNTH                    Allocated to registers ;size:1
                                           ;@Delay_us_2 TKCNTL                    Allocated to registers ;size:1
                                           ;@end Allocation info for local variables in function 'Delay_us_2';
                                           ;@Allocation info for local variables in function 'Delay_us'
                                           ;@Delay_us i                         Allocated to registers ;size:1
                                           ;@end Allocation info for local variables in function 'Delay_us';
                                           ;@Allocation info for local variables in function 'Clr_Ram'
                                           ;@end Allocation info for local variables in function 'Clr_Ram';
                                           ;@Allocation info for local variables in function 'Init_Sys'
                                           ;@end Allocation info for local variables in function 'Init_Sys';
                                           ;@Allocation info for local variables in function 'T0_Time_Init'
                                           ;@end Allocation info for local variables in function 'T0_Time_Init';
                                           ;@Allocation info for local variables in function 'T1_PWM_Init'
                                           ;@end Allocation info for local variables in function 'T1_PWM_Init';
                                           ;@Allocation info for local variables in function 'IO_Init'
                                           ;@end Allocation info for local variables in function 'IO_Init';
                                           ;@Allocation info for local variables in function 'TK_Sens_Threshold_value_Detection'
                                           ;@end Allocation info for local variables in function 'TK_Sens_Threshold_value_Detection';
                                           ;@Allocation info for local variables in function 'TOUCH_Init'
                                           ;@end Allocation info for local variables in function 'TOUCH_Init';
                                           ;@Allocation info for local variables in function 'TK0_Init'
                                           ;@end Allocation info for local variables in function 'TK0_Init';
                                           ;@Allocation info for local variables in function 'TK0_release_'
                                           ;@end Allocation info for local variables in function 'TK0_release_';
                                           ;@Allocation info for local variables in function 'TK0_Scan'
                                           ;@end Allocation info for local variables in function 'TK0_Scan';
                                           ;@Allocation info for local variables in function 'PWM_Direction_Judgment'
                                           ;@end Allocation info for local variables in function 'PWM_Direction_Judgment';
                                           ;@Allocation info for local variables in function 'T_Key_value_Read'
                                           ;@end Allocation info for local variables in function 'T_Key_value_Read';
                                           ;@Allocation info for local variables in function 'PWM_W_OFF'
                                           ;@end Allocation info for local variables in function 'PWM_W_OFF';
                                           ;@Allocation info for local variables in function 'PWM_Y_OFF'
                                           ;@end Allocation info for local variables in function 'PWM_Y_OFF';
                                           ;@Allocation info for local variables in function 'LED_PWM_Control'
                                           ;@end Allocation info for local variables in function 'LED_PWM_Control';
                                           ;@Allocation info for local variables in function 'Power_Low_V_OFF'
                                           ;@end Allocation info for local variables in function 'Power_Low_V_OFF';
                                           ;@Allocation info for local variables in function 'TK_5S_Reset'
                                           ;@end Allocation info for local variables in function 'TK_5S_Reset';
                                           ;@Allocation info for local variables in function 'Sleep_mode'
                                           ;@end Allocation info for local variables in function 'Sleep_mode';
                                           ;@Allocation info for local variables in function 'CMP_Init'
                                           ;@end Allocation info for local variables in function 'CMP_Init';
                                           ;@Allocation info for local variables in function 'main'
                                           ;@end Allocation info for local variables in function 'main';
                                           ;@Allocation info for local variables in function 'int_isr'
                                           ;@end Allocation info for local variables in function 'int_isr';
                                           
                                           ;--------------------------------------------------------
                                           ; overlayable items in internal ram 
                                           ;--------------------------------------------------------
                                           ;	udata_ovr
                                           ;--------------------------------------------------------
                                           ; reset vector 
                                           ;--------------------------------------------------------
                                           STARTUP	code 0x0000
                                           	goto	_main
                                           ;--------------------------------------------------------
                                           ; interrupt and initialization code
                                           ;--------------------------------------------------------
                                           c_interrupt	code	0x8
                                           __sdcc_interrupt
                                           ;***
                                           ;  pBlock Stats: dbName = I
                                           ;***
                                           ;entry:  _int_isr	;Function start
                                           ; 0 exit points
                                           ;; Starting pCode block
                                           _int_isr	;Function start
                                           ; 0 exit points
                                           ;	.line	880; "MC30P8160.c"	__endasm;
                                           	MOVRA	_CSAVE_ACC
                                           	SWAPAR	STATUS
                                           	MOVRA	_CSAVE_STATUS
                                           	
                                           ;	.line	883; "MC30P8160.c"	if ((CMPIE) && (CMPIF))
                                           	JBSET	_CMPCR2bits,1
                                           	GOTO	_00473_DS_
                                           	JBSET	_CMPCR2bits,0
                                           	GOTO	_00473_DS_
                                           ;	.line	885; "MC30P8160.c"	CMPIF = 0;
                                           	BCLR	_CMPCR2bits,0
                                           ;	.line	886; "MC30P8160.c"	if(BAT_Low_V_Flag == 0)
                                           	JBCLR	_flag2,3
                                           	GOTO	_00470_DS_
                                           ;	.line	888; "MC30P8160.c"	BAT_Low_V_Flag = 1;
                                           	BSET	_flag2,3
                                           ;	.line	889; "MC30P8160.c"	CMPCR2 = 0x06;           //中断,下降沿触发  电压低到高 	
                                           	MOVAI	0x06
                                           	MOVRA	_CMPCR2
                                           	GOTO	_00473_DS_
                                           _00470_DS_
                                           ;	.line	891; "MC30P8160.c"	else if(BAT_Low_V_Flag)
                                           	JBSET	_flag2,3
                                           	GOTO	_00473_DS_
                                           ;	.line	893; "MC30P8160.c"	BAT_Low_V_Flag = 0;
                                           	BCLR	_flag2,3
                                           ;	.line	894; "MC30P8160.c"	CMPCR2 = 0x02;           //中断,下降沿触发  电压低到高 	
                                           	MOVAI	0x02
                                           	MOVRA	_CMPCR2
                                           _00473_DS_
                                           ;	.line	899; "MC30P8160.c"	if(T0IF)
                                           	JBSET	_INTFbits,0
                                           	GOTO	_00480_DS_
                                           ;	.line	901; "MC30P8160.c"	T0IF   = 0; 
                                           	BCLR	_INTFbits,0
                                           ;	.line	902; "MC30P8160.c"	T0CNT = 247; // T0没有自动重载器，
                                           	MOVAI	0xf7
                                           	MOVRA	_T0CNT
                                           ;	.line	904; "MC30P8160.c"	T0_5ms_Cnt ++;
                                           	INCR	_T0_5ms_Cnt
                                           ;;unsigned compare: left < lit(0x5=5), size=1
                                           ;	.line	905; "MC30P8160.c"	if (T0_5ms_Cnt >= 5)
                                           	MOVAI	0x05
                                           	RSUBAR	_T0_5ms_Cnt
                                           	JBSET	STATUS,0
                                           	GOTO	_00476_DS_
                                           ;;genSkipc:3291: created from rifx:013B5EFC
                                           ;	.line	907; "MC30P8160.c"	T0_5ms_Cnt = 0;
                                           	CLRR	_T0_5ms_Cnt
                                           ;	.line	908; "MC30P8160.c"	T0_5ms_Flag = 1;
                                           	BSET	_flag1,4
                                           _00476_DS_
                                           ;	.line	911; "MC30P8160.c"	T0_13ms_Cnt ++;
                                           	INCR	_T0_13ms_Cnt
                                           ;;unsigned compare: left < lit(0xD=13), size=1
                                           ;	.line	912; "MC30P8160.c"	if(T0_13ms_Cnt >= 13)
                                           	MOVAI	0x0d
                                           	RSUBAR	_T0_13ms_Cnt
                                           	JBSET	STATUS,0
                                           	GOTO	_00480_DS_
                                           ;;genSkipc:3291: created from rifx:013B5EFC
                                           ;	.line	914; "MC30P8160.c"	T0_13ms_Cnt = 0;
                                           	CLRR	_T0_13ms_Cnt
                                           ;	.line	915; "MC30P8160.c"	T0_13ms_Flag = 1;
                                           	BSET	_flag1,5
                                           _00480_DS_
                                           ;	.line	918; "MC30P8160.c"	if(T1IF)
                                           	JBSET	_TMRCRbits,0
                                           	GOTO	_00482_DS_
                                           ;	.line	920; "MC30P8160.c"	T1IF   = 0; 
                                           	BCLR	_TMRCRbits,0
                                           _00482_DS_
                                           ;	.line	927; "MC30P8160.c"	__endasm;
                                           	SWAPAR	_CSAVE_STATUS
                                           	MOVRA	STATUS
                                           	SWAPR	_CSAVE_ACC
                                           	SWAPAR	_CSAVE_ACC
                                           	
                                           END_OF_INTERRUPT
                                           ;	.line	928; "MC30P8160.c"	}
                                           	RETIE	
                                           
                                           ;--------------------------------------------------------
                                           ; code
                                           ;--------------------------------------------------------
                                           code_MC30P8160	code
                                           ;***
                                           ;  pBlock Stats: dbName = M
                                           ;***
                                           ;entry:  _main	;Function start
                                           ; 2 exit points
                                           ;has an exit
                                           ;functions called:
                                           ;   _Clr_Ram
                                           ;   _Init_Sys
                                           ;   _IO_Init
                                           ;   _Delay_us_2
                                           ;   _TK_Sens_Threshold_value_Detection
                                           ;   _TOUCH_Init
                                           ;   _T0_Time_Init
                                           ;   _T1_PWM_Init
                                           ;   _CMP_Init
                                           ;   _TK0_Scan
                                           ;   _T_Key_value_Read
                                           ;   _LED_PWM_Control
                                           ;   _Power_Low_V_OFF
                                           ;   _TK_5S_Reset
                                           ;   _Sleep_mode
                                           ;   _Clr_Ram
                                           ;   _Init_Sys
                                           ;   _IO_Init
                                           ;   _Delay_us_2
                                           ;   _TK_Sens_Threshold_value_Detection
                                           ;   _TOUCH_Init
                                           ;   _T0_Time_Init
                                           ;   _T1_PWM_Init
                                           ;   _CMP_Init
                                           ;   _TK0_Scan
                                           ;   _T_Key_value_Read
                                           ;   _LED_PWM_Control
                                           ;   _Power_Low_V_OFF
                                           ;   _TK_5S_Reset
                                           ;   _Sleep_mode
                                           ;1 compiler assigned register :
                                           ;   STK00
                                           ;; Starting pCode block
                                           _main	;Function start
                                           ; 2 exit points
                                           ;	.line	815; "MC30P8160.c"	Clr_Ram();
                                           	CALL	_Clr_Ram
                                           ;	.line	816; "MC30P8160.c"	Init_Sys();
                                           	CALL	_Init_Sys
                                           ;	.line	818; "MC30P8160.c"	IO_Init();
                                           	CALL	_IO_Init
                                           ;	.line	820; "MC30P8160.c"	Delay_us_2(0x8001); // 4M 约100ms
                                           	MOVAI	0x01
                                           	MOVRA	STK00
                                           	MOVAI	0x80
                                           	CALL	_Delay_us_2
                                           ;	.line	822; "MC30P8160.c"	TK_Sens_Threshold_value_Detection(); // 5档灵敏度
                                           	CALL	_TK_Sens_Threshold_value_Detection
                                           ;	.line	824; "MC30P8160.c"	TOUCH_Init(); // 设置触摸寄存器 
                                           	CALL	_TOUCH_Init
                                           ;	.line	826; "MC30P8160.c"	T0_Time_Init();
                                           	CALL	_T0_Time_Init
                                           ;	.line	827; "MC30P8160.c"	T1_PWM_Init();
                                           	CALL	_T1_PWM_Init
                                           ;	.line	828; "MC30P8160.c"	SleepCnt = 0xFF;
                                           	MOVAI	0xff
                                           	MOVRA	_SleepCnt
                                           ;	.line	830; "MC30P8160.c"	PWM_Flag_key = 1;
                                           	BSET	_flag1,7
                                           ;	.line	832; "MC30P8160.c"	PWM_Duty_W = PWM_Duty_Max;
                                           	MOVAI	0xff
                                           	MOVRA	_PWM_Duty_W
                                           ;	.line	833; "MC30P8160.c"	PWM_Duty_Y = PWM_Duty_Max;
                                           	MOVAI	0xff
                                           	MOVRA	_PWM_Duty_Y
                                           ;	.line	834; "MC30P8160.c"	PWM_Duty_WY = PWM_Duty_Max;
                                           	MOVAI	0xff
                                           	MOVRA	_PWM_Duty_WY
                                           ;	.line	836; "MC30P8160.c"	T_key_Value = 0; // Power_ONOFF_Flag
                                           	CLRR	_T_key_Value
                                           ;	.line	838; "MC30P8160.c"	Pre_T_Key0_Release = 1;
                                           	BSET	_flag1,1
                                           ;	.line	839; "MC30P8160.c"	u16_get_val_Min = 0xffff;
                                           	MOVAI	0xff
                                           	MOVRA	_u16_get_val_Min
                                           	MOVRA	(_u16_get_val_Min + 1)
                                           ;	.line	841; "MC30P8160.c"	CMP_Init();
                                           	CALL	_CMP_Init
                                           _00462_DS_
                                           ;	.line	845; "MC30P8160.c"	if(T0_5ms_Flag)
                                           	JBSET	_flag1,4
                                           	GOTO	_00458_DS_
                                           ;	.line	847; "MC30P8160.c"	T0_5ms_Flag = 0;
                                           	BCLR	_flag1,4
                                           ;	.line	848; "MC30P8160.c"	TK0_Scan();
                                           	CALL	_TK0_Scan
                                           _00458_DS_
                                           ;	.line	851; "MC30P8160.c"	if(T0_13ms_Flag) 
                                           	JBSET	_flag1,5
                                           	GOTO	_00460_DS_
                                           ;	.line	853; "MC30P8160.c"	T0_13ms_Flag = 0;
                                           	BCLR	_flag1,5
                                           ;	.line	855; "MC30P8160.c"	T_Key_value_Read();
                                           	CALL	_T_Key_value_Read
                                           ;	.line	856; "MC30P8160.c"	LED_PWM_Control();
                                           	CALL	_LED_PWM_Control
                                           ;	.line	858; "MC30P8160.c"	Power_Low_V_OFF();
                                           	CALL	_Power_Low_V_OFF
                                           ;	.line	859; "MC30P8160.c"	TK_5S_Reset();
                                           	CALL	_TK_5S_Reset
                                           ;	.line	861; "MC30P8160.c"	Sleep_mode();
                                           	CALL	_Sleep_mode
                                           _00460_DS_
                                           ;	.line	864; "MC30P8160.c"	WDT_Clear();
                                           	CLRWDT	
                                           	GOTO	_00462_DS_
                                           ;	.line	866; "MC30P8160.c"	}
                                           	RETURN	
                                           ; exit point of _main
                                           
                                           ;***
                                           ;  pBlock Stats: dbName = C
                                           ;***
                                           ;entry:  _CMP_Init	;Function start
                                           ; 2 exit points
                                           ;has an exit
                                           ;; Starting pCode block
                                           _CMP_Init	;Function start
                                           ; 2 exit points
                                           ;	.line	798; "MC30P8160.c"	CMPCR0 = 0x80;//开启CMP 正：VIR 负:VDD分压电阻 允许CMP端口输出 输出无回滞
                                           	MOVAI	0x80
                                           	MOVRA	_CMPCR0
                                           ;	.line	799; "MC30P8160.c"	CMPCR1 = 0x21;//检测值2.87V 
                                           	MOVAI	0x21
                                           	MOVRA	_CMPCR1
                                           ;	.line	800; "MC30P8160.c"	Nop();
                                           	nop	
                                           ;	.line	801; "MC30P8160.c"	Nop();
                                           	nop	
                                           ;	.line	802; "MC30P8160.c"	Nop();
                                           	nop	
                                           ;	.line	803; "MC30P8160.c"	Nop();
                                           	nop	
                                           ;	.line	804; "MC30P8160.c"	Nop();
                                           	nop	
                                           ;	.line	805; "MC30P8160.c"	CMPCR2 = 0x02;           //中断,上升沿触发    电压高到低
                                           	MOVAI	0x02
                                           	MOVRA	_CMPCR2
                                           ;	.line	807; "MC30P8160.c"	}
                                           	RETURN	
                                           ; exit point of _CMP_Init
                                           
                                           ;***
                                           ;  pBlock Stats: dbName = C
                                           ;***
                                           ;entry:  _Sleep_mode	;Function start
                                           ; 2 exit points
                                           ;has an exit
                                           ;; Starting pCode block
                                           _Sleep_mode	;Function start
                                           ; 2 exit points
                                           ;	.line	751; "MC30P8160.c"	if(SleepCnt) 
                                           	MOVAI	0x00
                                           	ORAR	_SleepCnt
                                           	JBCLR	STATUS,2
                                           	GOTO	_00440_DS_
                                           ;	.line	753; "MC30P8160.c"	SleepCnt--;
                                           	DECR	_SleepCnt
                                           _00440_DS_
                                           ;	.line	756; "MC30P8160.c"	if(T_key_Value)
                                           	MOVAI	0x00
                                           	ORAR	_T_key_Value
                                           	JBCLR	STATUS,2
                                           	GOTO	_00442_DS_
                                           ;	.line	758; "MC30P8160.c"	SleepCnt = 0xFF; // 
                                           	MOVAI	0xff
                                           	MOVRA	_SleepCnt
                                           _00442_DS_
                                           ;	.line	761; "MC30P8160.c"	if(!SleepCnt)
                                           	MOVAI	0x00
                                           	ORAR	_SleepCnt
                                           	JBSET	STATUS,2
                                           	GOTO	_00448_DS_
                                           ;	.line	763; "MC30P8160.c"	CMPEN = 0; // 关闭比较器
                                           	BCLR	_CMPCR0bits,7
                                           ;	.line	764; "MC30P8160.c"	CMPIF = 0;
                                           	BCLR	_CMPCR2bits,0
                                           ;	.line	766; "MC30P8160.c"	TKEN = 0;       //关闭TK
                                           	BCLR	_TKCR0bits,7
                                           ;	.line	769; "MC30P8160.c"	u8_WDT_18ms_Cnt = 0;
                                           	CLRR	_u8_WDT_18ms_Cnt
                                           ;;unsigned compare: left < lit(0x6=6), size=1
                                           _00443_DS_
                                           ;	.line	770; "MC30P8160.c"	while(u8_WDT_18ms_Cnt < 6)
                                           	MOVAI	0x06
                                           	RSUBAR	_u8_WDT_18ms_Cnt
                                           	JBCLR	STATUS,0
                                           	GOTO	_00445_DS_
                                           ;;genSkipc:3291: created from rifx:013B5EFC
                                           ;	.line	772; "MC30P8160.c"	u8_WDT_18ms_Cnt ++;
                                           	INCR	_u8_WDT_18ms_Cnt
                                           ;	.line	773; "MC30P8160.c"	SLEEP();   //休眠两种编写方式(方式二)
                                           	STOP	
                                           	GOTO	_00443_DS_
                                           _00445_DS_
                                           ;	.line	778; "MC30P8160.c"	TKEN = 1;  	   //打开TK
                                           	BSET	_TKCR0bits,7
                                           ;	.line	781; "MC30P8160.c"	T0_5ms_Flag = 1;
                                           	BSET	_flag1,4
                                           ;	.line	782; "MC30P8160.c"	T0_13ms_Flag = 1;
                                           	BSET	_flag1,5
                                           ;	.line	784; "MC30P8160.c"	CMPIF = 0;
                                           	BCLR	_CMPCR2bits,0
                                           ;	.line	785; "MC30P8160.c"	CMPEN = 1; // 打开比较器
                                           	BSET	_CMPCR0bits,7
                                           _00448_DS_
                                           ;	.line	788; "MC30P8160.c"	}
                                           	RETURN	
                                           ; exit point of _Sleep_mode
                                           
                                           ;***
                                           ;  pBlock Stats: dbName = C
                                           ;***
                                           ;entry:  _TK_5S_Reset	;Function start
                                           ; 2 exit points
                                           ;has an exit
                                           ;functions called:
                                           ;   _TK0_release_
                                           ;   _TK0_release_
                                           ;; Starting pCode block
                                           _TK_5S_Reset	;Function start
                                           ; 2 exit points
                                           ;	.line	733; "MC30P8160.c"	if(T_Key0_Signal)
                                           	JBSET	_flag1,0
                                           	GOTO	_00422_DS_
                                           ;	.line	735; "MC30P8160.c"	u16_TK_Reset_Cnt ++;
                                           	INCR	_u16_TK_Reset_Cnt
                                           	JBCLR	STATUS,2
                                           	INCR	(_u16_TK_Reset_Cnt + 1)
                                           ;;unsigned compare: left < lit(0x181=385), size=2
                                           ;	.line	736; "MC30P8160.c"	if(u16_TK_Reset_Cnt >= 385) // 13ms 5S
                                           	MOVAI	0x01
                                           	RSUBAR	(_u16_TK_Reset_Cnt + 1)
                                           	JBSET	STATUS,2
                                           	GOTO	_00434_DS_
                                           	MOVAI	0x81
                                           	RSUBAR	_u16_TK_Reset_Cnt
                                           _00434_DS_
                                           	JBSET	STATUS,0
                                           	GOTO	_00424_DS_
                                           ;;genSkipc:3291: created from rifx:013B5EFC
                                           ;	.line	739; "MC30P8160.c"	TK0_release_();
                                           	CALL	_TK0_release_
                                           	GOTO	_00424_DS_
                                           _00422_DS_
                                           ;	.line	744; "MC30P8160.c"	u16_TK_Reset_Cnt = 0;
                                           	CLRR	_u16_TK_Reset_Cnt
                                           	CLRR	(_u16_TK_Reset_Cnt + 1)
                                           _00424_DS_
                                           ;	.line	746; "MC30P8160.c"	}
                                           	RETURN	
                                           ; exit point of _TK_5S_Reset
                                           
                                           ;***
                                           ;  pBlock Stats: dbName = C
                                           ;***
                                           ;entry:  _Power_Low_V_OFF	;Function start
                                           ; 2 exit points
                                           ;has an exit
                                           ;; Starting pCode block
                                           _Power_Low_V_OFF	;Function start
                                           ; 2 exit points
                                           ;	.line	712; "MC30P8160.c"	if(T_key_Value && BAT_Low_V_Flag)
                                           	MOVAI	0x00
                                           	ORAR	_T_key_Value
                                           	JBCLR	STATUS,2
                                           	GOTO	_00411_DS_
                                           	JBSET	_flag2,3
                                           	GOTO	_00411_DS_
                                           ;	.line	714; "MC30P8160.c"	Power_Low_V_OFF_Cnt ++;
                                           	INCR	_Power_Low_V_OFF_Cnt
                                           ;;swapping arguments (AOP_TYPEs 1/3)
                                           ;;unsigned compare: left >= lit(0xC9=201), size=1
                                           ;	.line	716; "MC30P8160.c"	if(Power_Low_V_OFF_Cnt > 200) // 2.6S
                                           	MOVAI	0xc9
                                           	RSUBAR	_Power_Low_V_OFF_Cnt
                                           	JBSET	STATUS,0
                                           	GOTO	_00414_DS_
                                           ;;genSkipc:3291: created from rifx:013B5EFC
                                           ;	.line	718; "MC30P8160.c"	Power_Low_V_OFF_Cnt = 0;
                                           	CLRR	_Power_Low_V_OFF_Cnt
                                           ;	.line	720; "MC30P8160.c"	T_key_Value = 0;
                                           	CLRR	_T_key_Value
                                           ;	.line	722; "MC30P8160.c"	PWM_Update_F = 1;
                                           	BSET	_flag2,1
                                           	GOTO	_00414_DS_
                                           _00411_DS_
                                           ;	.line	727; "MC30P8160.c"	Power_Low_V_OFF_Cnt = 0;
                                           	CLRR	_Power_Low_V_OFF_Cnt
                                           _00414_DS_
                                           ;	.line	729; "MC30P8160.c"	}
                                           	RETURN	
                                           ; exit point of _Power_Low_V_OFF
                                           
                                           ;***
                                           ;  pBlock Stats: dbName = C
                                           ;***
                                           ;entry:  _LED_PWM_Control	;Function start
                                           ; 2 exit points
                                           ;has an exit
                                           ;functions called:
                                           ;   _PWM_W_OFF
                                           ;   _PWM_Y_OFF
                                           ;   _PWM_Y_OFF
                                           ;   _PWM_W_OFF
                                           ;   _PWM_W_OFF
                                           ;   _PWM_Y_OFF
                                           ;   _PWM_Y_OFF
                                           ;   _PWM_W_OFF
                                           ;1 compiler assigned register :
                                           ;   r0x1022
                                           ;; Starting pCode block
                                           _LED_PWM_Control	;Function start
                                           ; 2 exit points
                                           ;	.line	616; "MC30P8160.c"	if(PWM_Update_F == 1) 	//按键值改变更新状态
                                           	CLRR	r0x1022
                                           	JBCLR	_flag2,1
                                           	INCR	r0x1022
                                           	MOVAR	r0x1022
                                           	XORAI	0x01
                                           	JBSET	STATUS,2
                                           	GOTO	_00369_DS_
                                           ;	.line	618; "MC30P8160.c"	PWM_Update_F = 0;
                                           	BCLR	_flag2,1
                                           ;	.line	620; "MC30P8160.c"	if(T_key_Value == 0) //全关
                                           	MOVAI	0x00
                                           	ORAR	_T_key_Value
                                           	JBSET	STATUS,2
                                           	GOTO	_00366_DS_
                                           ;	.line	622; "MC30P8160.c"	PWM_W_OFF();
                                           	CALL	_PWM_W_OFF
                                           ;	.line	623; "MC30P8160.c"	PWM_Y_OFF();      	   	
                                           	CALL	_PWM_Y_OFF
                                           	GOTO	_00369_DS_
                                           _00366_DS_
                                           ;	.line	625; "MC30P8160.c"	else if(T_key_Value == 2)      	// W
                                           	MOVAR	_T_key_Value
                                           	XORAI	0x02
                                           	JBSET	STATUS,2
                                           	GOTO	_00363_DS_
                                           ;	.line	627; "MC30P8160.c"	PWM_Y_OFF();   	   	   	
                                           	CALL	_PWM_Y_OFF
                                           ;	.line	629; "MC30P8160.c"	T1DATD = PWM_Duty_W; // 
                                           	MOVAR	_PWM_Duty_W
                                           	MOVRA	_T1DATD
                                           ;	.line	631; "MC30P8160.c"	PWM1DOE = 1; //打开端口输出脉宽调制波形
                                           	BSET	_PWM1CR0bits,5
                                           ;	.line	632; "MC30P8160.c"	PWM1DEN = 1; //打开 PWM1D 功能 	
                                           	BSET	_PWM1CR0bits,4
                                           	GOTO	_00369_DS_
                                           _00363_DS_
                                           ;	.line	635; "MC30P8160.c"	else if(T_key_Value == 1)      	// Y
                                           	MOVAR	_T_key_Value
                                           	XORAI	0x01
                                           	JBSET	STATUS,2
                                           	GOTO	_00360_DS_
                                           ;	.line	637; "MC30P8160.c"	PWM_W_OFF();
                                           	CALL	_PWM_W_OFF
                                           ;	.line	639; "MC30P8160.c"	T1DATC = PWM_Duty_Y;
                                           	MOVAR	_PWM_Duty_Y
                                           	MOVRA	_T1DATC
                                           ;	.line	640; "MC30P8160.c"	PWM1COE = 1; //打开端口输出脉宽调制波形
                                           	BSET	_PWM1CR0bits,3
                                           ;	.line	641; "MC30P8160.c"	PWM1CEN = 1; //打开 PWM1D 功能   	   	   	   	
                                           	BSET	_PWM1CR0bits,2
                                           	GOTO	_00369_DS_
                                           _00360_DS_
                                           ;	.line	643; "MC30P8160.c"	else if(T_key_Value == 3)      	// WY  50%
                                           	MOVAR	_T_key_Value
                                           	XORAI	0x03
                                           	JBSET	STATUS,2
                                           	GOTO	_00369_DS_
                                           ;	.line	645; "MC30P8160.c"	T1DATD = PWM_Duty_WY;
                                           	MOVAR	_PWM_Duty_WY
                                           	MOVRA	_T1DATD
                                           ;	.line	646; "MC30P8160.c"	PWM1DOE = 1; //打开端口输出脉宽调制波形
                                           	BSET	_PWM1CR0bits,5
                                           ;	.line	647; "MC30P8160.c"	PWM1DEN = 1; //打开 PWM1D 功能 	 
                                           	BSET	_PWM1CR0bits,4
                                           ;	.line	649; "MC30P8160.c"	T1DATC = PWM_Duty_WY;
                                           	MOVAR	_PWM_Duty_WY
                                           	MOVRA	_T1DATC
                                           ;	.line	650; "MC30P8160.c"	PWM1COE = 1; //打开端口输出脉宽调制波形
                                           	BSET	_PWM1CR0bits,3
                                           ;	.line	651; "MC30P8160.c"	PWM1CEN = 1; //打开 PWM1D 功能   	   	   	  	
                                           	BSET	_PWM1CR0bits,2
                                           _00369_DS_
                                           ;	.line	655; "MC30P8160.c"	if(T_Long_press_Flag) //长按无极调光（255极）
                                           	JBSET	_flag1,6
                                           	GOTO	_00403_DS_
                                           ;	.line	657; "MC30P8160.c"	PWM_Update_F = 1;
                                           	BSET	_flag2,1
                                           ;	.line	659; "MC30P8160.c"	if(PWM_Flag_key == 0)  	//逐渐变暗
                                           	JBCLR	_flag1,7
                                           	GOTO	_00399_DS_
                                           ;	.line	661; "MC30P8160.c"	if(T_key_Value == 2)
                                           	MOVAR	_T_key_Value
                                           	XORAI	0x02
                                           	JBSET	STATUS,2
                                           	GOTO	_00382_DS_
                                           ;;unsigned compare: left < lit(0xFF=255), size=1
                                           ;	.line	663; "MC30P8160.c"	if(PWM_Duty_W < PWM_Duty_Max) //最大亮度 100%
                                           	MOVAI	0xff
                                           	RSUBAR	_PWM_Duty_W
                                           	JBCLR	STATUS,0
                                           	GOTO	_00403_DS_
                                           ;;genSkipc:3291: created from rifx:013B5EFC
                                           ;	.line	665; "MC30P8160.c"	PWM_Duty_W ++;
                                           	INCR	_PWM_Duty_W
                                           	GOTO	_00403_DS_
                                           _00382_DS_
                                           ;	.line	668; "MC30P8160.c"	else if (T_key_Value == 1)
                                           	MOVAR	_T_key_Value
                                           	XORAI	0x01
                                           	JBSET	STATUS,2
                                           	GOTO	_00379_DS_
                                           ;;unsigned compare: left < lit(0xFF=255), size=1
                                           ;	.line	670; "MC30P8160.c"	if(PWM_Duty_Y < PWM_Duty_Max) //最大亮度 100%
                                           	MOVAI	0xff
                                           	RSUBAR	_PWM_Duty_Y
                                           	JBCLR	STATUS,0
                                           	GOTO	_00403_DS_
                                           ;;genSkipc:3291: created from rifx:013B5EFC
                                           ;	.line	672; "MC30P8160.c"	PWM_Duty_Y ++;
                                           	INCR	_PWM_Duty_Y
                                           	GOTO	_00403_DS_
                                           _00379_DS_
                                           ;	.line	675; "MC30P8160.c"	else if (T_key_Value == 3)
                                           	MOVAR	_T_key_Value
                                           	XORAI	0x03
                                           	JBSET	STATUS,2
                                           	GOTO	_00403_DS_
                                           ;;unsigned compare: left < lit(0xFF=255), size=1
                                           ;	.line	677; "MC30P8160.c"	if (PWM_Duty_WY < PWM_Duty_Max) //最大亮度 100%
                                           	MOVAI	0xff
                                           	RSUBAR	_PWM_Duty_WY
                                           	JBCLR	STATUS,0
                                           	GOTO	_00403_DS_
                                           ;;genSkipc:3291: created from rifx:013B5EFC
                                           ;	.line	679; "MC30P8160.c"	PWM_Duty_WY ++;
                                           	INCR	_PWM_Duty_WY
                                           	GOTO	_00403_DS_
                                           _00399_DS_
                                           ;	.line	685; "MC30P8160.c"	if(T_key_Value == 2)
                                           	MOVAR	_T_key_Value
                                           	XORAI	0x02
                                           	JBSET	STATUS,2
                                           	GOTO	_00396_DS_
                                           ;;swapping arguments (AOP_TYPEs 1/3)
                                           ;;unsigned compare: left >= lit(0x1A=26), size=1
                                           ;	.line	687; "MC30P8160.c"	if(PWM_Duty_W > PWM_Duty_Min ) //最小亮度PWM值：255 * 8%，
                                           	MOVAI	0x1a
                                           	RSUBAR	_PWM_Duty_W
                                           	JBSET	STATUS,0
                                           	GOTO	_00403_DS_
                                           ;;genSkipc:3291: created from rifx:013B5EFC
                                           ;	.line	689; "MC30P8160.c"	PWM_Duty_W --; 
                                           	DECR	_PWM_Duty_W
                                           	GOTO	_00403_DS_
                                           _00396_DS_
                                           ;	.line	692; "MC30P8160.c"	else if (T_key_Value == 1)
                                           	MOVAR	_T_key_Value
                                           	XORAI	0x01
                                           	JBSET	STATUS,2
                                           	GOTO	_00393_DS_
                                           ;;swapping arguments (AOP_TYPEs 1/3)
                                           ;;unsigned compare: left >= lit(0x1A=26), size=1
                                           ;	.line	694; "MC30P8160.c"	if(PWM_Duty_Y > PWM_Duty_Min ) //最小亮度PWM值：255 * 5%，
                                           	MOVAI	0x1a
                                           	RSUBAR	_PWM_Duty_Y
                                           	JBSET	STATUS,0
                                           	GOTO	_00403_DS_
                                           ;;genSkipc:3291: created from rifx:013B5EFC
                                           ;	.line	696; "MC30P8160.c"	PWM_Duty_Y --; 
                                           	DECR	_PWM_Duty_Y
                                           	GOTO	_00403_DS_
                                           _00393_DS_
                                           ;	.line	699; "MC30P8160.c"	else if (T_key_Value == 3)
                                           	MOVAR	_T_key_Value
                                           	XORAI	0x03
                                           	JBSET	STATUS,2
                                           	GOTO	_00403_DS_
                                           ;;swapping arguments (AOP_TYPEs 1/3)
                                           ;;unsigned compare: left >= lit(0x1A=26), size=1
                                           ;	.line	701; "MC30P8160.c"	if (PWM_Duty_WY > PWM_Duty_Min) //最小亮度PWM值：255 * 5%，
                                           	MOVAI	0x1a
                                           	RSUBAR	_PWM_Duty_WY
                                           	JBSET	STATUS,0
                                           	GOTO	_00403_DS_
                                           ;;genSkipc:3291: created from rifx:013B5EFC
                                           ;	.line	703; "MC30P8160.c"	PWM_Duty_WY--;
                                           	DECR	_PWM_Duty_WY
                                           _00403_DS_
                                           ;	.line	708; "MC30P8160.c"	}
                                           	RETURN	
                                           ; exit point of _LED_PWM_Control
                                           
                                           ;***
                                           ;  pBlock Stats: dbName = C
                                           ;***
                                           ;entry:  _PWM_Y_OFF	;Function start
                                           ; 2 exit points
                                           ;has an exit
                                           ;; Starting pCode block
                                           _PWM_Y_OFF	;Function start
                                           ; 2 exit points
                                           ;	.line	608; "MC30P8160.c"	T1DATC = 0;
                                           	CLRR	_T1DATC
                                           ;	.line	609; "MC30P8160.c"	PWM1COE = 0; //禁止端口输出脉宽调制波形；
                                           	BCLR	_PWM1CR0bits,3
                                           ;	.line	610; "MC30P8160.c"	PWM1CEN = 0; //关闭 PWM1C 功能；
                                           	BCLR	_PWM1CR0bits,2
                                           ;	.line	611; "MC30P8160.c"	}
                                           	RETURN	
                                           ; exit point of _PWM_Y_OFF
                                           
                                           ;***
                                           ;  pBlock Stats: dbName = C
                                           ;***
                                           ;entry:  _PWM_W_OFF	;Function start
                                           ; 2 exit points
                                           ;has an exit
                                           ;; Starting pCode block
                                           _PWM_W_OFF	;Function start
                                           ; 2 exit points
                                           ;	.line	601; "MC30P8160.c"	T1DATD = 0;
                                           	CLRR	_T1DATD
                                           ;	.line	602; "MC30P8160.c"	PWM1DOE = 0; //禁止端口输出脉宽调制波形；
                                           	BCLR	_PWM1CR0bits,5
                                           ;	.line	603; "MC30P8160.c"	PWM1DEN = 0; //关闭 PWM1D 功能；
                                           	BCLR	_PWM1CR0bits,4
                                           ;	.line	604; "MC30P8160.c"	}
                                           	RETURN	
                                           ; exit point of _PWM_W_OFF
                                           
                                           ;***
                                           ;  pBlock Stats: dbName = C
                                           ;***
                                           ;entry:  _T_Key_value_Read	;Function start
                                           ; 2 exit points
                                           ;has an exit
                                           ;functions called:
                                           ;   _PWM_Direction_Judgment
                                           ;   _PWM_Direction_Judgment
                                           ;   _PWM_Direction_Judgment
                                           ;   _PWM_Direction_Judgment
                                           ;; Starting pCode block
                                           _T_Key_value_Read	;Function start
                                           ; 2 exit points
                                           ;	.line	563; "MC30P8160.c"	if(T_Key0_Signal && TK0_Key_Release_Flag == 0) //有按键按下
                                           	JBSET	_flag1,0
                                           	GOTO	_00341_DS_
                                           	JBCLR	_flag2,2
                                           	GOTO	_00341_DS_
                                           ;	.line	565; "MC30P8160.c"	TK0_Key_Cnt ++;  	   	 	   	
                                           	INCR	_TK0_Key_Cnt
                                           ;;unsigned compare: left < lit(0x2A=42), size=1
                                           ;	.line	567; "MC30P8160.c"	if(TK0_Key_Cnt >= 42) //550ms
                                           	MOVAI	0x2a
                                           	RSUBAR	_TK0_Key_Cnt
                                           	JBSET	STATUS,0
                                           	GOTO	_00344_DS_
                                           ;;genSkipc:3291: created from rifx:013B5EFC
                                           ;	.line	569; "MC30P8160.c"	TK0_Key_Release_Flag = 1;
                                           	BSET	_flag2,2
                                           ;	.line	571; "MC30P8160.c"	T_Long_press_Flag = 1;     	//长按标志位置1     
                                           	BSET	_flag1,6
                                           ;	.line	573; "MC30P8160.c"	PWM_Direction_Judgment();
                                           	CALL	_PWM_Direction_Judgment
                                           	GOTO	_00344_DS_
                                           _00341_DS_
                                           ;	.line	577; "MC30P8160.c"	else if(!T_Key0_Signal)
                                           	JBCLR	_flag1,0
                                           	GOTO	_00344_DS_
                                           ;	.line	579; "MC30P8160.c"	T_Long_press_Flag = 0; 	//长按标志位清0
                                           	BCLR	_flag1,6
                                           ;	.line	581; "MC30P8160.c"	if(TK0_Key_Cnt > 0 && TK0_Key_Cnt < 42)
                                           	MOVAI	0x00
                                           	ORAR	_TK0_Key_Cnt
                                           	JBCLR	STATUS,2
                                           	GOTO	_00336_DS_
                                           ;;unsigned compare: left < lit(0x2A=42), size=1
                                           	MOVAI	0x2a
                                           	RSUBAR	_TK0_Key_Cnt
                                           	JBCLR	STATUS,0
                                           	GOTO	_00336_DS_
                                           ;;genSkipc:3291: created from rifx:013B5EFC
                                           ;	.line	583; "MC30P8160.c"	PWM_Update_F = 1;
                                           	BSET	_flag2,1
                                           ;	.line	585; "MC30P8160.c"	T_key_Value ++;    	//按键值累加    	   	   	
                                           	INCR	_T_key_Value
                                           ;;swapping arguments (AOP_TYPEs 1/3)
                                           ;;unsigned compare: left >= lit(0x4=4), size=1
                                           ;	.line	586; "MC30P8160.c"	if(T_key_Value > 3 ) // 1 2 3 按键值循环（三色调光）
                                           	MOVAI	0x04
                                           	RSUBAR	_T_key_Value
                                           	JBSET	STATUS,0
                                           	GOTO	_00334_DS_
                                           ;;genSkipc:3291: created from rifx:013B5EFC
                                           ;	.line	588; "MC30P8160.c"	T_key_Value = 0;
                                           	CLRR	_T_key_Value
                                           _00334_DS_
                                           ;	.line	591; "MC30P8160.c"	PWM_Direction_Judgment();
                                           	CALL	_PWM_Direction_Judgment
                                           _00336_DS_
                                           ;	.line	594; "MC30P8160.c"	TK0_Key_Release_Flag = 0;
                                           	BCLR	_flag2,2
                                           ;	.line	595; "MC30P8160.c"	TK0_Key_Cnt = 0;   	//触摸按下累加值清0
                                           	CLRR	_TK0_Key_Cnt
                                           _00344_DS_
                                           ;	.line	597; "MC30P8160.c"	}
                                           	RETURN	
                                           ; exit point of _T_Key_value_Read
                                           
                                           ;***
                                           ;  pBlock Stats: dbName = C
                                           ;***
                                           ;entry:  _PWM_Direction_Judgment	;Function start
                                           ; 2 exit points
                                           ;has an exit
                                           ;; Starting pCode block
                                           _PWM_Direction_Judgment	;Function start
                                           ; 2 exit points
                                           ;	.line	525; "MC30P8160.c"	if(T_key_Value == 2)
                                           	MOVAR	_T_key_Value
                                           	XORAI	0x02
                                           	JBSET	STATUS,2
                                           	GOTO	_00324_DS_
                                           ;;swapping arguments (AOP_TYPEs 1/3)
                                           ;;unsigned compare: left >= lit(0x80=128), size=1
                                           ;	.line	527; "MC30P8160.c"	if(PWM_Duty_W > PWM_Duty_Half)
                                           	MOVAI	0x80
                                           	RSUBAR	_PWM_Duty_W
                                           	JBSET	STATUS,0
                                           	GOTO	_00310_DS_
                                           ;;genSkipc:3291: created from rifx:013B5EFC
                                           ;	.line	529; "MC30P8160.c"	PWM_Flag_key = 1;  //调亮调暗标志位状态变换
                                           	BSET	_flag1,7
                                           	GOTO	_00326_DS_
                                           _00310_DS_
                                           ;	.line	533; "MC30P8160.c"	PWM_Flag_key = 0;  //调亮调暗标志位状态变换
                                           	BCLR	_flag1,7
                                           	GOTO	_00326_DS_
                                           _00324_DS_
                                           ;	.line	536; "MC30P8160.c"	else if (T_key_Value == 1)
                                           	MOVAR	_T_key_Value
                                           	XORAI	0x01
                                           	JBSET	STATUS,2
                                           	GOTO	_00321_DS_
                                           ;;swapping arguments (AOP_TYPEs 1/3)
                                           ;;unsigned compare: left >= lit(0x80=128), size=1
                                           ;	.line	538; "MC30P8160.c"	if(PWM_Duty_Y > PWM_Duty_Half)
                                           	MOVAI	0x80
                                           	RSUBAR	_PWM_Duty_Y
                                           	JBSET	STATUS,0
                                           	GOTO	_00313_DS_
                                           ;;genSkipc:3291: created from rifx:013B5EFC
                                           ;	.line	540; "MC30P8160.c"	PWM_Flag_key = 1;  //调亮调暗标志位状态变换
                                           	BSET	_flag1,7
                                           	GOTO	_00326_DS_
                                           _00313_DS_
                                           ;	.line	544; "MC30P8160.c"	PWM_Flag_key = 0;  //调亮调暗标志位状态变换
                                           	BCLR	_flag1,7
                                           	GOTO	_00326_DS_
                                           _00321_DS_
                                           ;	.line	547; "MC30P8160.c"	else if(T_key_Value == 3)
                                           	MOVAR	_T_key_Value
                                           	XORAI	0x03
                                           	JBSET	STATUS,2
                                           	GOTO	_00326_DS_
                                           ;;swapping arguments (AOP_TYPEs 1/3)
                                           ;;unsigned compare: left >= lit(0x80=128), size=1
                                           ;	.line	549; "MC30P8160.c"	if(PWM_Duty_WY > PWM_Duty_Half)
                                           	MOVAI	0x80
                                           	RSUBAR	_PWM_Duty_WY
                                           	JBSET	STATUS,0
                                           	GOTO	_00316_DS_
                                           ;;genSkipc:3291: created from rifx:013B5EFC
                                           ;	.line	551; "MC30P8160.c"	PWM_Flag_key = 1;  //调亮调暗标志位状态变换
                                           	BSET	_flag1,7
                                           	GOTO	_00326_DS_
                                           _00316_DS_
                                           ;	.line	555; "MC30P8160.c"	PWM_Flag_key = 0;  //调亮调暗标志位状态变换
                                           	BCLR	_flag1,7
                                           _00326_DS_
                                           ;	.line	558; "MC30P8160.c"	}
                                           	RETURN	
                                           ; exit point of _PWM_Direction_Judgment
                                           
                                           ;***
                                           ;  pBlock Stats: dbName = C
                                           ;***
                                           ;entry:  _TK0_Scan	;Function start
                                           ; 2 exit points
                                           ;has an exit
                                           ;functions called:
                                           ;   _TK0_Init
                                           ;   _TK0_release_
                                           ;   _TK0_Init
                                           ;   _TK0_release_
                                           ;4 compiler assigned registers:
                                           ;   r0x1022
                                           ;   r0x1023
                                           ;   r0x1024
                                           ;   r0x1025
                                           ;; Starting pCode block
                                           _TK0_Scan	;Function start
                                           ; 2 exit points
                                           ;	.line	403; "MC30P8160.c"	DDR1 |= 0x01;     // 1： 端口作为输入口          0： 端口作为输出口
                                           	BSET	_DDR1,0
                                           ;	.line	404; "MC30P8160.c"	P1ADCR |= 0x01;   // 0 使能端口的数字 I/O 功能； 1 关闭端口的数字 I/O 功能；
                                           	BSET	_P1ADCR,0
                                           ;	.line	406; "MC30P8160.c"	TK0_Init();
                                           	CALL	_TK0_Init
                                           _00200_DS_
                                           ;	.line	408; "MC30P8160.c"	while(TKCF == 1)
                                           	CLRR	r0x1022
                                           	JBCLR	_TKCR1bits,5
                                           	INCR	r0x1022
                                           	MOVAR	r0x1022
                                           	XORAI	0x01
                                           	JBSET	STATUS,2
                                           	GOTO	_00202_DS_
                                           ;	.line	410; "MC30P8160.c"	WDT_Clear();
                                           	CLRWDT	
                                           	GOTO	_00200_DS_
                                           _00202_DS_
                                           ;	.line	412; "MC30P8160.c"	u16_get_val =  (TKCNTH << 8) | TKCNTL;
                                           	MOVAR	_TKCNTH
                                           	MOVRA	r0x1024
                                           	MOVRA	r0x1022
                                           	CLRR	r0x1023
                                           ;;99	MOVAR	r0x1022
                                           ;;100	CLRR	r0x1025
                                           	MOVAR	_TKCNTL
                                           	MOVRA	_u16_get_val
                                           	MOVRA	r0x1022
                                           	CLRR	r0x1023
                                           ;;102	MOVAR	r0x1022
                                           ;;101	ORAR	r0x1025
                                           	MOVAI	0x00
                                           	ORAR	r0x1024
                                           	MOVRA	(_u16_get_val + 1)
                                           ;	.line	414; "MC30P8160.c"	TKCON = 0;  // 关闭 TKM 电容充放计数；
                                           	BCLR	_TKCR0bits,6
                                           ;	.line	415; "MC30P8160.c"	TKCNTH = 0; // 清TOUCH读数,必须手工清零
                                           	CLRR	_TKCNTH
                                           ;	.line	416; "MC30P8160.c"	TKCNTL = 0;
                                           	CLRR	_TKCNTL
                                           ;	.line	419; "MC30P8160.c"	DDR1 &= 0xFE;     // 1： 端口作为输入口         0： 端口作为输出口
                                           	BCLR	_DDR1,0
                                           ;	.line	420; "MC30P8160.c"	P1ADCR &= 0xFE;   // 1 关闭端口的数字 I/O 功能； 0 使能端口的数字 I/O 功能； 
                                           	BCLR	_P1ADCR,0
                                           ;	.line	421; "MC30P8160.c"	P10D = 0;
                                           	BCLR	_P1bits,0
                                           ;	.line	423; "MC30P8160.c"	u16_temp_val = u16_get_val + Const_SEN_T_Key0 - 10;
                                           	MOVAI	0x28
                                           	ADDAR	_u16_get_val
                                           	MOVRA	_u16_temp_val
                                           	CLRR	(_u16_temp_val + 1)
                                           	RLR	(_u16_temp_val + 1)
                                           	MOVAR	(_u16_get_val + 1)
                                           	ADDRA	(_u16_temp_val + 1)
                                           ;	.line	424; "MC30P8160.c"	if(u16_temp_val < u16_TK0_environment_val)
                                           	MOVAR	(_u16_TK0_environment_val + 1)
                                           	RSUBAR	(_u16_temp_val + 1)
                                           	JBSET	STATUS,2
                                           	GOTO	_00297_DS_
                                           	MOVAR	_u16_TK0_environment_val
                                           	RSUBAR	_u16_temp_val
                                           _00297_DS_
                                           	JBCLR	STATUS,0
                                           	GOTO	_00204_DS_
                                           ;;genSkipc:3291: created from rifx:013B5EFC
                                           ;	.line	426; "MC30P8160.c"	SleepCnt = 100; // 1000ms
                                           	MOVAI	0x64
                                           	MOVRA	_SleepCnt
                                           _00204_DS_
                                           ;	.line	429; "MC30P8160.c"	u16_temp_val = u16_get_val_Temp << 2;
                                           	BCLR	STATUS,0
                                           	RLAR	_u16_get_val_Temp
                                           	MOVRA	_u16_temp_val
                                           	RLAR	(_u16_get_val_Temp + 1)
                                           	MOVRA	(_u16_temp_val + 1)
                                           	BCLR	STATUS,0
                                           	RLR	_u16_temp_val
                                           	RLR	(_u16_temp_val + 1)
                                           ;	.line	430; "MC30P8160.c"	u16_temp_val -= u16_get_val_Temp;
                                           	MOVAR	_u16_get_val_Temp
                                           	RSUBRA	_u16_temp_val
                                           	MOVAR	(_u16_get_val_Temp + 1)
                                           	JBSET	STATUS,0
                                           	JZAR	(_u16_get_val_Temp + 1)
                                           	RSUBRA	(_u16_temp_val + 1)
                                           ;	.line	431; "MC30P8160.c"	u16_temp_val += u16_get_val;
                                           	MOVAR	_u16_get_val
                                           	ADDRA	_u16_temp_val
                                           	MOVAR	(_u16_get_val + 1)
                                           	JBCLR	STATUS,0
                                           	JZAR	(_u16_get_val + 1)
                                           	ADDRA	(_u16_temp_val + 1)
                                           ;;shiftRight_Left2ResultLit:5339: shCount=1, size=2, sign=0, same=0, offr=0
                                           ;	.line	432; "MC30P8160.c"	u16_get_val_Temp = u16_temp_val >> 2;
                                           	BCLR	STATUS,0
                                           	RRAR	(_u16_temp_val + 1)
                                           	MOVRA	(_u16_get_val_Temp + 1)
                                           	RRAR	_u16_temp_val
                                           	MOVRA	_u16_get_val_Temp
                                           ;;shiftRight_Left2ResultLit:5339: shCount=1, size=2, sign=0, same=1, offr=0
                                           	BCLR	STATUS,0
                                           	RRR	(_u16_get_val_Temp + 1)
                                           	RRR	_u16_get_val_Temp
                                           ;	.line	434; "MC30P8160.c"	u16_get_val = u16_get_val_Temp;
                                           	MOVAR	_u16_get_val_Temp
                                           	MOVRA	_u16_get_val
                                           	MOVAR	(_u16_get_val_Temp + 1)
                                           	MOVRA	(_u16_get_val + 1)
                                           ;	.line	436; "MC30P8160.c"	if(Pre_T_Key0_Release) 
                                           	JBSET	_flag1,1
                                           	GOTO	_00233_DS_
                                           ;	.line	438; "MC30P8160.c"	u16_Press_val = u16_get_val + Const_SEN_T_Key0;
                                           	MOVAI	0x32
                                           	ADDAR	_u16_get_val
                                           	MOVRA	_u16_Press_val
                                           	CLRR	(_u16_Press_val + 1)
                                           	RLR	(_u16_Press_val + 1)
                                           	MOVAR	(_u16_get_val + 1)
                                           	ADDRA	(_u16_Press_val + 1)
                                           ;	.line	440; "MC30P8160.c"	if(u16_Press_val < u16_TK0_environment_val)	 //按下
                                           	MOVAR	(_u16_TK0_environment_val + 1)
                                           	RSUBAR	(_u16_Press_val + 1)
                                           	JBSET	STATUS,2
                                           	GOTO	_00298_DS_
                                           	MOVAR	_u16_TK0_environment_val
                                           	RSUBAR	_u16_Press_val
                                           _00298_DS_
                                           	JBCLR	STATUS,0
                                           	GOTO	_00222_DS_
                                           ;;genSkipc:3291: created from rifx:013B5EFC
                                           ;	.line	442; "MC30P8160.c"	SleepCnt = 0xFF;
                                           	MOVAI	0xff
                                           	MOVRA	_SleepCnt
                                           ;	.line	443; "MC30P8160.c"	FilterCnt_TK0 ++;
                                           	INCR	_FilterCnt_TK0
                                           ;;unsigned compare: left < lit(0x8=8), size=1
                                           ;	.line	444; "MC30P8160.c"	if(FilterCnt_TK0 >= FilterCnt_Value)
                                           	MOVAI	0x08
                                           	RSUBAR	_FilterCnt_TK0
                                           	JBSET	STATUS,0
                                           	GOTO	_00235_DS_
                                           ;;genSkipc:3291: created from rifx:013B5EFC
                                           ;	.line	446; "MC30P8160.c"	T_Key0_Signal = 1;     	   	   	   	
                                           	BSET	_flag1,0
                                           ;	.line	447; "MC30P8160.c"	Pre_T_Key0_Release = 0;
                                           	BCLR	_flag1,1
                                           ;	.line	448; "MC30P8160.c"	u16_release_val_TK0 = u16_TK0_environment_val - Const_SEN_T_Key0; //   	   	   	   	
                                           	MOVAI	0xce
                                           	ADDAR	_u16_TK0_environment_val
                                           	MOVRA	_u16_release_val_TK0
                                           	MOVAI	0xff
                                           	MOVRA	(_u16_release_val_TK0 + 1)
                                           	MOVAR	(_u16_TK0_environment_val + 1)
                                           	JBCLR	STATUS,0
                                           	JZAR	(_u16_TK0_environment_val + 1)
                                           	ADDRA	(_u16_release_val_TK0 + 1)
                                           	GOTO	_00235_DS_
                                           _00222_DS_
                                           ;	.line	453; "MC30P8160.c"	FilterCnt_TK0 = 0;
                                           	CLRR	_FilterCnt_TK0
                                           ;	.line	454; "MC30P8160.c"	if(SleepCnt)
                                           	MOVAI	0x00
                                           	ORAR	_SleepCnt
                                           	JBCLR	STATUS,2
                                           	GOTO	_00215_DS_
                                           ;	.line	456; "MC30P8160.c"	if(TK0_Filter_Flag)
                                           	JBSET	_flag1,3
                                           	GOTO	_00208_DS_
                                           ;	.line	458; "MC30P8160.c"	TK0_Filter_Flag = 0;
                                           	BCLR	_flag1,3
                                           	GOTO	_00209_DS_
                                           _00208_DS_
                                           ;	.line	462; "MC30P8160.c"	TK0_Filter_Flag = 1;
                                           	BSET	_flag1,3
                                           ;	.line	463; "MC30P8160.c"	u16_TK0_environment_val_Sum += u16_get_val;
                                           	MOVAR	_u16_get_val
                                           	MOVRA	r0x1022
                                           	MOVAR	(_u16_get_val + 1)
                                           	MOVRA	r0x1023
                                           	CLRR	r0x1025
                                           	CLRR	r0x1024
                                           	MOVAR	r0x1022
                                           	ADDRA	_u16_TK0_environment_val_Sum
                                           	MOVAR	r0x1023
                                           	JBCLR	STATUS,0
                                           	JZAR	r0x1023
                                           	ADDRA	(_u16_TK0_environment_val_Sum + 1)
                                           	MOVAR	r0x1025
                                           	JBCLR	STATUS,0
                                           	JZAR	r0x1025
                                           	ADDRA	(_u16_TK0_environment_val_Sum + 2)
                                           	MOVAR	r0x1024
                                           	JBCLR	STATUS,0
                                           	JZAR	r0x1024
                                           	ADDRA	(_u16_TK0_environment_val_Sum + 3)
                                           ;	.line	464; "MC30P8160.c"	TK0_Filter_Cnt++;
                                           	INCR	_TK0_Filter_Cnt
                                           ;;swapping arguments (AOP_TYPEs 1/3)
                                           ;;unsigned compare: left >= lit(0x10=16), size=1
                                           _00209_DS_
                                           ;	.line	467; "MC30P8160.c"	if(TK0_Filter_Cnt > 15)
                                           	MOVAI	0x10
                                           	RSUBAR	_TK0_Filter_Cnt
                                           	JBSET	STATUS,0
                                           	GOTO	_00216_DS_
                                           ;;genSkipc:3291: created from rifx:013B5EFC
                                           ;	.line	469; "MC30P8160.c"	TK0_Filter_Cnt = 0;
                                           	CLRR	_TK0_Filter_Cnt
                                           ;	.line	470; "MC30P8160.c"	u16_TK0_environment_val = u16_TK0_environment_val_Sum >> 4;
                                           	SWAPAR	_u16_TK0_environment_val_Sum
                                           	ANDAI	0x0f
                                           	MOVRA	r0x1022
                                           	SWAPAR	(_u16_TK0_environment_val_Sum + 1)
                                           	MOVRA	r0x1023
                                           	ANDAI	0xf0
                                           	ORRA	r0x1022
                                           	XORRA	r0x1023
                                           	SWAPAR	(_u16_TK0_environment_val_Sum + 2)
                                           	MOVRA	r0x1025
                                           	ANDAI	0xf0
                                           	ORRA	r0x1023
                                           	XORRA	r0x1025
                                           	SWAPAR	(_u16_TK0_environment_val_Sum + 3)
                                           	MOVRA	r0x1024
                                           	ANDAI	0xf0
                                           	ORRA	r0x1025
                                           	XORRA	r0x1024
                                           	MOVAR	r0x1022
                                           	MOVRA	_u16_TK0_environment_val
                                           	MOVAR	r0x1023
                                           	MOVRA	(_u16_TK0_environment_val + 1)
                                           ;	.line	471; "MC30P8160.c"	u16_TK0_environment_val_Sum = 0;
                                           	CLRR	_u16_TK0_environment_val_Sum
                                           	CLRR	(_u16_TK0_environment_val_Sum + 1)
                                           	CLRR	(_u16_TK0_environment_val_Sum + 2)
                                           	CLRR	(_u16_TK0_environment_val_Sum + 3)
                                           ;	.line	472; "MC30P8160.c"	if(TK0_Release_Flag)
                                           	JBSET	_flag1,2
                                           	GOTO	_00216_DS_
                                           ;	.line	474; "MC30P8160.c"	TK0_Release_Flag = 0;
                                           	BCLR	_flag1,2
                                           ;	.line	475; "MC30P8160.c"	u16_TK0_environment_val = u16_get_val;
                                           	MOVAR	_u16_get_val
                                           	MOVRA	_u16_TK0_environment_val
                                           	MOVAR	(_u16_get_val + 1)
                                           	MOVRA	(_u16_TK0_environment_val + 1)
                                           	GOTO	_00216_DS_
                                           _00215_DS_
                                           ;	.line	481; "MC30P8160.c"	u16_TK0_environment_val = u16_get_val;
                                           	MOVAR	_u16_get_val
                                           	MOVRA	_u16_TK0_environment_val
                                           	MOVAR	(_u16_get_val + 1)
                                           	MOVRA	(_u16_TK0_environment_val + 1)
                                           ;	.line	482; "MC30P8160.c"	u16_TK0_environment_val_Sum = 0;
                                           	CLRR	_u16_TK0_environment_val_Sum
                                           	CLRR	(_u16_TK0_environment_val_Sum + 1)
                                           	CLRR	(_u16_TK0_environment_val_Sum + 2)
                                           	CLRR	(_u16_TK0_environment_val_Sum + 3)
                                           ;	.line	483; "MC30P8160.c"	TK0_Filter_Cnt = 0;
                                           	CLRR	_TK0_Filter_Cnt
                                           _00216_DS_
                                           ;	.line	486; "MC30P8160.c"	if(TK0_Release_Flag == 1)
                                           	CLRR	r0x1022
                                           	JBCLR	_flag1,2
                                           	INCR	r0x1022
                                           	MOVAR	r0x1022
                                           	XORAI	0x01
                                           	JBSET	STATUS,2
                                           	GOTO	_00235_DS_
                                           ;	.line	488; "MC30P8160.c"	if(u16_get_val > u16_TK0_environment_val)
                                           	MOVAR	(_u16_get_val + 1)
                                           	RSUBAR	(_u16_TK0_environment_val + 1)
                                           	JBSET	STATUS,2
                                           	GOTO	_00301_DS_
                                           	MOVAR	_u16_get_val
                                           	RSUBAR	_u16_TK0_environment_val
                                           _00301_DS_
                                           	JBCLR	STATUS,0
                                           	GOTO	_00235_DS_
                                           ;;genSkipc:3291: created from rifx:013B5EFC
                                           ;	.line	490; "MC30P8160.c"	u16_TK0_environment_val = u16_get_val;
                                           	MOVAR	_u16_get_val
                                           	MOVRA	_u16_TK0_environment_val
                                           	MOVAR	(_u16_get_val + 1)
                                           	MOVRA	(_u16_TK0_environment_val + 1)
                                           	GOTO	_00235_DS_
                                           _00233_DS_
                                           ;	.line	497; "MC30P8160.c"	if(u16_get_val < u16_get_val_Min)
                                           	MOVAR	(_u16_get_val_Min + 1)
                                           	RSUBAR	(_u16_get_val + 1)
                                           	JBSET	STATUS,2
                                           	GOTO	_00302_DS_
                                           	MOVAR	_u16_get_val_Min
                                           	RSUBAR	_u16_get_val
                                           _00302_DS_
                                           	JBCLR	STATUS,0
                                           	GOTO	_00225_DS_
                                           ;;genSkipc:3291: created from rifx:013B5EFC
                                           ;	.line	499; "MC30P8160.c"	u16_get_val_Min = u16_get_val;
                                           	MOVAR	_u16_get_val
                                           	MOVRA	_u16_get_val_Min
                                           	MOVAR	(_u16_get_val + 1)
                                           	MOVRA	(_u16_get_val_Min + 1)
                                           _00225_DS_
                                           ;	.line	502; "MC30P8160.c"	u16_temp_val = u16_release_val_TK0 + Const_SEN_T_Key0 + u16_get_val_Min;
                                           	MOVAI	0x32
                                           	ADDAR	_u16_release_val_TK0
                                           	MOVRA	r0x1022
                                           	CLRR	r0x1023
                                           	RLR	r0x1023
                                           	MOVAR	(_u16_release_val_TK0 + 1)
                                           	ADDRA	r0x1023
                                           	MOVAR	_u16_get_val_Min
                                           	ADDAR	r0x1022
                                           	MOVRA	_u16_temp_val
                                           	MOVAR	r0x1023
                                           	MOVRA	(_u16_temp_val + 1)
                                           	MOVAR	(_u16_get_val_Min + 1)
                                           	JBCLR	STATUS,0
                                           	JZAR	(_u16_get_val_Min + 1)
                                           	ADDRA	(_u16_temp_val + 1)
                                           ;;shiftRight_Left2ResultLit:5339: shCount=1, size=2, sign=0, same=1, offr=0
                                           ;	.line	503; "MC30P8160.c"	u16_temp_val = u16_temp_val >> 1;
                                           	BCLR	STATUS,0
                                           	RRR	(_u16_temp_val + 1)
                                           	RRR	_u16_temp_val
                                           ;	.line	505; "MC30P8160.c"	if(u16_get_val > u16_release_val_TK0 || u16_get_val > u16_temp_val)	//松开
                                           	MOVAR	(_u16_get_val + 1)
                                           	RSUBAR	(_u16_release_val_TK0 + 1)
                                           	JBSET	STATUS,2
                                           	GOTO	_00303_DS_
                                           	MOVAR	_u16_get_val
                                           	RSUBAR	_u16_release_val_TK0
                                           _00303_DS_
                                           	JBSET	STATUS,0
                                           	GOTO	_00228_DS_
                                           ;;genSkipc:3291: created from rifx:013B5EFC
                                           	MOVAR	(_u16_get_val + 1)
                                           	RSUBAR	(_u16_temp_val + 1)
                                           	JBSET	STATUS,2
                                           	GOTO	_00304_DS_
                                           	MOVAR	_u16_get_val
                                           	RSUBAR	_u16_temp_val
                                           _00304_DS_
                                           	JBCLR	STATUS,0
                                           	GOTO	_00229_DS_
                                           ;;genSkipc:3291: created from rifx:013B5EFC
                                           _00228_DS_
                                           ;	.line	507; "MC30P8160.c"	FilterCnt_TK0 ++;
                                           	INCR	_FilterCnt_TK0
                                           ;;unsigned compare: left < lit(0x4=4), size=1
                                           ;	.line	508; "MC30P8160.c"	if(FilterCnt_TK0 >= 4) //触摸松开滤波 20ms
                                           	MOVAI	0x04
                                           	RSUBAR	_FilterCnt_TK0
                                           	JBSET	STATUS,0
                                           	GOTO	_00235_DS_
                                           ;;genSkipc:3291: created from rifx:013B5EFC
                                           ;	.line	510; "MC30P8160.c"	FilterCnt_TK0 = 0;
                                           	CLRR	_FilterCnt_TK0
                                           ;	.line	511; "MC30P8160.c"	TK0_release_();
                                           	CALL	_TK0_release_
                                           	GOTO	_00235_DS_
                                           _00229_DS_
                                           ;	.line	516; "MC30P8160.c"	FilterCnt_TK0 = 0;
                                           	CLRR	_FilterCnt_TK0
                                           _00235_DS_
                                           ;	.line	519; "MC30P8160.c"	}
                                           	RETURN	
                                           ; exit point of _TK0_Scan
                                           
                                           ;***
                                           ;  pBlock Stats: dbName = C
                                           ;***
                                           ;entry:  _TK0_release_	;Function start
                                           ; 2 exit points
                                           ;has an exit
                                           ;; Starting pCode block
                                           _TK0_release_	;Function start
                                           ; 2 exit points
                                           ;	.line	389; "MC30P8160.c"	T_Key0_Signal = 0;
                                           	BCLR	_flag1,0
                                           ;	.line	391; "MC30P8160.c"	Pre_T_Key0_Release = 1;	   	   	   	   	
                                           	BSET	_flag1,1
                                           ;	.line	392; "MC30P8160.c"	u16_TK0_environment_val = u16_get_val;
                                           	MOVAR	_u16_get_val
                                           	MOVRA	_u16_TK0_environment_val
                                           	MOVAR	(_u16_get_val + 1)
                                           	MOVRA	(_u16_TK0_environment_val + 1)
                                           ;	.line	393; "MC30P8160.c"	TK0_Filter_Cnt = 0;
                                           	CLRR	_TK0_Filter_Cnt
                                           ;	.line	394; "MC30P8160.c"	u16_TK0_environment_val_Sum = 0;
                                           	CLRR	_u16_TK0_environment_val_Sum
                                           	CLRR	(_u16_TK0_environment_val_Sum + 1)
                                           	CLRR	(_u16_TK0_environment_val_Sum + 2)
                                           	CLRR	(_u16_TK0_environment_val_Sum + 3)
                                           ;	.line	396; "MC30P8160.c"	TK0_Release_Flag = 1;
                                           	BSET	_flag1,2
                                           ;	.line	397; "MC30P8160.c"	u16_get_val_Min = 0xFFFF;
                                           	MOVAI	0xff
                                           	MOVRA	_u16_get_val_Min
                                           	MOVRA	(_u16_get_val_Min + 1)
                                           ;	.line	398; "MC30P8160.c"	}
                                           	RETURN	
                                           ; exit point of _TK0_release_
                                           
                                           ;***
                                           ;  pBlock Stats: dbName = C
                                           ;***
                                           ;entry:  _TK0_Init	;Function start
                                           ; 2 exit points
                                           ;has an exit
                                           ;; Starting pCode block
                                           _TK0_Init	;Function start
                                           ; 2 exit points
                                           ;	.line	360; "MC30P8160.c"	TKCR1 = 0x00; // 关闭触摸
                                           	CLRR	_TKCR1
                                           ;	.line	361; "MC30P8160.c"	TKCNTH = 0;
                                           	CLRR	_TKCNTH
                                           ;	.line	362; "MC30P8160.c"	TKCNTL = 0;
                                           	CLRR	_TKCNTL
                                           ;	.line	364; "MC30P8160.c"	T2MOD = 1;   // 单次计时模式（触摸模式）
                                           	BSET	_T2CRbits,6
                                           ;	.line	366; "MC30P8160.c"	T2CR = 0x4A;   // 01_0_01_010 FOSC 16M 4分频 4M
                                           	MOVAI	0x4a
                                           	MOVRA	_T2CR
                                           ;	.line	373; "MC30P8160.c"	TKCR1 &= 0xFC; // 写0000_0000 bit0-1: 00 TK0 选择相应按键输入通道
                                           	MOVAI	0xfc
                                           	ANDRA	_TKCR1
                                           ;	.line	374; "MC30P8160.c"	TKCR0 = 0xF4;  // 写1111_0000 bit0-3: 000 TK0 选择 4.8MHz
                                           	MOVAI	0xf4
                                           	MOVRA	_TKCR0
                                           ;	.line	377; "MC30P8160.c"	TKCFL = 1; 	   // TKM 计数时钟滤波时间（典型值）为 50ns；
                                           	BSET	_TKCR0bits,5
                                           ;	.line	380; "MC30P8160.c"	TKFJE = 0; 	// 关闭 TKM 自动跳频功能
                                           	BCLR	_TKCR0bits,3
                                           ;	.line	381; "MC30P8160.c"	T2EN = 1;  	// 开启定时器 T2
                                           	BSET	_T2CRbits,7
                                           ;	.line	382; "MC30P8160.c"	TKCON = 1; 	// 允许 TKM 电容充放计数
                                           	BSET	_TKCR0bits,6
                                           ;	.line	383; "MC30P8160.c"	TKEN = 1;  	// 开启 TKM  	   	  
                                           	BSET	_TKCR0bits,7
                                           ;	.line	384; "MC30P8160.c"	}
                                           	RETURN	
                                           ; exit point of _TK0_Init
                                           
                                           ;***
                                           ;  pBlock Stats: dbName = C
                                           ;***
                                           ;entry:  _TOUCH_Init	;Function start
                                           ; 2 exit points
                                           ;has an exit
                                           ;; Starting pCode block
                                           _TOUCH_Init	;Function start
                                           ; 2 exit points
                                           ;	.line	355; "MC30P8160.c"	__endasm;
                                           	BCLR	TMRCR,3
                                           	MOVAI	00000000B
                                           	MOVRA	TKCR0
                                           	MOVAI	11111111B
                                           	MOVRA	TKCR2
                                           	RETURN
                                           ;	.line	356; "MC30P8160.c"	}
                                           	RETURN	
                                           ; exit point of _TOUCH_Init
                                           
                                           ;***
                                           ;  pBlock Stats: dbName = C
                                           ;***
                                           ;entry:  _TK_Sens_Threshold_value_Detection	;Function start
                                           ; 2 exit points
                                           ;has an exit
                                           ;functions called:
                                           ;   _Delay_us
                                           ;   _Delay_us
                                           ;; Starting pCode block
                                           _TK_Sens_Threshold_value_Detection	;Function start
                                           ; 2 exit points
                                           ;	.line	294; "MC30P8160.c"	u16_temp_val = 0;
                                           	CLRR	_u16_temp_val
                                           	CLRR	(_u16_temp_val + 1)
                                           ;	.line	296; "MC30P8160.c"	DDR1 &= 0xDF; // P15 设输出 0 输出
                                           	BCLR	_DDR1,5
                                           ;	.line	297; "MC30P8160.c"	PUCON |= 0x20; //  1：端口内部上拉电阻无效；  0：端口内部上拉电阻有效
                                           	BSET	_PUCON,5
                                           ;	.line	301; "MC30P8160.c"	Delay_us(0xff); //
                                           	MOVAI	0xff
                                           	CALL	_Delay_us
                                           ;	.line	302; "MC30P8160.c"	DDR1 |= 0x20; // P15 设输出  1 输入     	
                                           	BSET	_DDR1,5
                                           ;	.line	303; "MC30P8160.c"	P1ADCR &= 0xDF;   //  0 使能端口的数字 I/O 功能； 1 关闭端口的数字 I/O 功能；
                                           	BCLR	_P1ADCR,5
                                           ;	.line	304; "MC30P8160.c"	PUCON &= 0xDF; 	  //  1：端口内部上拉电阻无效；    0：端口内部上拉电阻有效
                                           	BCLR	_PUCON,5
                                           _00139_DS_
                                           ;	.line	306; "MC30P8160.c"	while(P15D == 0)
                                           	JBCLR	_P1bits,5
                                           	GOTO	_00141_DS_
                                           ;	.line	308; "MC30P8160.c"	u16_temp_val ++;
                                           	INCR	_u16_temp_val
                                           	JBCLR	STATUS,2
                                           	INCR	(_u16_temp_val + 1)
                                           	GOTO	_00139_DS_
                                           ;;swapping arguments (AOP_TYPEs 1/3)
                                           ;;unsigned compare: left >= lit(0x191=401), size=2
                                           _00141_DS_
                                           ;	.line	312; "MC30P8160.c"	if(u16_temp_val > 400) // 100nF    	   	高灵敏度
                                           	MOVAI	0x01
                                           	RSUBAR	(_u16_temp_val + 1)
                                           	JBSET	STATUS,2
                                           	GOTO	_00180_DS_
                                           	MOVAI	0x91
                                           	RSUBAR	_u16_temp_val
                                           _00180_DS_
                                           	JBSET	STATUS,0
                                           	GOTO	_00152_DS_
                                           ;;genSkipc:3291: created from rifx:013B5EFC
                                           ;	.line	314; "MC30P8160.c"	T2LOADH = TK_SENS_LEVEL_H5;
                                           	MOVAI	0x17
                                           	MOVRA	_T2LOADH
                                           	GOTO	_00153_DS_
                                           ;;swapping arguments (AOP_TYPEs 1/3)
                                           ;;unsigned compare: left >= lit(0x51=81), size=2
                                           _00152_DS_
                                           ;	.line	316; "MC30P8160.c"	else if(u16_temp_val > 80) // 22或27nF   中灵敏度
                                           	MOVAI	0x00
                                           	RSUBAR	(_u16_temp_val + 1)
                                           	JBSET	STATUS,2
                                           	GOTO	_00181_DS_
                                           	MOVAI	0x51
                                           	RSUBAR	_u16_temp_val
                                           _00181_DS_
                                           	JBSET	STATUS,0
                                           	GOTO	_00149_DS_
                                           ;;genSkipc:3291: created from rifx:013B5EFC
                                           ;	.line	318; "MC30P8160.c"	T2LOADH = TK_SENS_LEVEL_H4;
                                           	MOVAI	0x12
                                           	MOVRA	_T2LOADH
                                           	GOTO	_00153_DS_
                                           ;;swapping arguments (AOP_TYPEs 1/3)
                                           ;;unsigned compare: left >= lit(0x10=16), size=2
                                           _00149_DS_
                                           ;	.line	320; "MC30P8160.c"	else if(u16_temp_val > 15) // 4.7nF   中灵敏度
                                           	MOVAI	0x00
                                           	RSUBAR	(_u16_temp_val + 1)
                                           	JBSET	STATUS,2
                                           	GOTO	_00182_DS_
                                           	MOVAI	0x10
                                           	RSUBAR	_u16_temp_val
                                           _00182_DS_
                                           	JBSET	STATUS,0
                                           	GOTO	_00146_DS_
                                           ;;genSkipc:3291: created from rifx:013B5EFC
                                           ;	.line	322; "MC30P8160.c"	T2LOADH = TK_SENS_LEVEL_H3;
                                           	MOVAI	0x0e
                                           	MOVRA	_T2LOADH
                                           	GOTO	_00153_DS_
                                           ;;swapping arguments (AOP_TYPEs 1/3)
                                           ;;unsigned compare: left >= lit(0x3=3), size=2
                                           _00146_DS_
                                           ;	.line	324; "MC30P8160.c"	else if(u16_temp_val > 2) // 1nF   中灵敏度
                                           	MOVAI	0x00
                                           	RSUBAR	(_u16_temp_val + 1)
                                           	JBSET	STATUS,2
                                           	GOTO	_00183_DS_
                                           	MOVAI	0x03
                                           	RSUBAR	_u16_temp_val
                                           _00183_DS_
                                           	JBSET	STATUS,0
                                           	GOTO	_00143_DS_
                                           ;;genSkipc:3291: created from rifx:013B5EFC
                                           ;	.line	326; "MC30P8160.c"	T2LOADH = TK_SENS_LEVEL_H2;
                                           	MOVAI	0x0c
                                           	MOVRA	_T2LOADH
                                           	GOTO	_00153_DS_
                                           _00143_DS_
                                           ;	.line	330; "MC30P8160.c"	T2LOADH = TK_SENS_LEVEL_H1;    	   	
                                           	MOVAI	0x0a
                                           	MOVRA	_T2LOADH
                                           _00153_DS_
                                           ;	.line	333; "MC30P8160.c"	T2LOADL = TK_SENS_LEVEL_L;
                                           	MOVAI	0xff
                                           	MOVRA	_T2LOADL
                                           ;	.line	337; "MC30P8160.c"	}
                                           	RETURN	
                                           ; exit point of _TK_Sens_Threshold_value_Detection
                                           
                                           ;***
                                           ;  pBlock Stats: dbName = C
                                           ;***
                                           ;entry:  _IO_Init	;Function start
                                           ; 2 exit points
                                           ;has an exit
                                           ;; Starting pCode block
                                           _IO_Init	;Function start
                                           ; 2 exit points
                                           ;	.line	277; "MC30P8160.c"	P1 = 0x00; //  	P1nD C P1n 端口数据位（n=5-0）
                                           	CLRR	_P1
                                           ;	.line	280; "MC30P8160.c"	DDR1 = 0x33;   	   // DR1n C P1n 端口方向控制位（n=5-0）  0： 端口作为输出口
                                           	MOVAI	0x33
                                           	MOVRA	_DDR1
                                           ;	.line	284; "MC30P8160.c"	P1ADCR = 0x01;   // 0 使能端口的数字 I/O 功能； 1 关闭端口的数字 I/O 功能；
                                           	MOVAI	0x01
                                           	MOVRA	_P1ADCR
                                           ;	.line	286; "MC30P8160.c"	PUCON = 0xFF;  	 //  1：端口内部上拉电阻无效
                                           	MOVAI	0xff
                                           	MOVRA	_PUCON
                                           ;	.line	287; "MC30P8160.c"	PDCON = 0xFF; //  1：端口内部下拉电阻无效；  0：端口内部下拉电阻有效  	  	
                                           	MOVAI	0xff
                                           	MOVRA	_PDCON
                                           ;	.line	289; "MC30P8160.c"	ODCON = 0x00; // 0： 端口输出时为推挽输出   1 开漏输出  
                                           	CLRR	_ODCON
                                           ;	.line	290; "MC30P8160.c"	}
                                           	RETURN	
                                           ; exit point of _IO_Init
                                           
                                           ;***
                                           ;  pBlock Stats: dbName = C
                                           ;***
                                           ;entry:  _T1_PWM_Init	;Function start
                                           ; 2 exit points
                                           ;has an exit
                                           ;; Starting pCode block
                                           _T1_PWM_Init	;Function start
                                           ; 2 exit points
                                           ;	.line	258; "MC30P8160.c"	T1CR = 0x8A;    // 100_01_001 使能T1、时钟为FOSC、4分频
                                           	MOVAI	0x8a
                                           	MOVRA	_T1CR
                                           ;	.line	259; "MC30P8160.c"	T1CNT = 255 - 1;
                                           	MOVAI	0xfe
                                           	MOVRA	_T1CNT
                                           ;	.line	260; "MC30P8160.c"	T1LOAD = 255 - 1;  	//16k
                                           	MOVAI	0xfe
                                           	MOVRA	_T1LOAD
                                           ;	.line	271; "MC30P8160.c"	}
                                           	RETURN	
                                           ; exit point of _T1_PWM_Init
                                           
                                           ;***
                                           ;  pBlock Stats: dbName = C
                                           ;***
                                           ;entry:  _T0_Time_Init	;Function start
                                           ; 2 exit points
                                           ;has an exit
                                           ;; Starting pCode block
                                           _T0_Time_Init	;Function start
                                           ; 2 exit points
                                           ;	.line	253; "MC30P8160.c"	__endasm;
                                           	MOVAI	00000111B
                                           	MOVRA	T0CR
                                           	MOVAI	247
                                           	CLRR	T0CNT
                                           ;	.line	254; "MC30P8160.c"	}
                                           	RETURN	
                                           ; exit point of _T0_Time_Init
                                           
                                           ;***
                                           ;  pBlock Stats: dbName = C
                                           ;***
                                           ;entry:  _Init_Sys	;Function start
                                           ; 2 exit points
                                           ;has an exit
                                           ;; Starting pCode block
                                           _Init_Sys	;Function start
                                           ; 2 exit points
                                           ;	.line	238; "MC30P8160.c"	__endasm;
                                           SET_OPTION:
                                           	MOVAI	00000001B
                                           	MOVRA	INTE
                                           	BSET	INTE,7
                                           	MOVAI	0x00
                                           	MOVRA	INTF
                                           	MOVAI	0x00
                                           	MOVRA	P1KBCR
                                           	RETURN
                                           	
                                           ;	.line	239; "MC30P8160.c"	} 
                                           	RETURN	
                                           ; exit point of _Init_Sys
                                           
                                           ;***
                                           ;  pBlock Stats: dbName = C
                                           ;***
                                           ;entry:  _Clr_Ram	;Function start
                                           ; 2 exit points
                                           ;has an exit
                                           ;; Starting pCode block
                                           _Clr_Ram	;Function start
                                           ; 2 exit points
                                           ;	.line	183; "MC30P8160.c"	__endasm;
                                           CLR_RAM:
                                           	MOVAI	0X4F
                                           	MOVRA	FSR
                                           	MOVAI	0X3F
                                           	MOVRA	0X4F ;
                                           CLR_RAM_LOOP:
                                           	DECR	FSR
                                           	CLRR	INDF
                                           	DJZR	0X4F
                                           	GOTO	CLR_RAM_LOOP
                                           	RETURN
                                           	
                                           ;	.line	184; "MC30P8160.c"	}  
                                           	RETURN	
                                           ; exit point of _Clr_Ram
                                           
                                           ;***
                                           ;  pBlock Stats: dbName = C
                                           ;***
                                           ;entry:  _Delay_us	;Function start
                                           ; 2 exit points
                                           ;has an exit
                                           ;2 compiler assigned registers:
                                           ;   r0x1022
                                           ;   r0x1023
                                           ;; Starting pCode block
                                           _Delay_us	;Function start
                                           ; 2 exit points
                                           ;	.line	108; "MC30P8160.c"	void Delay_us(unsigned char i)
                                           	MOVRA	r0x1022
                                           _00114_DS_
                                           ;	.line	110; "MC30P8160.c"	while(i--);
                                           	MOVAR	r0x1022
                                           	MOVRA	r0x1023
                                           	DECR	r0x1022
                                           	MOVAI	0x00
                                           	ORAR	r0x1023
                                           	JBSET	STATUS,2
                                           	GOTO	_00114_DS_
                                           ;	.line	111; "MC30P8160.c"	}
                                           	RETURN	
                                           ; exit point of _Delay_us
                                           
                                           ;***
                                           ;  pBlock Stats: dbName = C
                                           ;***
                                           ;entry:  _Delay_us_2	;Function start
                                           ; 2 exit points
                                           ;has an exit
                                           ;3 compiler assigned registers:
                                           ;   r0x1022
                                           ;   STK00
                                           ;   r0x1023
                                           ;; Starting pCode block
                                           _Delay_us_2	;Function start
                                           ; 2 exit points
                                           ;	.line	101; "MC30P8160.c"	void Delay_us_2(uint16_t i)
                                           	MOVRA	r0x1022
                                           	MOVAR	STK00
                                           	MOVRA	r0x1023
                                           _00107_DS_
                                           ;	.line	103; "MC30P8160.c"	for(; i>0; i--)
                                           	MOVAR	r0x1023
                                           	ORAR	r0x1022
                                           	JBCLR	STATUS,2
                                           	GOTO	_00109_DS_
                                           ;	.line	105; "MC30P8160.c"	WDT_Clear();
                                           	CLRWDT	
                                           ;	.line	103; "MC30P8160.c"	for(; i>0; i--)
                                           	MOVAI	0xff
                                           	ADDRA	r0x1023
                                           	JBSET	STATUS,0
                                           	DECR	r0x1022
                                           	GOTO	_00107_DS_
                                           _00109_DS_
                                           ;	.line	107; "MC30P8160.c"	}
                                           	RETURN	
                                           ; exit point of _Delay_us_2
                                           
                                           
                                           ;	code size estimation:
                                           ;	  752+    0 =   752 instructions ( 1504 byte)
                                           
                                           	end


MEMORY USAGE MAP ('X' = Used,  '-' = Unused)

0000 : XXXX------------ XXXXXXXXXXXXXXXX XXXXXXXXXXXXXXXX XXXXXXXXXXXXXXXX
0040 : XXXXXXXXXXXXXXXX XXXXXXXXXXXXXXXX XXXXXXXXXXXXXXXX XXXXXXXXXXXXXXXX
0080 : XXXXXXXXXXXXXXXX XXXXXXXXXXXXXXXX XXXXXXXXXXXXXXXX XXXXXXXXXXXXXXXX
00C0 : XXXXXXXXXXXXXXXX XXXXXXXXXXXXXXXX XXXXXXXXXXXXXXXX XXXXXXXXXXXXXXXX
0100 : XXXXXXXXXXXXXXXX XXXXXXXXXXXXXXXX XXXXXXXXXXXXXXXX XXXXXXXXXXXXXXXX
0140 : XXXXXXXXXXXXXXXX XXXXXXXXXXXXXXXX XXXXXXXXXXXXXXXX XXXXXXXXXXXXXXXX
0180 : XXXXXXXXXXXXXXXX XXXXXXXXXXXXXXXX XXXXXXXXXXXXXXXX XXXXXXXXXXXXXXXX
01C0 : XXXXXXXXXXXXXXXX XXXXXXXXXXXXXXXX XXXXXXXXXXXXXXXX XXXXXXXXXXXXXXXX
0200 : XXXXXXXXXXXXXXXX XXXXXXXXXXXXXXXX XXXXXXXXXXXXXXXX XXXXXXXXXXXXXXXX
0240 : XXXXXXXXXXXXXXXX XXXXXXXXXXXXXXXX XXXXXXXXXXXXXXXX XXXXXXXXXXXXXXXX
0280 : XXXXXXXXXXXXXXXX XXXXXXXXXXXXXXXX XXXXXXXXXXXXXXXX XXXXXXXXXXXXXXXX
02C0 : XXXXXXXXXXXXXXXX XXXXXXXXXXXXXXXX XXXXXXXXXXXXXXXX XXXXXXXXXXXXXXXX
0300 : XXXXXXXXXXXXXXXX XXXXXXXXXXXXXXXX XXXXXXXXXXXXXXXX XXXXXXXXXXXXXXXX
0340 : XXXXXXXXXXXXXXXX XXXXXXXXXXXXXXXX XXXXXXXXXXXXXXXX XXXXXXXXXXXXXXXX
0380 : XXXXXXXXXXXXXXXX XXXXXXXXXXXXXXXX XXXXXXXXXXXXXXXX XXXXXXXXXXXXXXXX
03C0 : XXXXXXXXXXXXXXXX XXXXXXXXXXXXXXXX XXXXXXXXXXXXXXXX XXXXXXXXXXXXXXXX
0400 : XXXXXXXXXXXXXXXX XXXXXXXXXXXXXXXX XXXXXXXXXXXXXXXX XXXXXXXXXXXXXXXX
0440 : XXXXXXXXXXXXXXXX XXXXXXXXXXXXXXXX XXXXXXXXXXXXXXXX XXXXXXXXXXXXXXXX
0480 : XXXXXXXXXXXXXXXX XXXXXXXXXXXXXXXX XXXXXXXXXXXXXXXX XXXXXXXXXXXXXXXX
04C0 : XXXXXXXXXXXXXXXX XXXXXXXXXXXXXXXX XXXXXXXXXXXXXXXX XXXXXXXXXXXXXXXX
0500 : XXXXXXXXXXXXXXXX XXXXXXXXXXXXXXXX XXXXXXXXXXXXXXXX XXXXXXXXXXXXXXXX
0540 : XXXXXXXXXXXXXXXX XXXXXXXXXXXXXXXX XXXXXXXXXXXXXXXX XXXXXXXXXXXXXXXX
0580 : XXXXXXXXXXXXXXXX XXXXXXXXXXXXXXXX XXXXXXXXXXXXXXXX XXXXXXXXXXXXXXXX
05C0 : XXXXXXXXXXXXXXXX XXXXXXXXXXXXXXXX XXXXXXXXXXXXXXXX XXXXXXXXXXXXXXXX
0600 : XXXXXXXXXXXXXXXX XXXXXXXXXXXXXXXX XXXXXXXXXXXXXXXX XXXXXXXXXXXXXXXX
0640 : XXXXXXXXXXXXXXXX XXXXXX---------- ---------------- ----------------

All other memory blocks unused.

Program Memory Words Used:   805

