gplink-2.2.37 (Jan 22 2024)
Listing File Generated: 2024-11-20  17:41:43
 
 
Address  Value    Disassembly              Source
-------  -----    -----------              ------
                                           ;--------------------------------------------------------
                                           ; external declarations
                                           ;--------------------------------------------------------
                                           	extern	_CLR_RAM
                                           	extern	_IO_Init
                                           	extern	_TIMER0_INT_Init
                                           	extern	_TIMER1_INT_Init
                                           	extern	_TIMER2_INT_Init
                                           	extern	_TIMER3_INT_Init
                                           	extern	_TIMER0_PWM_Init
                                           	extern	_TIMER1_PWM_Init
                                           	extern	_TIMER2_PWM_Init
                                           	extern	_ADC_Init
                                           	extern	_Scan_ADC
                                           	extern	_Set_ADC_Channel
                                           	extern	_ADC_Get_Value_Average
                                           	extern	_delay
                                           	extern	_INDF0bits
                                           	extern	_INDF1bits
                                           	extern	_INDF2bits
                                           	extern	_HIBYTEbits
                                           	extern	_FSR0bits
                                           	extern	_FSR1bits
                                           	extern	_PCLbits
                                           	extern	_PFLAGbits
                                           	extern	_MCRbits
                                           	extern	_INDF3bits
                                           	extern	_INTEbits
                                           	extern	_INTFbits
                                           	extern	_DRVCRbits
                                           	extern	_PFRCCRbits
                                           	extern	_P1KBCRbits
                                           	extern	_PFRCCALbits
                                           	extern	_IOP0bits
                                           	extern	_OEP0bits
                                           	extern	_PUP0bits
                                           	extern	_PDP0bits
                                           	extern	_IOP1bits
                                           	extern	_OEP1bits
                                           	extern	_PUP1bits
                                           	extern	_PDP1bits
                                           	extern	_T0CRbits
                                           	extern	_T0CNTbits
                                           	extern	_T0LOADbits
                                           	extern	_T0DATAbits
                                           	extern	_T1CRbits
                                           	extern	_T1CNTbits
                                           	extern	_T1LOADbits
                                           	extern	_T1DATAbits
                                           	extern	_T2CRbits
                                           	extern	_T2CNTbits
                                           	extern	_T2LOADbits
                                           	extern	_T2DATAbits
                                           	extern	_T3CRbits
                                           	extern	_T3CNTbits
                                           	extern	_T3LOADbits
                                           	extern	_PWM0DRbits
                                           	extern	_PWM1DRbits
                                           	extern	_PWM2DRbits
                                           	extern	_PWMCR0bits
                                           	extern	_PWMCR1bits
                                           	extern	_OSCMRbits
                                           	extern	_LVDCRbits
                                           	extern	_ADCR0bits
                                           	extern	_ADCR1bits
                                           	extern	_ADCR2bits
                                           	extern	_OSADJCRbits
                                           	extern	_ADRHbits
                                           	extern	_ADRLbits
                                           	extern	_ADIOS0bits
                                           	extern	_ADIOS1bits
                                           	extern	_PMODbits
                                           	extern	_PWMCR3bits
                                           	extern	_PWMCR2bits
                                           	extern	_PFRCAUXbits
                                           	extern	_HIRCCALbits
                                           	extern	_flag2
                                           	extern	_adc_data
                                           	extern	_INDF0
                                           	extern	_INDF1
                                           	extern	_INDF2
                                           	extern	_HIBYTE
                                           	extern	_FSR0
                                           	extern	_FSR1
                                           	extern	_PCL
                                           	extern	_PFLAG
                                           	extern	_MCR
                                           	extern	_INDF3
                                           	extern	_INTE
                                           	extern	_INTF
                                           	extern	_DRVCR
                                           	extern	_PFRCCR
                                           	extern	_P1KBCR
                                           	extern	_PFRCCAL
                                           	extern	_IOP0
                                           	extern	_OEP0
                                           	extern	_PUP0
                                           	extern	_PDP0
                                           	extern	_IOP1
                                           	extern	_OEP1
                                           	extern	_PUP1
                                           	extern	_PDP1
                                           	extern	_T0CR
                                           	extern	_T0CNT
                                           	extern	_T0LOAD
                                           	extern	_T0DATA
                                           	extern	_T1CR
                                           	extern	_T1CNT
                                           	extern	_T1LOAD
                                           	extern	_T1DATA
                                           	extern	_T2CR
                                           	extern	_T2CNT
                                           	extern	_T2LOAD
                                           	extern	_T2DATA
                                           	extern	_T3CR
                                           	extern	_T3CNT
                                           	extern	_T3LOAD
                                           	extern	_PWM0DR
                                           	extern	_PWM1DR
                                           	extern	_PWM2DR
                                           	extern	_PWMCR0
                                           	extern	_PWMCR1
                                           	extern	_OSCMR
                                           	extern	_LVDCR
                                           	extern	_ADCR0
                                           	extern	_ADCR1
                                           	extern	_ADCR2
                                           	extern	_OSADJCR
                                           	extern	_ADRH
                                           	extern	_ADRL
                                           	extern	_ADIOS0
                                           	extern	_ADIOS1
                                           	extern	_PMOD
                                           	extern	_PWMCR3
                                           	extern	_PWMCR2
                                           	extern	_PFRCAUX
                                           	extern	_HIRCCAL
                                           	extern	__gptrget1
                                           ;--------------------------------------------------------
                                           ; global declarations
                                           ;--------------------------------------------------------
                                           	global	_Sleep_Func
                                           	global	_Scan_Key
                                           	global	_Sys_Init
                                           	global	_Uart_send_Function
                                           	global	_Uart_getsend_func
                                           	global	_ADC_cul
                                           	global	_VIN_Scan
                                           	global	_LED_Scan
                                           	global	_main
                                           	global	_int_isr
                                           	global	_abuf
                                           	global	_statusbuf
                                           	global	_sleep_time
                                           	global	_key_per
                                           	global	_key_cur
                                           	global	_key_down
                                           	global	_key_keep
                                           	global	_int_time0
                                           	global	_testflag
                                           	global	_charge_F
                                           	global	_ADCScan_F
                                           	global	_Flag1
                                           	global	_Flag2
                                           	global	_test__
                                           	global	_ChargeTrue
                                           	global	_UARTUser
                                           	global	_keytrue
                                           	global	_VINtrue
                                           	global	_buff
                                           	global	_Bat_voltage
                                           
                                           	global STK06
                                           	global STK05
                                           	global STK04
                                           	global STK03
                                           	global STK02
                                           	global STK01
                                           	global STK00
                                           
                                           sharebank udata_ovr 0x0000
                                           STK06	res 1
                                           STK05	res 1
                                           STK04	res 1
                                           STK03	res 1
                                           STK02	res 1
                                           STK01	res 1
                                           STK00	res 1
                                           
                                           ;--------------------------------------------------------
                                           ; global definitions
                                           ;--------------------------------------------------------
                                           UD_MC32P7351_0	udata
                                           _abuf	res	1
                                           
                                           UD_MC32P7351_1	udata
                                           _statusbuf	res	1
                                           
                                           UD_MC32P7351_2	udata
                                           _sleep_time	res	1
                                           
                                           UD_MC32P7351_3	udata
                                           _key_per	res	1
                                           
                                           UD_MC32P7351_4	udata
                                           _key_cur	res	1
                                           
                                           UD_MC32P7351_5	udata
                                           _key_down	res	1
                                           
                                           UD_MC32P7351_6	udata
                                           _key_keep	res	1
                                           
                                           UD_MC32P7351_7	udata
                                           _int_time0	res	1
                                           
                                           UD_MC32P7351_8	udata
                                           _testflag	res	1
                                           
                                           UD_MC32P7351_9	udata
                                           _charge_F	res	1
                                           
                                           UD_MC32P7351_10	udata
                                           _ADCScan_F	res	1
                                           
                                           UD_MC32P7351_11	udata
                                           _Flag1	res	1
                                           
                                           UD_MC32P7351_12	udata
                                           _Flag2	res	1
                                           
                                           UD_MC32P7351_13	udata
                                           _test__	res	2
                                           
                                           UD_MC32P7351_14	udata
                                           _ChargeTrue	res	9
                                           
                                           UD_MC32P7351_15	udata
                                           _UARTUser	res	8
                                           
                                           UD_MC32P7351_16	udata
                                           _keytrue	res	2
                                           
                                           UD_MC32P7351_17	udata
                                           _VINtrue	res	2
                                           
                                           UD_MC32P7351_18	udata
                                           _buff	res	6
                                           
                                           ;--------------------------------------------------------
                                           ; absolute symbol definitions
                                           ;--------------------------------------------------------
                                           ;--------------------------------------------------------
                                           ; compiler-defined variables
                                           ;--------------------------------------------------------
                                           UDL_MC32P7351_0	udata
                                           r0x103A	res	1
                                           r0x103B	res	1
                                           r0x103C	res	1
                                           r0x103D	res	1
                                           r0x103E	res	1
                                           r0x1029	res	1
                                           r0x1028	res	1
                                           r0x1027	res	1
                                           r0x102A	res	1
                                           r0x102B	res	1
                                           r0x102C	res	1
                                           r0x102D	res	1
                                           r0x102E	res	1
                                           r0x102F	res	1
                                           r0x1030	res	1
                                           r0x1031	res	1
                                           r0x1033	res	1
                                           r0x1032	res	1
                                           r0x1034	res	1
                                           r0x1035	res	1
                                           r0x1036	res	1
                                           r0x1037	res	1
                                           r0x1038	res	1
                                           r0x1039	res	1
                                           r0x1026	res	1
                                           r0x103F	res	1
                                           r0x1040	res	1
                                           ;--------------------------------------------------------
                                           ; initialized data
                                           ;--------------------------------------------------------
                                           
                                           ID_MC32P7351_0	code
                                           _Bat_voltage
000001   0085     dw      0x85             	dw 0x85
000002   0005     dw      0x5              	dw 0x05
000003   0000     nop                      	dw 0x00
000004   0006     dw      0x6              	dw 0x06
000005   0033     dw      0x33             	dw 0x33
000006   0007     dw      0x7              	dw 0x07
                                           
                                           
                                           ;@Allocation info for local variables in function 'Uart_send_Function'
                                           ;@Uart_send_Function Sys_Init                  Allocated to registers ;size:2
                                           ;@Uart_send_Function CLR_RAM                   Allocated to registers ;size:2
                                           ;@Uart_send_Function IO_Init                   Allocated to registers ;size:2
                                           ;@Uart_send_Function TIMER0_INT_Init           Allocated to registers ;size:2
                                           ;@Uart_send_Function TIMER1_INT_Init           Allocated to registers ;size:2
                                           ;@Uart_send_Function TIMER2_INT_Init           Allocated to registers ;size:2
                                           ;@Uart_send_Function TIMER3_INT_Init           Allocated to registers ;size:2
                                           ;@Uart_send_Function TIMER0_PWM_Init           Allocated to registers ;size:2
                                           ;@Uart_send_Function TIMER1_PWM_Init           Allocated to registers ;size:2
                                           ;@Uart_send_Function TIMER2_PWM_Init           Allocated to registers ;size:2
                                           ;@Uart_send_Function ADC_Init                  Allocated to registers ;size:2
                                           ;@Uart_send_Function Scan_ADC                  Allocated to registers ;size:2
                                           ;@Uart_send_Function Set_ADC_Channel           Allocated to registers ;size:2
                                           ;@Uart_send_Function ADC_Get_Value_Average     Allocated to registers ;size:2
                                           ;@Uart_send_Function Scan_Key                  Allocated to registers ;size:2
                                           ;@Uart_send_Function Sleep_Func                Allocated to registers ;size:2
                                           ;@Uart_send_Function delay                     Allocated to registers ;size:2
                                           ;@Uart_send_Function Uart_send_Function        Allocated to registers ;size:2
                                           ;@Uart_send_Function INDF0bits                 Allocated to registers ;size:1
                                           ;@Uart_send_Function INDF1bits                 Allocated to registers ;size:1
                                           ;@Uart_send_Function INDF2bits                 Allocated to registers ;size:1
                                           ;@Uart_send_Function HIBYTEbits                Allocated to registers ;size:1
                                           ;@Uart_send_Function FSR0bits                  Allocated to registers ;size:1
                                           ;@Uart_send_Function FSR1bits                  Allocated to registers ;size:1
                                           ;@Uart_send_Function PCLbits                   Allocated to registers ;size:1
                                           ;@Uart_send_Function PFLAGbits                 Allocated to registers ;size:1
                                           ;@Uart_send_Function MCRbits                   Allocated to registers ;size:1
                                           ;@Uart_send_Function INDF3bits                 Allocated to registers ;size:1
                                           ;@Uart_send_Function INTEbits                  Allocated to registers ;size:1
                                           ;@Uart_send_Function INTFbits                  Allocated to registers ;size:1
                                           ;@Uart_send_Function DRVCRbits                 Allocated to registers ;size:1
                                           ;@Uart_send_Function PFRCCRbits                Allocated to registers ;size:1
                                           ;@Uart_send_Function P1KBCRbits                Allocated to registers ;size:1
                                           ;@Uart_send_Function PFRCCALbits               Allocated to registers ;size:1
                                           ;@Uart_send_Function IOP0bits                  Allocated to registers ;size:1
                                           ;@Uart_send_Function OEP0bits                  Allocated to registers ;size:1
                                           ;@Uart_send_Function PUP0bits                  Allocated to registers ;size:1
                                           ;@Uart_send_Function PDP0bits                  Allocated to registers ;size:1
                                           ;@Uart_send_Function IOP1bits                  Allocated to registers ;size:1
                                           ;@Uart_send_Function OEP1bits                  Allocated to registers ;size:1
                                           ;@Uart_send_Function PUP1bits                  Allocated to registers ;size:1
                                           ;@Uart_send_Function PDP1bits                  Allocated to registers ;size:1
                                           ;@Uart_send_Function T0CRbits                  Allocated to registers ;size:1
                                           ;@Uart_send_Function T0CNTbits                 Allocated to registers ;size:1
                                           ;@Uart_send_Function T0LOADbits                Allocated to registers ;size:1
                                           ;@Uart_send_Function T0DATAbits                Allocated to registers ;size:1
                                           ;@Uart_send_Function T1CRbits                  Allocated to registers ;size:1
                                           ;@Uart_send_Function T1CNTbits                 Allocated to registers ;size:1
                                           ;@Uart_send_Function T1LOADbits                Allocated to registers ;size:1
                                           ;@Uart_send_Function T1DATAbits                Allocated to registers ;size:1
                                           ;@Uart_send_Function T2CRbits                  Allocated to registers ;size:1
                                           ;@Uart_send_Function T2CNTbits                 Allocated to registers ;size:1
                                           ;@Uart_send_Function T2LOADbits                Allocated to registers ;size:1
                                           ;@Uart_send_Function T2DATAbits                Allocated to registers ;size:1
                                           ;@Uart_send_Function T3CRbits                  Allocated to registers ;size:1
                                           ;@Uart_send_Function T3CNTbits                 Allocated to registers ;size:1
                                           ;@Uart_send_Function T3LOADbits                Allocated to registers ;size:1
                                           ;@Uart_send_Function PWM0DRbits                Allocated to registers ;size:1
                                           ;@Uart_send_Function PWM1DRbits                Allocated to registers ;size:1
                                           ;@Uart_send_Function PWM2DRbits                Allocated to registers ;size:1
                                           ;@Uart_send_Function PWMCR0bits                Allocated to registers ;size:1
                                           ;@Uart_send_Function PWMCR1bits                Allocated to registers ;size:1
                                           ;@Uart_send_Function OSCMRbits                 Allocated to registers ;size:1
                                           ;@Uart_send_Function LVDCRbits                 Allocated to registers ;size:1
                                           ;@Uart_send_Function ADCR0bits                 Allocated to registers ;size:1
                                           ;@Uart_send_Function ADCR1bits                 Allocated to registers ;size:1
                                           ;@Uart_send_Function ADCR2bits                 Allocated to registers ;size:1
                                           ;@Uart_send_Function OSADJCRbits               Allocated to registers ;size:1
                                           ;@Uart_send_Function ADRHbits                  Allocated to registers ;size:1
                                           ;@Uart_send_Function ADRLbits                  Allocated to registers ;size:1
                                           ;@Uart_send_Function ADIOS0bits                Allocated to registers ;size:1
                                           ;@Uart_send_Function ADIOS1bits                Allocated to registers ;size:1
                                           ;@Uart_send_Function PMODbits                  Allocated to registers ;size:1
                                           ;@Uart_send_Function PWMCR3bits                Allocated to registers ;size:1
                                           ;@Uart_send_Function PWMCR2bits                Allocated to registers ;size:1
                                           ;@Uart_send_Function PFRCAUXbits               Allocated to registers ;size:1
                                           ;@Uart_send_Function HIRCCALbits               Allocated to registers ;size:1
                                           ;@Uart_send_Function flag2                     Allocated to registers ;size:1
                                           ;@Uart_send_Function adc_data                  Allocated to registers ;size:2
                                           ;@Uart_send_Function abuf                      Allocated to registers ;size:1
                                           ;@Uart_send_Function statusbuf                 Allocated to registers ;size:1
                                           ;@Uart_send_Function sleep_time                Allocated to registers ;size:1
                                           ;@Uart_send_Function key_per                   Allocated to registers ;size:1
                                           ;@Uart_send_Function key_cur                   Allocated to registers ;size:1
                                           ;@Uart_send_Function key_down                  Allocated to registers ;size:1
                                           ;@Uart_send_Function key_keep                  Allocated to registers ;size:1
                                           ;@Uart_send_Function int_time0                 Allocated to registers ;size:1
                                           ;@Uart_send_Function testflag                  Allocated to registers ;size:1
                                           ;@Uart_send_Function charge_F                  Allocated to registers ;size:1
                                           ;@Uart_send_Function ADCScan_F                 Allocated to registers ;size:1
                                           ;@Uart_send_Function Flag1                     Allocated to registers ;size:1
                                           ;@Uart_send_Function Flag2                     Allocated to registers ;size:1
                                           ;@Uart_send_Function test__                    Allocated to registers ;size:2
                                           ;@Uart_send_Function ChargeTrue                Allocated to registers ;size:9
                                           ;@Uart_send_Function UARTUser                  Allocated to registers ;size:8
                                           ;@Uart_send_Function INDF0                     Allocated to registers ;size:1
                                           ;@Uart_send_Function INDF1                     Allocated to registers ;size:1
                                           ;@Uart_send_Function INDF2                     Allocated to registers ;size:1
                                           ;@Uart_send_Function HIBYTE                    Allocated to registers ;size:1
                                           ;@Uart_send_Function FSR0                      Allocated to registers ;size:1
                                           ;@Uart_send_Function FSR1                      Allocated to registers ;size:1
                                           ;@Uart_send_Function PCL                       Allocated to registers ;size:1
                                           ;@Uart_send_Function PFLAG                     Allocated to registers ;size:1
                                           ;@Uart_send_Function MCR                       Allocated to registers ;size:1
                                           ;@Uart_send_Function INDF3                     Allocated to registers ;size:1
                                           ;@Uart_send_Function INTE                      Allocated to registers ;size:1
                                           ;@Uart_send_Function INTF                      Allocated to registers ;size:1
                                           ;@Uart_send_Function DRVCR                     Allocated to registers ;size:1
                                           ;@Uart_send_Function PFRCCR                    Allocated to registers ;size:1
                                           ;@Uart_send_Function P1KBCR                    Allocated to registers ;size:1
                                           ;@Uart_send_Function PFRCCAL                   Allocated to registers ;size:1
                                           ;@Uart_send_Function IOP0                      Allocated to registers ;size:1
                                           ;@Uart_send_Function OEP0                      Allocated to registers ;size:1
                                           ;@Uart_send_Function PUP0                      Allocated to registers ;size:1
                                           ;@Uart_send_Function PDP0                      Allocated to registers ;size:1
                                           ;@Uart_send_Function IOP1                      Allocated to registers ;size:1
                                           ;@Uart_send_Function OEP1                      Allocated to registers ;size:1
                                           ;@Uart_send_Function PUP1                      Allocated to registers ;size:1
                                           ;@Uart_send_Function PDP1                      Allocated to registers ;size:1
                                           ;@Uart_send_Function T0CR                      Allocated to registers ;size:1
                                           ;@Uart_send_Function T0CNT                     Allocated to registers ;size:1
                                           ;@Uart_send_Function T0LOAD                    Allocated to registers ;size:1
                                           ;@Uart_send_Function T0DATA                    Allocated to registers ;size:1
                                           ;@Uart_send_Function T1CR                      Allocated to registers ;size:1
                                           ;@Uart_send_Function T1CNT                     Allocated to registers ;size:1
                                           ;@Uart_send_Function T1LOAD                    Allocated to registers ;size:1
                                           ;@Uart_send_Function T1DATA                    Allocated to registers ;size:1
                                           ;@Uart_send_Function T2CR                      Allocated to registers ;size:1
                                           ;@Uart_send_Function T2CNT                     Allocated to registers ;size:1
                                           ;@Uart_send_Function T2LOAD                    Allocated to registers ;size:1
                                           ;@Uart_send_Function T2DATA                    Allocated to registers ;size:1
                                           ;@Uart_send_Function T3CR                      Allocated to registers ;size:1
                                           ;@Uart_send_Function T3CNT                     Allocated to registers ;size:1
                                           ;@Uart_send_Function T3LOAD                    Allocated to registers ;size:1
                                           ;@Uart_send_Function PWM0DR                    Allocated to registers ;size:1
                                           ;@Uart_send_Function PWM1DR                    Allocated to registers ;size:1
                                           ;@Uart_send_Function PWM2DR                    Allocated to registers ;size:1
                                           ;@Uart_send_Function PWMCR0                    Allocated to registers ;size:1
                                           ;@Uart_send_Function PWMCR1                    Allocated to registers ;size:1
                                           ;@Uart_send_Function OSCMR                     Allocated to registers ;size:1
                                           ;@Uart_send_Function LVDCR                     Allocated to registers ;size:1
                                           ;@Uart_send_Function ADCR0                     Allocated to registers ;size:1
                                           ;@Uart_send_Function ADCR1                     Allocated to registers ;size:1
                                           ;@Uart_send_Function ADCR2                     Allocated to registers ;size:1
                                           ;@Uart_send_Function OSADJCR                   Allocated to registers ;size:1
                                           ;@Uart_send_Function ADRH                      Allocated to registers ;size:1
                                           ;@Uart_send_Function ADRL                      Allocated to registers ;size:1
                                           ;@Uart_send_Function ADIOS0                    Allocated to registers ;size:1
                                           ;@Uart_send_Function ADIOS1                    Allocated to registers ;size:1
                                           ;@Uart_send_Function PMOD                      Allocated to registers ;size:1
                                           ;@Uart_send_Function PWMCR3                    Allocated to registers ;size:1
                                           ;@Uart_send_Function PWMCR2                    Allocated to registers ;size:1
                                           ;@Uart_send_Function PFRCAUX                   Allocated to registers ;size:1
                                           ;@Uart_send_Function HIRCCAL                   Allocated to registers ;size:1
                                           ;@end Allocation info for local variables in function 'Uart_send_Function';
                                           ;@Allocation info for local variables in function 'Uart_getsend_func'
                                           ;@Uart_getsend_func len                       Allocated to registers r0x102A ;size:1
                                           ;@Uart_getsend_func data                      Allocated to registers r0x1029 r0x1028 r0x1027 ;size:3
                                           ;@Uart_getsend_func i                         Allocated to registers r0x102B ;size:1
                                           ;@end Allocation info for local variables in function 'Uart_getsend_func';
                                           ;@Allocation info for local variables in function 'Sys_Init'
                                           ;@end Allocation info for local variables in function 'Sys_Init';
                                           ;@Allocation info for local variables in function 'ADC_cul'
                                           ;@end Allocation info for local variables in function 'ADC_cul';
                                           ;@Allocation info for local variables in function 'VIN_Scan'
                                           ;@end Allocation info for local variables in function 'VIN_Scan';
                                           ;@Allocation info for local variables in function 'LED_Scan'
                                           ;@end Allocation info for local variables in function 'LED_Scan';
                                           ;@Allocation info for local variables in function 'main'
                                           ;@end Allocation info for local variables in function 'main';
                                           ;@Allocation info for local variables in function 'Scan_Key'
                                           ;@end Allocation info for local variables in function 'Scan_Key';
                                           ;@Allocation info for local variables in function 'Sleep_Func'
                                           ;@end Allocation info for local variables in function 'Sleep_Func';
                                           ;@Allocation info for local variables in function 'int_isr'
                                           ;@end Allocation info for local variables in function 'int_isr';
                                           
                                           ;--------------------------------------------------------
                                           ; overlayable items in internal ram 
                                           ;--------------------------------------------------------
                                           ;	udata_ovr
                                           ;--------------------------------------------------------
                                           ; reset vector 
                                           ;--------------------------------------------------------
                                           STARTUP	code 0x0000
000000   a03a     goto    0x3a             	goto	_main
                                           ;--------------------------------------------------------
                                           ; interrupt and initialization code
                                           ;--------------------------------------------------------
                                           c_interrupt	code	0x8
                                           __sdcc_interrupt
                                           ;***
                                           ;  pBlock Stats: dbName = I
                                           ;***
                                           ;entry:  _int_isr	;Function start
                                           ; 0 exit points
                                           ;functions called:
                                           ;   _Uart_send_Function
                                           ;   _Uart_send_Function
                                           ;2 compiler assigned registers:
                                           ;   r0x103F
                                           ;   r0x1040
                                           ;; Starting pCode block
                                           _int_isr	;Function start
                                           ; 0 exit points
                                           ;	.line	387; "MC32P7351.c"	__endasm;
000008   5658     movra   0x58             	movra	_abuf
000009   4587     swapar  0x187            	swapar	_PFLAG
00000a   5659     movra   0x59             	movra	_statusbuf
                                           ;	.line	389; "MC32P7351.c"	if (T0IF & T0IE)   	//104us
00000b   7620     clrr    0x20             	CLRR	r0x103F
00000c   f18b     jbclr   0x18b, 0         	JBCLR	_INTFbits,0
00000d   6620     incr    0x20             	INCR	r0x103F
00000e   7621     clrr    0x21             	CLRR	r0x1040
00000f   f18a     jbclr   0x18a, 0         	JBCLR	_INTEbits,0
000010   6621     incr    0x21             	INCR	r0x1040
000011   5821     movar   0x21             	MOVAR	r0x1040
000012   7a20     andra   0x20             	ANDRA	r0x103F
000013   3c00     movai   0                	MOVAI	0x00
000014   5c20     orar    0x20             	ORAR	r0x103F
000015   f587     jbclr   0x187, 0x2       	JBCLR	PFLAG,2
000016   a019     goto    0x19             	GOTO	_00241_DS_
                                           ;	.line	392; "MC32P7351.c"	T0IF = 0;
000017   d18b     bclr    0x18b, 0         	BCLR	_INTFbits,0
                                           ;	.line	393; "MC32P7351.c"	Uart_send_Function();
000018   81ae     call    0x1ae            	CALL	_Uart_send_Function
                                           _00241_DS_
                                           ;	.line	396; "MC32P7351.c"	if (T1IF & T1IE)   	//2ms
000019   7620     clrr    0x20             	CLRR	r0x103F
00001a   f38b     jbclr   0x18b, 0x1       	JBCLR	_INTFbits,1
00001b   6620     incr    0x20             	INCR	r0x103F
00001c   7621     clrr    0x21             	CLRR	r0x1040
00001d   f38a     jbclr   0x18a, 0x1       	JBCLR	_INTEbits,1
00001e   6621     incr    0x21             	INCR	r0x1040
00001f   5821     movar   0x21             	MOVAR	r0x1040
000020   7a20     andra   0x20             	ANDRA	r0x103F
000021   3c00     movai   0                	MOVAI	0x00
000022   5c20     orar    0x20             	ORAR	r0x103F
000023   f587     jbclr   0x187, 0x2       	JBCLR	PFLAG,2
000024   a035     goto    0x35             	GOTO	_00245_DS_
                                           ;	.line	399; "MC32P7351.c"	T1IF = 0;
000025   d38b     bclr    0x18b, 0x1       	BCLR	_INTFbits,1
                                           ;	.line	400; "MC32P7351.c"	T1_flag    	=  	1;
000026   c263     bset    0x63, 0x1        	BSET	_Flag1,1
                                           ;	.line	401; "MC32P7351.c"	int_time0++;
000027   665f     incr    0x5f             	INCR	_int_time0
                                           ;;swapping arguments (AOP_TYPEs 1/3)
                                           ;;unsigned compare: left >= lit(0x7E=126), size=1
                                           ;	.line	402; "MC32P7351.c"	if(int_time0>125)
000028   3c7e     movai   0x7e             	MOVAI	0x7e
000029   485f     rsubar  0x5f             	RSUBAR	_int_time0
00002a   e187     jbset   0x187, 0         	JBSET	PFLAG,0
00002b   a035     goto    0x35             	GOTO	_00245_DS_
                                           ;;genSkipc:3291: created from rifx:013B5EFC
                                           ;	.line	404; "MC32P7351.c"	testflag= !testflag;
00002c   5860     movar   0x60             	MOVAR	_testflag
00002d   3c00     movai   0                	MOVAI	0x00
00002e   f587     jbclr   0x187, 0x2       	JBCLR	PFLAG,2
00002f   3c01     movai   0x1              	MOVAI	0x01
000030   5660     movra   0x60             	MOVRA	_testflag
000031   5620     movra   0x20             	MOVRA	r0x103F
                                           ;;108	MOVAR	r0x103F
                                           ;	.line	405; "MC32P7351.c"	ADCScan_F = 1;
000032   3c01     movai   0x1              	MOVAI	0x01
000033   5662     movra   0x62             	MOVRA	_ADCScan_F
                                           ;	.line	407; "MC32P7351.c"	int_time0 = 0;
000034   765f     clrr    0x5f             	CLRR	_int_time0
                                           _00245_DS_
                                           ;	.line	428; "MC32P7351.c"	__endasm;
000035   4459     swapar  0x59             	swapar	_statusbuf
000036   5787     movra   0x187            	movra	_PFLAG
000037   4658     swapr   0x58             	swapr	_abuf
000038   4458     swapar  0x58             	swapar	_abuf
                                           END_OF_INTERRUPT
                                           ;	.line	430; "MC32P7351.c"	}
000039   000d     retie                    	RETIE	
                                           
                                           ;--------------------------------------------------------
                                           ; code
                                           ;--------------------------------------------------------
                                           code_MC32P7351	code
                                           ;***
                                           ;  pBlock Stats: dbName = M
                                           ;***
                                           ;entry:  _main	;Function start
                                           ; 2 exit points
                                           ;has an exit
                                           ;functions called:
                                           ;   _Sys_Init
                                           ;   _Set_ADC_Channel
                                           ;   _LED_Scan
                                           ;   _VIN_Scan
                                           ;   _ADC_cul
                                           ;   _Sys_Init
                                           ;   _Set_ADC_Channel
                                           ;   _LED_Scan
                                           ;   _VIN_Scan
                                           ;   _ADC_cul
                                           ;; Starting pCode block
                                           _main	;Function start
                                           ; 2 exit points
                                           ;	.line	275; "MC32P7351.c"	Sys_Init();
00003a   8162     call    0x162            	CALL	_Sys_Init
                                           ;;gen.c:6570: size=0, offset=0, AOP_TYPE(res)=8
                                           ;	.line	276; "MC32P7351.c"	UARTUser.Uart_ov = 1;
00003b   3c01     movai   0x1              	MOVAI	0x01
00003c   5635     movra   0x35             	MOVRA	(_UARTUser + 1)
                                           ;;gen.c:6570: size=0, offset=0, AOP_TYPE(res)=8
                                           ;	.line	277; "MC32P7351.c"	UARTUser.Uart_send_F = 1;
00003d   3c01     movai   0x1              	MOVAI	0x01
00003e   5636     movra   0x36             	MOVRA	(_UARTUser + 2)
                                           ;	.line	278; "MC32P7351.c"	Set_ADC_Channel(3); 
00003f   3c03     movai   0x3              	MOVAI	0x03
000040   8306     call    0x306            	CALL	_Set_ADC_Channel
                                           ;;gen.c:6570: size=1, offset=0, AOP_TYPE(res)=8
                                           ;	.line	279; "MC32P7351.c"	ChargeTrue.I_Target = 102;
000041   3c66     movai   0x66             	MOVAI	0x66
000042   5626     movra   0x26             	MOVRA	(_ChargeTrue + 4)
                                           ;;gen.c:6570: size=0, offset=1, AOP_TYPE(res)=8
000043   7627     clrr    0x27             	CLRR	(_ChargeTrue + 5)
                                           _00218_DS_
                                           ;	.line	282; "MC32P7351.c"	ClrWdt();
000044   000e     clrwdt                   	clrwdt	
                                           ;	.line	283; "MC32P7351.c"	LED_Scan();
000045   8076     call    0x76             	CALL	_LED_Scan
                                           ;	.line	284; "MC32P7351.c"	VIN_Scan();
000046   80be     call    0xbe             	CALL	_VIN_Scan
                                           ;	.line	286; "MC32P7351.c"	ADC_cul();
000047   80de     call    0xde             	CALL	_ADC_cul
000048   a044     goto    0x44             	GOTO	_00218_DS_
                                           ;	.line	316; "MC32P7351.c"	}
000049   000c     return                   	RETURN	
                                           ; exit point of _main
                                           
                                           ;***
                                           ;  pBlock Stats: dbName = C
                                           ;***
                                           ;entry:  _Sleep_Func	;Function start
                                           ; 2 exit points
                                           ;has an exit
                                           ;; Starting pCode block
                                           _Sleep_Func	;Function start
                                           ; 2 exit points
                                           ;	.line	348; "MC32P7351.c"	if(!ON_flag)
00004a   f064     jbclr   0x64, 0          	JBCLR	_Flag2,0
00004b   a05e     goto    0x5e             	GOTO	_00233_DS_
                                           ;	.line	350; "MC32P7351.c"	if(++sleep_time >= 100) //2ms*100 =200ms
00004c   665a     incr    0x5a             	INCR	_sleep_time
                                           ;;unsigned compare: left < lit(0x64=100), size=1
00004d   3c64     movai   0x64             	MOVAI	0x64
00004e   485a     rsubar  0x5a             	RSUBAR	_sleep_time
00004f   e187     jbset   0x187, 0         	JBSET	PFLAG,0
000050   a05f     goto    0x5f             	GOTO	_00235_DS_
                                           ;;genSkipc:3291: created from rifx:013B5EFC
                                           ;	.line	352; "MC32P7351.c"	sleep_time = 0;
000051   765a     clrr    0x5a             	CLRR	_sleep_time
                                           ;	.line	353; "MC32P7351.c"	GIE = 0;
000052   df88     bclr    0x188, 0x7       	BCLR	_MCRbits,7
                                           ;	.line	354; "MC32P7351.c"	KBIF = 0;
000053   d98b     bclr    0x18b, 0x4       	BCLR	_INTFbits,4
                                           ;	.line	355; "MC32P7351.c"	KBIE = 1;
000054   c98a     bset    0x18a, 0x4       	BSET	_INTEbits,4
                                           ;	.line	357; "MC32P7351.c"	Nop();
000055   0000     nop                      	nop	
                                           ;	.line	358; "MC32P7351.c"	Nop();
000056   0000     nop                      	nop	
                                           ;	.line	359; "MC32P7351.c"	Stop();
000057   000b     stop                     	stop	
                                           ;	.line	360; "MC32P7351.c"	Nop();
000058   0000     nop                      	nop	
                                           ;	.line	361; "MC32P7351.c"	Nop();
000059   0000     nop                      	nop	
                                           ;	.line	362; "MC32P7351.c"	KBIE = 0;
00005a   d98a     bclr    0x18a, 0x4       	BCLR	_INTEbits,4
                                           ;	.line	363; "MC32P7351.c"	KBIF = 0;
00005b   d98b     bclr    0x18b, 0x4       	BCLR	_INTFbits,4
                                           ;	.line	364; "MC32P7351.c"	GIE = 1;
00005c   cf88     bset    0x188, 0x7       	BSET	_MCRbits,7
00005d   a05f     goto    0x5f             	GOTO	_00235_DS_
                                           _00233_DS_
                                           ;	.line	369; "MC32P7351.c"	sleep_time = 0;
00005e   765a     clrr    0x5a             	CLRR	_sleep_time
                                           _00235_DS_
                                           ;	.line	371; "MC32P7351.c"	}
00005f   000c     return                   	RETURN	
                                           ; exit point of _Sleep_Func
                                           
                                           ;***
                                           ;  pBlock Stats: dbName = C
                                           ;***
                                           ;entry:  _Scan_Key	;Function start
                                           ; 2 exit points
                                           ;has an exit
                                           ;1 compiler assigned register :
                                           ;   r0x1026
                                           ;; Starting pCode block
                                           _Scan_Key	;Function start
                                           ; 2 exit points
                                           ;	.line	326; "MC32P7351.c"	key_per = key_cur; 	
000060   585c     movar   0x5c             	MOVAR	_key_cur
000061   565b     movra   0x5b             	MOVRA	_key_per
                                           ;	.line	328; "MC32P7351.c"	key_cur = (~IOP1)&0x08;    	   	//
000062   7194     comar   0x194            	COMAR	_IOP1
000063   561f     movra   0x1f             	MOVRA	r0x1026
000064   3c08     movai   0x8              	MOVAI	0x08
000065   781f     andar   0x1f             	ANDAR	r0x1026
000066   565c     movra   0x5c             	MOVRA	_key_cur
                                           ;	.line	330; "MC32P7351.c"	key_down = (~key_per) & key_cur;
000067   705b     comar   0x5b             	COMAR	_key_per
000068   561f     movra   0x1f             	MOVRA	r0x1026
000069   585c     movar   0x5c             	MOVAR	_key_cur
00006a   781f     andar   0x1f             	ANDAR	r0x1026
00006b   565d     movra   0x5d             	MOVRA	_key_down
                                           ;	.line	331; "MC32P7351.c"	key_keep = key_per & key_cur;
00006c   585c     movar   0x5c             	MOVAR	_key_cur
00006d   785b     andar   0x5b             	ANDAR	_key_per
00006e   565e     movra   0x5e             	MOVRA	_key_keep
                                           ;	.line	333; "MC32P7351.c"	if(key_down & Key)
00006f   585d     movar   0x5d             	MOVAR	_key_down
000070   561f     movra   0x1f             	MOVRA	r0x1026
000071   e61f     jbset   0x1f, 0x3        	JBSET	r0x1026,3
000072   a075     goto    0x75             	GOTO	_00225_DS_
                                           ;	.line	335; "MC32P7351.c"	key_keep = 1;
000073   3c01     movai   0x1              	MOVAI	0x01
000074   565e     movra   0x5e             	MOVRA	_key_keep
                                           _00225_DS_
                                           ;	.line	338; "MC32P7351.c"	}
000075   000c     return                   	RETURN	
                                           ; exit point of _Scan_Key
                                           
                                           ;***
                                           ;  pBlock Stats: dbName = C
                                           ;***
                                           ;entry:  _LED_Scan	;Function start
                                           ; 2 exit points
                                           ;has an exit
                                           ;functions called:
                                           ;   _delay
                                           ;   _delay
                                           ;   _delay
                                           ;   _delay
                                           ;   _delay
                                           ;   _delay
                                           ;2 compiler assigned registers:
                                           ;   STK00
                                           ;   r0x1027
                                           ;; Starting pCode block
                                           _LED_Scan	;Function start
                                           ; 2 exit points
                                           ;	.line	217; "MC32P7351.c"	OEP1 |= DEF_SET_BIT6; // io 1:out  0:in
000076   cd95     bset    0x195, 0x6       	BSET	_OEP1,6
                                           ;	.line	218; "MC32P7351.c"	OEP0 |= DEF_SET_BIT0; // io 1:out  0:in
000077   c191     bset    0x191, 0         	BSET	_OEP0,0
                                           ;	.line	219; "MC32P7351.c"	PUP0 = 0x00;
000078   7792     clrr    0x192            	CLRR	_PUP0
                                           ;	.line	220; "MC32P7351.c"	if(Flag1.bits.bit0)
000079   e063     jbset   0x63, 0          	JBSET	_Flag1,0
00007a   a082     goto    0x82             	GOTO	_00202_DS_
                                           ;	.line	222; "MC32P7351.c"	PIN1 = 1;
00007b   c190     bset    0x190, 0         	BSET	_IOP0bits,0
                                           ;	.line	223; "MC32P7351.c"	PIN2 = 0;
00007c   dd94     bclr    0x194, 0x6       	BCLR	_IOP1bits,6
                                           ;	.line	224; "MC32P7351.c"	delay(350);
00007d   3c5e     movai   0x5e             	MOVAI	0x5e
00007e   5606     movra   0x6              	MOVRA	STK00
00007f   3c01     movai   0x1              	MOVAI	0x01
000080   832e     call    0x32e            	CALL	_delay
000081   a08f     goto    0x8f             	GOTO	_00203_DS_
                                           _00202_DS_
                                           ;	.line	228; "MC32P7351.c"	if(testflag)
000082   3c00     movai   0                	MOVAI	0x00
000083   5c60     orar    0x60             	ORAR	_testflag
000084   f587     jbclr   0x187, 0x2       	JBCLR	PFLAG,2
000085   a089     goto    0x89             	GOTO	_00199_DS_
                                           ;	.line	230; "MC32P7351.c"	PIN1 = 0;
000086   d190     bclr    0x190, 0         	BCLR	_IOP0bits,0
                                           ;	.line	231; "MC32P7351.c"	PIN2 = 1;
000087   cd94     bset    0x194, 0x6       	BSET	_IOP1bits,6
000088   a08b     goto    0x8b             	GOTO	_00200_DS_
                                           _00199_DS_
                                           ;	.line	236; "MC32P7351.c"	PIN1 = 0;
000089   d190     bclr    0x190, 0         	BCLR	_IOP0bits,0
                                           ;	.line	237; "MC32P7351.c"	PIN2 = 0;
00008a   dd94     bclr    0x194, 0x6       	BCLR	_IOP1bits,6
                                           _00200_DS_
                                           ;	.line	240; "MC32P7351.c"	delay(350);
00008b   3c5e     movai   0x5e             	MOVAI	0x5e
00008c   5606     movra   0x6              	MOVRA	STK00
00008d   3c01     movai   0x1              	MOVAI	0x01
00008e   832e     call    0x32e            	CALL	_delay
                                           _00203_DS_
                                           ;	.line	243; "MC32P7351.c"	OEP1 &= DEF_CLR_BIT6; // io 1:out  0:in
00008f   dd95     bclr    0x195, 0x6       	BCLR	_OEP1,6
                                           ;	.line	244; "MC32P7351.c"	OEP0 &= DEF_CLR_BIT0; // io 1:out  0:in
000090   d191     bclr    0x191, 0         	BCLR	_OEP0,0
                                           ;	.line	245; "MC32P7351.c"	PUP0 = 0x01;
000091   3c01     movai   0x1              	MOVAI	0x01
000092   5792     movra   0x192            	MOVRA	_PUP0
                                           ;	.line	246; "MC32P7351.c"	delay(4);
000093   3c04     movai   0x4              	MOVAI	0x04
000094   5606     movra   0x6              	MOVRA	STK00
000095   3c00     movai   0                	MOVAI	0x00
000096   832e     call    0x32e            	CALL	_delay
                                           ;	.line	247; "MC32P7351.c"	if(!KEYPIN)
000097   f190     jbclr   0x190, 0         	JBCLR	_IOP0bits,0
000098   a0ba     goto    0xba             	GOTO	_00210_DS_
                                           ;	.line	249; "MC32P7351.c"	if(keytrue.key_cnt <100)keytrue.key_cnt++;
000099   584c     movar   0x4c             	MOVAR	(_keytrue + 0)
00009a   560e     movra   0xe              	MOVRA	r0x1027
                                           ;;unsigned compare: left < lit(0x64=100), size=1
00009b   3c64     movai   0x64             	MOVAI	0x64
00009c   480e     rsubar  0xe              	RSUBAR	r0x1027
00009d   f187     jbclr   0x187, 0         	JBCLR	PFLAG,0
00009e   a0a2     goto    0xa2             	GOTO	_00205_DS_
                                           ;;genSkipc:3291: created from rifx:013B5EFC
00009f   660e     incr    0xe              	INCR	r0x1027
                                           ;;gen.c:6570: size=0, offset=0, AOP_TYPE(res)=8
0000a0   580e     movar   0xe              	MOVAR	r0x1027
0000a1   564c     movra   0x4c             	MOVRA	(_keytrue + 0)
                                           _00205_DS_
                                           ;	.line	250; "MC32P7351.c"	if(keytrue.key_cnt>=25 && keytrue.key_release)
0000a2   584c     movar   0x4c             	MOVAR	(_keytrue + 0)
0000a3   560e     movra   0xe              	MOVRA	r0x1027
                                           ;;unsigned compare: left < lit(0x19=25), size=1
0000a4   3c19     movai   0x19             	MOVAI	0x19
0000a5   480e     rsubar  0xe              	RSUBAR	r0x1027
0000a6   e187     jbset   0x187, 0         	JBSET	PFLAG,0
0000a7   a0bd     goto    0xbd             	GOTO	_00212_DS_
                                           ;;genSkipc:3291: created from rifx:013B5EFC
0000a8   584d     movar   0x4d             	MOVAR	(_keytrue + 1)
0000a9   560e     movra   0xe              	MOVRA	r0x1027
0000aa   3c00     movai   0                	MOVAI	0x00
0000ab   5c0e     orar    0xe              	ORAR	r0x1027
0000ac   f587     jbclr   0x187, 0x2       	JBCLR	PFLAG,2
0000ad   a0bd     goto    0xbd             	GOTO	_00212_DS_
                                           ;;gen.c:6570: size=0, offset=0, AOP_TYPE(res)=8
                                           ;	.line	252; "MC32P7351.c"	keytrue.key_release = 0;
0000ae   764d     clrr    0x4d             	CLRR	(_keytrue + 1)
                                           ;	.line	253; "MC32P7351.c"	Flag1.bits.bit0 = ~Flag1.bits.bit0;
0000af   760e     clrr    0xe              	CLRR	r0x1027
0000b0   f063     jbclr   0x63, 0          	JBCLR	_Flag1,0
0000b1   660e     incr    0xe              	INCR	r0x1027
0000b2   700e     comar   0xe              	COMAR	r0x1027
0000b3   560e     movra   0xe              	MOVRA	r0x1027
0000b4   4c0e     rrar    0xe              	RRAR	r0x1027
0000b5   e187     jbset   0x187, 0         	JBSET	PFLAG,0
0000b6   d063     bclr    0x63, 0          	BCLR	_Flag1,0
0000b7   f187     jbclr   0x187, 0         	JBCLR	PFLAG,0
0000b8   c063     bset    0x63, 0          	BSET	_Flag1,0
0000b9   a0bd     goto    0xbd             	GOTO	_00212_DS_
                                           ;;gen.c:6570: size=0, offset=0, AOP_TYPE(res)=8
                                           _00210_DS_
                                           ;	.line	259; "MC32P7351.c"	keytrue.key_cnt = 0;
0000ba   764c     clrr    0x4c             	CLRR	(_keytrue + 0)
                                           ;;gen.c:6570: size=0, offset=0, AOP_TYPE(res)=8
                                           ;	.line	260; "MC32P7351.c"	keytrue.key_release = 1;
0000bb   3c01     movai   0x1              	MOVAI	0x01
0000bc   564d     movra   0x4d             	MOVRA	(_keytrue + 1)
                                           _00212_DS_
                                           ;	.line	263; "MC32P7351.c"	}
0000bd   000c     return                   	RETURN	
                                           ; exit point of _LED_Scan
                                           
                                           ;***
                                           ;  pBlock Stats: dbName = C
                                           ;***
                                           ;entry:  _VIN_Scan	;Function start
                                           ; 2 exit points
                                           ;has an exit
                                           ;1 compiler assigned register :
                                           ;   r0x1027
                                           ;; Starting pCode block
                                           _VIN_Scan	;Function start
                                           ; 2 exit points
                                           ;	.line	195; "MC32P7351.c"	if(VIN_5V)
0000be   e794     jbset   0x194, 0x3       	JBSET	_IOP1bits,3
0000bf   a0d9     goto    0xd9             	GOTO	_00191_DS_
                                           ;	.line	197; "MC32P7351.c"	if(VINtrue.key_cnt <100)VINtrue.key_cnt++;
0000c0   584e     movar   0x4e             	MOVAR	(_VINtrue + 0)
0000c1   560e     movra   0xe              	MOVRA	r0x1027
                                           ;;unsigned compare: left < lit(0x64=100), size=1
0000c2   3c64     movai   0x64             	MOVAI	0x64
0000c3   480e     rsubar  0xe              	RSUBAR	r0x1027
0000c4   f187     jbclr   0x187, 0         	JBCLR	PFLAG,0
0000c5   a0c9     goto    0xc9             	GOTO	_00186_DS_
                                           ;;genSkipc:3291: created from rifx:013B5EFC
0000c6   660e     incr    0xe              	INCR	r0x1027
                                           ;;gen.c:6570: size=0, offset=0, AOP_TYPE(res)=8
0000c7   580e     movar   0xe              	MOVAR	r0x1027
0000c8   564e     movra   0x4e             	MOVRA	(_VINtrue + 0)
                                           _00186_DS_
                                           ;	.line	198; "MC32P7351.c"	if(VINtrue.key_cnt>=25 && VINtrue.key_release)
0000c9   584e     movar   0x4e             	MOVAR	(_VINtrue + 0)
0000ca   560e     movra   0xe              	MOVRA	r0x1027
                                           ;;unsigned compare: left < lit(0x19=25), size=1
0000cb   3c19     movai   0x19             	MOVAI	0x19
0000cc   480e     rsubar  0xe              	RSUBAR	r0x1027
0000cd   e187     jbset   0x187, 0         	JBSET	PFLAG,0
0000ce   a0dd     goto    0xdd             	GOTO	_00193_DS_
                                           ;;genSkipc:3291: created from rifx:013B5EFC
0000cf   584f     movar   0x4f             	MOVAR	(_VINtrue + 1)
0000d0   560e     movra   0xe              	MOVRA	r0x1027
0000d1   3c00     movai   0                	MOVAI	0x00
0000d2   5c0e     orar    0xe              	ORAR	r0x1027
0000d3   f587     jbclr   0x187, 0x2       	JBCLR	PFLAG,2
0000d4   a0dd     goto    0xdd             	GOTO	_00193_DS_
                                           ;;gen.c:6570: size=0, offset=0, AOP_TYPE(res)=8
                                           ;	.line	200; "MC32P7351.c"	VINtrue.key_release = 0;
0000d5   764f     clrr    0x4f             	CLRR	(_VINtrue + 1)
                                           ;	.line	201; "MC32P7351.c"	charge_F = 1;
0000d6   3c01     movai   0x1              	MOVAI	0x01
0000d7   5661     movra   0x61             	MOVRA	_charge_F
0000d8   a0dd     goto    0xdd             	GOTO	_00193_DS_
                                           ;;gen.c:6570: size=0, offset=0, AOP_TYPE(res)=8
                                           _00191_DS_
                                           ;	.line	206; "MC32P7351.c"	VINtrue.key_cnt = 0;
0000d9   764e     clrr    0x4e             	CLRR	(_VINtrue + 0)
                                           ;;gen.c:6570: size=0, offset=0, AOP_TYPE(res)=8
                                           ;	.line	207; "MC32P7351.c"	VINtrue.key_release = 1;
0000da   3c01     movai   0x1              	MOVAI	0x01
0000db   564f     movra   0x4f             	MOVRA	(_VINtrue + 1)
                                           ;	.line	208; "MC32P7351.c"	charge_F = 0;
0000dc   7661     clrr    0x61             	CLRR	_charge_F
                                           _00193_DS_
                                           ;	.line	210; "MC32P7351.c"	}
0000dd   000c     return                   	RETURN	
                                           ; exit point of _VIN_Scan
                                           
                                           ;***
                                           ;  pBlock Stats: dbName = C
                                           ;***
                                           ;entry:  _ADC_cul	;Function start
                                           ; 2 exit points
                                           ;has an exit
                                           ;functions called:
                                           ;   _ADC_Get_Value_Average
                                           ;   _Set_ADC_Channel
                                           ;   _delay
                                           ;   _ADC_Get_Value_Average
                                           ;   _Set_ADC_Channel
                                           ;   _Uart_getsend_func
                                           ;   _ADC_Get_Value_Average
                                           ;   _Set_ADC_Channel
                                           ;   _delay
                                           ;   _ADC_Get_Value_Average
                                           ;   _Set_ADC_Channel
                                           ;   _Uart_getsend_func
                                           ;11 compiler assigned registers:
                                           ;   r0x1032
                                           ;   STK00
                                           ;   r0x1033
                                           ;   r0x1034
                                           ;   r0x1035
                                           ;   r0x1036
                                           ;   STK02
                                           ;   STK01
                                           ;   r0x1037
                                           ;   r0x1038
                                           ;   r0x1039
                                           ;; Starting pCode block
                                           _ADC_cul	;Function start
                                           ; 2 exit points
                                           ;	.line	138; "MC32P7351.c"	if(ADCScan_F)
0000de   3c00     movai   0                	MOVAI	0x00
0000df   5c62     orar    0x62             	ORAR	_ADCScan_F
0000e0   f587     jbclr   0x187, 0x2       	JBCLR	PFLAG,2
0000e1   a161     goto    0x161            	GOTO	_00154_DS_
                                           ;	.line	140; "MC32P7351.c"	ADCScan_F = 0;
0000e2   7662     clrr    0x62             	CLRR	_ADCScan_F
                                           ;	.line	141; "MC32P7351.c"	ChargeTrue.BAT_Voltage = ADC_Get_Value_Average();
0000e3   826b     call    0x26b            	CALL	_ADC_Get_Value_Average
0000e4   5618     movra   0x18             	MOVRA	r0x1032
0000e5   5806     movar   0x6              	MOVAR	STK00
0000e6   5622     movra   0x22             	MOVRA	(_ChargeTrue + 0)
0000e7   5617     movra   0x17             	MOVRA	r0x1033
                                           ;;gen.c:6570: size=1, offset=0, AOP_TYPE(res)=8
                                           ;;117	MOVAR	r0x1033
                                           ;;gen.c:6570: size=0, offset=1, AOP_TYPE(res)=8
0000e8   5818     movar   0x18             	MOVAR	r0x1032
0000e9   5623     movra   0x23             	MOVRA	(_ChargeTrue + 1)
                                           ;	.line	142; "MC32P7351.c"	Set_ADC_Channel(3);
0000ea   3c03     movai   0x3              	MOVAI	0x03
0000eb   8306     call    0x306            	CALL	_Set_ADC_Channel
                                           ;	.line	143; "MC32P7351.c"	delay(2);
0000ec   3c02     movai   0x2              	MOVAI	0x02
0000ed   5606     movra   0x6              	MOVRA	STK00
0000ee   3c00     movai   0                	MOVAI	0x00
0000ef   832e     call    0x32e            	CALL	_delay
                                           ;	.line	144; "MC32P7351.c"	buff[0] = ChargeTrue.BAT_Voltage;
0000f0   5822     movar   0x22             	MOVAR	(_ChargeTrue + 0)
0000f1   563c     movra   0x3c             	MOVRA	(_buff + 0)
0000f2   5617     movra   0x17             	MOVRA	r0x1033
                                           ;;gen.c:6570: size=0, offset=0, AOP_TYPE(res)=8
                                           ;;116	MOVAR	r0x1033
                                           ;	.line	145; "MC32P7351.c"	buff[1] = ChargeTrue.BAT_Voltage >> 8;
0000f3   5822     movar   0x22             	MOVAR	(_ChargeTrue + 0)
0000f4   5617     movra   0x17             	MOVRA	r0x1033
0000f5   5823     movar   0x23             	MOVAR	(_ChargeTrue + 1)
0000f6   5617     movra   0x17             	MOVRA	r0x1033
0000f7   5619     movra   0x19             	MOVRA	r0x1034
0000f8   5618     movra   0x18             	MOVRA	r0x1032
                                           ;;101	MOVAR	r0x1032
0000f9   761a     clrr    0x1a             	CLRR	r0x1035
                                           ;;112	MOVAR	r0x1034
                                           ;;gen.c:6570: size=0, offset=0, AOP_TYPE(res)=8
0000fa   5817     movar   0x17             	MOVAR	r0x1033
0000fb   563d     movra   0x3d             	MOVRA	(_buff + 1)
                                           ;	.line	146; "MC32P7351.c"	ChargeTrue.I_Voltage = ADC_Get_Value_Average();
0000fc   826b     call    0x26b            	CALL	_ADC_Get_Value_Average
0000fd   5619     movra   0x19             	MOVRA	r0x1034
0000fe   5806     movar   0x6              	MOVAR	STK00
0000ff   5624     movra   0x24             	MOVRA	(_ChargeTrue + 2)
000100   5617     movra   0x17             	MOVRA	r0x1033
                                           ;;gen.c:6570: size=1, offset=0, AOP_TYPE(res)=8
                                           ;;115	MOVAR	r0x1033
                                           ;;gen.c:6570: size=0, offset=1, AOP_TYPE(res)=8
000101   5819     movar   0x19             	MOVAR	r0x1034
000102   5625     movra   0x25             	MOVRA	(_ChargeTrue + 3)
                                           ;	.line	147; "MC32P7351.c"	Set_ADC_Channel(10);
000103   3c0a     movai   0xa              	MOVAI	0x0a
000104   8306     call    0x306            	CALL	_Set_ADC_Channel
                                           ;	.line	148; "MC32P7351.c"	buff[2] = ChargeTrue.I_Voltage;
000105   5824     movar   0x24             	MOVAR	(_ChargeTrue + 2)
000106   563e     movra   0x3e             	MOVRA	(_buff + 2)
000107   5617     movra   0x17             	MOVRA	r0x1033
                                           ;;gen.c:6570: size=0, offset=0, AOP_TYPE(res)=8
                                           ;;114	MOVAR	r0x1033
                                           ;	.line	149; "MC32P7351.c"	buff[3] = ChargeTrue.I_Voltage >> 8;
000108   5824     movar   0x24             	MOVAR	(_ChargeTrue + 2)
000109   5617     movra   0x17             	MOVRA	r0x1033
00010a   5825     movar   0x25             	MOVAR	(_ChargeTrue + 3)
00010b   563f     movra   0x3f             	MOVRA	(_buff + 3)
00010c   5617     movra   0x17             	MOVRA	r0x1033
00010d   561a     movra   0x1a             	MOVRA	r0x1035
00010e   5619     movra   0x19             	MOVRA	r0x1034
                                           ;;102	MOVAR	r0x1034
00010f   761b     clrr    0x1b             	CLRR	r0x1036
                                           ;;103	MOVAR	r0x1035
                                           ;;gen.c:6570: size=0, offset=0, AOP_TYPE(res)=8
                                           ;;113	MOVAR	r0x1033
                                           ;;gen.c:6570: size=0, offset=0, AOP_TYPE(res)=8
                                           ;	.line	150; "MC32P7351.c"	buff[4] = 0;
000110   7640     clrr    0x40             	CLRR	(_buff + 4)
                                           ;;gen.c:6570: size=0, offset=0, AOP_TYPE(res)=8
                                           ;	.line	151; "MC32P7351.c"	buff[5] = charge_F;
000111   5861     movar   0x61             	MOVAR	_charge_F
000112   5641     movra   0x41             	MOVRA	(_buff + 5)
                                           ;	.line	152; "MC32P7351.c"	Uart_getsend_func(buff,6);
000113   3c00     movai   0                	MOVAI	high (_buff + 0)
000114   561a     movra   0x1a             	MOVRA	r0x1035
000115   3c3c     movai   0x3c             	MOVAI	(_buff + 0)
000116   5617     movra   0x17             	MOVRA	r0x1033
000117   761b     clrr    0x1b             	CLRR	r0x1036
000118   3c06     movai   0x6              	MOVAI	0x06
000119   5604     movra   0x4              	MOVRA	STK02
00011a   5817     movar   0x17             	MOVAR	r0x1033
00011b   5605     movra   0x5              	MOVRA	STK01
00011c   581a     movar   0x1a             	MOVAR	r0x1035
00011d   5606     movra   0x6              	MOVRA	STK00
00011e   3c00     movai   0                	MOVAI	0x00
00011f   816b     call    0x16b            	CALL	_Uart_getsend_func
                                           ;	.line	168; "MC32P7351.c"	if(ChargeTrue.I_Voltage < ChargeTrue.I_Target)
000120   5824     movar   0x24             	MOVAR	(_ChargeTrue + 2)
000121   5617     movra   0x17             	MOVRA	r0x1033
000122   5825     movar   0x25             	MOVAR	(_ChargeTrue + 3)
000123   561a     movra   0x1a             	MOVRA	r0x1035
000124   5826     movar   0x26             	MOVAR	(_ChargeTrue + 4)
000125   561b     movra   0x1b             	MOVRA	r0x1036
000126   5827     movar   0x27             	MOVAR	(_ChargeTrue + 5)
000127   561c     movra   0x1c             	MOVRA	r0x1037
000128   581c     movar   0x1c             	MOVAR	r0x1037
000129   481a     rsubar  0x1a             	RSUBAR	r0x1035
00012a   e587     jbset   0x187, 0x2       	JBSET	PFLAG,2
00012b   a12e     goto    0x12e            	GOTO	_00180_DS_
00012c   581b     movar   0x1b             	MOVAR	r0x1036
00012d   4817     rsubar  0x17             	RSUBAR	r0x1033
                                           _00180_DS_
00012e   f187     jbclr   0x187, 0         	JBCLR	PFLAG,0
00012f   a149     goto    0x149            	GOTO	_00150_DS_
                                           ;;genSkipc:3291: created from rifx:013B5EFC
                                           ;	.line	170; "MC32P7351.c"	ChargeTrue.PWMDuty_Target = ChargeTrue.I_Target - ChargeTrue.I_Voltage;
000130   581b     movar   0x1b             	MOVAR	r0x1036
000131   561d     movra   0x1d             	MOVRA	r0x1038
                                           ;;107	MOVAR	r0x1033
                                           ;;106	MOVAR	r0x1039
000132   5817     movar   0x17             	MOVAR	r0x1033
000133   561e     movra   0x1e             	MOVRA	r0x1039
000134   4a1d     rsubra  0x1d             	RSUBRA	r0x1038
                                           ;;gen.c:6570: size=0, offset=0, AOP_TYPE(res)=8
000135   581d     movar   0x1d             	MOVAR	r0x1038
000136   5628     movra   0x28             	MOVRA	(_ChargeTrue + 6)
                                           ;;swapping arguments (AOP_TYPEs 1/2)
                                           ;;unsigned compare: left >= lit(0x9=9), size=1
                                           ;	.line	171; "MC32P7351.c"	if(ChargeTrue.PWMDuty_Target >8)//wpm
000137   3c09     movai   0x9              	MOVAI	0x09
000138   481d     rsubar  0x1d             	RSUBAR	r0x1038
000139   e187     jbset   0x187, 0         	JBSET	PFLAG,0
00013a   a161     goto    0x161            	GOTO	_00154_DS_
                                           ;;genSkipc:3291: created from rifx:013B5EFC
                                           ;	.line	173; "MC32P7351.c"	if(ChargeTrue.PWMDuty_Now<155)
00013b   5829     movar   0x29             	MOVAR	(_ChargeTrue + 7)
00013c   561d     movra   0x1d             	MOVRA	r0x1038
                                           ;;unsigned compare: left < lit(0x9B=155), size=1
00013d   3c9b     movai   0x9b             	MOVAI	0x9b
00013e   481d     rsubar  0x1d             	RSUBAR	r0x1038
00013f   f187     jbclr   0x187, 0         	JBCLR	PFLAG,0
000140   a146     goto    0x146            	GOTO	_00142_DS_
                                           ;;genSkipc:3291: created from rifx:013B5EFC
                                           ;	.line	174; "MC32P7351.c"	ChargeTrue.PWMDuty_Now += 1;
000141   581d     movar   0x1d             	MOVAR	r0x1038
000142   561e     movra   0x1e             	MOVRA	r0x1039
000143   641e     incar   0x1e             	INCAR	r0x1039
000144   5629     movra   0x29             	MOVRA	(_ChargeTrue + 7)
000145   561d     movra   0x1d             	MOVRA	r0x1038
                                           ;;gen.c:6570: size=0, offset=0, AOP_TYPE(res)=8
                                           ;;105	MOVAR	r0x1038
                                           _00142_DS_
                                           ;	.line	175; "MC32P7351.c"	T2DATA = ChargeTrue.PWMDuty_Now;
000146   5829     movar   0x29             	MOVAR	(_ChargeTrue + 7)
000147   57a3     movra   0x1a3            	MOVRA	_T2DATA
000148   a161     goto    0x161            	GOTO	_00154_DS_
                                           _00150_DS_
                                           ;	.line	180; "MC32P7351.c"	ChargeTrue.PWMDuty_Target = ChargeTrue.I_Voltage - ChargeTrue.I_Target;
000149   5817     movar   0x17             	MOVAR	r0x1033
00014a   561d     movra   0x1d             	MOVRA	r0x1038
                                           ;;111	MOVAR	r0x1036
                                           ;;110	MOVAR	r0x1033
00014b   581b     movar   0x1b             	MOVAR	r0x1036
00014c   5617     movra   0x17             	MOVRA	r0x1033
00014d   481d     rsubar  0x1d             	RSUBAR	r0x1038
00014e   5628     movra   0x28             	MOVRA	(_ChargeTrue + 6)
00014f   561b     movra   0x1b             	MOVRA	r0x1036
                                           ;;gen.c:6570: size=0, offset=0, AOP_TYPE(res)=8
                                           ;;104	MOVAR	r0x1036
                                           ;;swapping arguments (AOP_TYPEs 1/2)
                                           ;;unsigned compare: left >= lit(0x9=9), size=1
                                           ;	.line	181; "MC32P7351.c"	if(ChargeTrue.PWMDuty_Target >8)//wpm
000150   3c09     movai   0x9              	MOVAI	0x09
000151   481b     rsubar  0x1b             	RSUBAR	r0x1036
000152   e187     jbset   0x187, 0         	JBSET	PFLAG,0
000153   a161     goto    0x161            	GOTO	_00154_DS_
                                           ;;genSkipc:3291: created from rifx:013B5EFC
                                           ;	.line	183; "MC32P7351.c"	if(ChargeTrue.PWMDuty_Now >2)
000154   5829     movar   0x29             	MOVAR	(_ChargeTrue + 7)
000155   5617     movra   0x17             	MOVRA	r0x1033
                                           ;;swapping arguments (AOP_TYPEs 1/2)
                                           ;;unsigned compare: left >= lit(0x3=3), size=1
000156   3c03     movai   0x3              	MOVAI	0x03
000157   4817     rsubar  0x17             	RSUBAR	r0x1033
000158   e187     jbset   0x187, 0         	JBSET	PFLAG,0
000159   a15f     goto    0x15f            	GOTO	_00146_DS_
                                           ;;genSkipc:3291: created from rifx:013B5EFC
                                           ;	.line	184; "MC32P7351.c"	ChargeTrue.PWMDuty_Now -= 1;
00015a   5817     movar   0x17             	MOVAR	r0x1033
00015b   561b     movra   0x1b             	MOVRA	r0x1036
00015c   6c1b     decar   0x1b             	DECAR	r0x1036
00015d   5629     movra   0x29             	MOVRA	(_ChargeTrue + 7)
00015e   5617     movra   0x17             	MOVRA	r0x1033
                                           ;;gen.c:6570: size=0, offset=0, AOP_TYPE(res)=8
                                           ;;100	MOVAR	r0x1033
                                           _00146_DS_
                                           ;	.line	185; "MC32P7351.c"	T2DATA = ChargeTrue.PWMDuty_Now;
00015f   5829     movar   0x29             	MOVAR	(_ChargeTrue + 7)
000160   57a3     movra   0x1a3            	MOVRA	_T2DATA
                                           _00154_DS_
                                           ;	.line	191; "MC32P7351.c"	}
000161   000c     return                   	RETURN	
                                           ; exit point of _ADC_cul
                                           
                                           ;***
                                           ;  pBlock Stats: dbName = C
                                           ;***
                                           ;entry:  _Sys_Init	;Function start
                                           ; 2 exit points
                                           ;has an exit
                                           ;functions called:
                                           ;   _CLR_RAM
                                           ;   _IO_Init
                                           ;   _TIMER0_INT_Init
                                           ;   _TIMER1_INT_Init
                                           ;   _TIMER2_PWM_Init
                                           ;   _ADC_Init
                                           ;   _CLR_RAM
                                           ;   _IO_Init
                                           ;   _TIMER0_INT_Init
                                           ;   _TIMER1_INT_Init
                                           ;   _TIMER2_PWM_Init
                                           ;   _ADC_Init
                                           ;; Starting pCode block
                                           _Sys_Init	;Function start
                                           ; 2 exit points
                                           ;	.line	112; "MC32P7351.c"	GIE = 0;
000162   df88     bclr    0x188, 0x7       	BCLR	_MCRbits,7
                                           ;	.line	113; "MC32P7351.c"	CLR_RAM();
000163   83ab     call    0x3ab            	CALL	_CLR_RAM
                                           ;	.line	114; "MC32P7351.c"	IO_Init();
000164   839b     call    0x39b            	CALL	_IO_Init
                                           ;	.line	115; "MC32P7351.c"	TIMER0_INT_Init();     	
000165   8392     call    0x392            	CALL	_TIMER0_INT_Init
                                           ;	.line	116; "MC32P7351.c"	TIMER1_INT_Init();
000166   8389     call    0x389            	CALL	_TIMER1_INT_Init
                                           ;	.line	121; "MC32P7351.c"	TIMER2_PWM_Init();
000167   8350     call    0x350            	CALL	_TIMER2_PWM_Init
                                           ;	.line	122; "MC32P7351.c"	ADC_Init();
000168   8341     call    0x341            	CALL	_ADC_Init
                                           ;	.line	123; "MC32P7351.c"	GIE = 1;
000169   cf88     bset    0x188, 0x7       	BSET	_MCRbits,7
                                           ;	.line	124; "MC32P7351.c"	}
00016a   000c     return                   	RETURN	
                                           ; exit point of _Sys_Init
                                           
                                           ;***
                                           ;  pBlock Stats: dbName = C
                                           ;***
                                           ;entry:  _Uart_getsend_func	;Function start
                                           ; 2 exit points
                                           ;has an exit
                                           ;functions called:
                                           ;   __gptrget1
                                           ;   __gptrget1
                                           ;14 compiler assigned registers:
                                           ;   r0x1027
                                           ;   STK00
                                           ;   r0x1028
                                           ;   STK01
                                           ;   r0x1029
                                           ;   STK02
                                           ;   r0x102A
                                           ;   r0x102B
                                           ;   r0x102C
                                           ;   r0x102D
                                           ;   r0x102E
                                           ;   r0x102F
                                           ;   r0x1030
                                           ;   r0x1031
                                           ;; Starting pCode block
                                           _Uart_getsend_func	;Function start
                                           ; 2 exit points
                                           ;	.line	71; "MC32P7351.c"	void Uart_getsend_func(u8* data,u8 len)
00016b   560e     movra   0xe              	MOVRA	r0x1027
00016c   5806     movar   0x6              	MOVAR	STK00
00016d   560d     movra   0xd              	MOVRA	r0x1028
00016e   5805     movar   0x5              	MOVAR	STK01
00016f   560c     movra   0xc              	MOVRA	r0x1029
000170   5804     movar   0x4              	MOVAR	STK02
000171   560f     movra   0xf              	MOVRA	r0x102A
                                           ;	.line	74; "MC32P7351.c"	if(UARTUser.Uart_ov)
000172   5835     movar   0x35             	MOVAR	(_UARTUser + 1)
000173   5610     movra   0x10             	MOVRA	r0x102B
000174   3c00     movai   0                	MOVAI	0x00
000175   5c10     orar    0x10             	ORAR	r0x102B
000176   f587     jbclr   0x187, 0x2       	JBCLR	PFLAG,2
000177   a1ad     goto    0x1ad            	GOTO	_00132_DS_
                                           ;	.line	76; "MC32P7351.c"	if(UARTUser.Uart_send_F)
000178   5836     movar   0x36             	MOVAR	(_UARTUser + 2)
000179   5610     movra   0x10             	MOVRA	r0x102B
00017a   3c00     movai   0                	MOVAI	0x00
00017b   5c10     orar    0x10             	ORAR	r0x102B
00017c   f587     jbclr   0x187, 0x2       	JBCLR	PFLAG,2
00017d   a1ad     goto    0x1ad            	GOTO	_00132_DS_
                                           ;	.line	78; "MC32P7351.c"	for ( i = 0; i < len; i++)
00017e   7610     clrr    0x10             	CLRR	r0x102B
                                           _00130_DS_
00017f   580f     movar   0xf              	MOVAR	r0x102A
000180   4810     rsubar  0x10             	RSUBAR	r0x102B
000181   f187     jbclr   0x187, 0         	JBCLR	PFLAG,0
000182   a1a4     goto    0x1a4            	GOTO	_00124_DS_
                                           ;;genSkipc:3291: created from rifx:013B5EFC
                                           ;	.line	80; "MC32P7351.c"	UARTUser.Uart_sendbuff[i] = data[i];
000183   5810     movar   0x10             	MOVAR	r0x102B
000184   3f38     addai   0x38             	ADDAI	(_UARTUser + 4)
000185   5611     movra   0x11             	MOVRA	r0x102C
000186   3c00     movai   0                	MOVAI	high (_UARTUser + 4)
000187   f187     jbclr   0x187, 0         	JBCLR	PFLAG,0
000188   3f01     addai   0x1              	ADDAI	0x01
000189   5612     movra   0x12             	MOVRA	r0x102D
00018a   5810     movar   0x10             	MOVAR	r0x102B
00018b   7c0c     addar   0xc              	ADDAR	r0x1029
00018c   5613     movra   0x13             	MOVRA	r0x102E
00018d   580d     movar   0xd              	MOVAR	r0x1028
00018e   f187     jbclr   0x187, 0         	JBCLR	PFLAG,0
00018f   3f01     addai   0x1              	ADDAI	0x01
000190   5614     movra   0x14             	MOVRA	r0x102F
000191   580e     movar   0xe              	MOVAR	r0x1027
000192   f187     jbclr   0x187, 0         	JBCLR	PFLAG,0
000193   3f01     addai   0x1              	ADDAI	0x01
000194   5615     movra   0x15             	MOVRA	r0x1030
000195   5813     movar   0x13             	MOVAR	r0x102E
000196   5605     movra   0x5              	MOVRA	STK01
000197   5814     movar   0x14             	MOVAR	r0x102F
000198   5606     movra   0x6              	MOVRA	STK00
000199   5815     movar   0x15             	MOVAR	r0x1030
00019a   83b7     call    0x3b7            	CALL	__gptrget1
00019b   5616     movra   0x16             	MOVRA	r0x1031
00019c   5811     movar   0x11             	MOVAR	r0x102C
00019d   5784     movra   0x184            	MOVRA	FSR0
00019e   5812     movar   0x12             	MOVAR	r0x102D
00019f   5785     movra   0x185            	MOVRA	FSR1
0001a0   5816     movar   0x16             	MOVAR	r0x1031
0001a1   5782     movra   0x182            	MOVRA	INDF2
                                           ;	.line	78; "MC32P7351.c"	for ( i = 0; i < len; i++)
0001a2   6610     incr    0x10             	INCR	r0x102B
0001a3   a17f     goto    0x17f            	GOTO	_00130_DS_
                                           ;;gen.c:6570: size=0, offset=0, AOP_TYPE(res)=8
                                           _00124_DS_
                                           ;	.line	82; "MC32P7351.c"	UARTUser.Uart_send_byteLen = len;
0001a4   580f     movar   0xf              	MOVAR	r0x102A
0001a5   5637     movra   0x37             	MOVRA	(_UARTUser + 3)
                                           ;;gen.c:6570: size=0, offset=0, AOP_TYPE(res)=8
                                           ;	.line	84; "MC32P7351.c"	UARTUser.Uart_bit_cnt = 0;
0001a6   7634     clrr    0x34             	CLRR	(_UARTUser + 0)
                                           ;;gen.c:6570: size=0, offset=0, AOP_TYPE(res)=8
                                           ;	.line	85; "MC32P7351.c"	UARTUser.Uart_ov = 0;
0001a7   7635     clrr    0x35             	CLRR	(_UARTUser + 1)
                                           ;	.line	86; "MC32P7351.c"	UARTSEND_PIN = 0;
0001a8   df94     bclr    0x194, 0x7       	BCLR	_IOP1bits,7
                                           ;	.line	87; "MC32P7351.c"	T0IF = 0;
0001a9   d18b     bclr    0x18b, 0         	BCLR	_INTFbits,0
                                           ;	.line	88; "MC32P7351.c"	T0IE = 1;
0001aa   c18a     bset    0x18a, 0         	BSET	_INTEbits,0
                                           ;	.line	89; "MC32P7351.c"	T0CNT = 104 -1;
0001ab   3c67     movai   0x67             	MOVAI	0x67
0001ac   5799     movra   0x199            	MOVRA	_T0CNT
                                           _00132_DS_
                                           ;	.line	92; "MC32P7351.c"	}
0001ad   000c     return                   	RETURN	
                                           ; exit point of _Uart_getsend_func
                                           
                                           ;***
                                           ;  pBlock Stats: dbName = C
                                           ;***
                                           ;entry:  _Uart_send_Function	;Function start
                                           ; 2 exit points
                                           ;has an exit
                                           ;5 compiler assigned registers:
                                           ;   r0x103A
                                           ;   r0x103B
                                           ;   r0x103C
                                           ;   r0x103D
                                           ;   r0x103E
                                           ;; Starting pCode block
                                           _Uart_send_Function	;Function start
                                           ; 2 exit points
                                           ;	.line	45; "MC32P7351.c"	UARTUser.Uart_bit_cnt++;
0001ae   5834     movar   0x34             	MOVAR	(_UARTUser + 0)
0001af   5607     movra   0x7              	MOVRA	r0x103A
0001b0   6607     incr    0x7              	INCR	r0x103A
                                           ;;gen.c:6570: size=0, offset=0, AOP_TYPE(res)=8
0001b1   5807     movar   0x7              	MOVAR	r0x103A
0001b2   5634     movra   0x34             	MOVRA	(_UARTUser + 0)
                                           ;	.line	46; "MC32P7351.c"	if(UARTUser.Uart_bit_cnt <= UART_LEN)
0001b3   5834     movar   0x34             	MOVAR	(_UARTUser + 0)
0001b4   5608     movra   0x8              	MOVRA	r0x103B
                                           ;;swapping arguments (AOP_TYPEs 1/2)
                                           ;;unsigned compare: left >= lit(0x9=9), size=1
0001b5   3c09     movai   0x9              	MOVAI	0x09
0001b6   4807     rsubar  0x7              	RSUBAR	r0x103A
0001b7   f187     jbclr   0x187, 0         	JBCLR	PFLAG,0
0001b8   a1ec     goto    0x1ec            	GOTO	_00117_DS_
                                           ;;genSkipc:3291: created from rifx:013B5EFC
                                           ;	.line	48; "MC32P7351.c"	if(UARTUser.Uart_sendbuff[UARTUser.Uart_send_byteLen-1]&0x01)
0001b9   5837     movar   0x37             	MOVAR	(_UARTUser + 3)
0001ba   5609     movra   0x9              	MOVRA	r0x103C
0001bb   5607     movra   0x7              	MOVRA	r0x103A
                                           ;;109	MOVAR	r0x103A
0001bc   6c09     decar   0x9              	DECAR	r0x103C
0001bd   5607     movra   0x7              	MOVRA	r0x103A
0001be   5807     movar   0x7              	MOVAR	r0x103A
0001bf   3f38     addai   0x38             	ADDAI	(_UARTUser + 4)
0001c0   5607     movra   0x7              	MOVRA	r0x103A
0001c1   3c00     movai   0                	MOVAI	high (_UARTUser + 4)
0001c2   f187     jbclr   0x187, 0         	JBCLR	PFLAG,0
0001c3   3f01     addai   0x1              	ADDAI	0x01
0001c4   5609     movra   0x9              	MOVRA	r0x103C
0001c5   5807     movar   0x7              	MOVAR	r0x103A
0001c6   5784     movra   0x184            	MOVRA	FSR0
0001c7   5809     movar   0x9              	MOVAR	r0x103C
0001c8   5785     movra   0x185            	MOVRA	FSR1
0001c9   5982     movar   0x182            	MOVAR	INDF2
0001ca   560a     movra   0xa              	MOVRA	r0x103D
0001cb   e00a     jbset   0xa, 0           	JBSET	r0x103D,0
0001cc   a1cf     goto    0x1cf            	GOTO	_00106_DS_
                                           ;	.line	49; "MC32P7351.c"	UARTSEND_PIN = 1;
0001cd   cf94     bset    0x194, 0x7       	BSET	_IOP1bits,7
0001ce   a1d0     goto    0x1d0            	GOTO	_00107_DS_
                                           _00106_DS_
                                           ;	.line	51; "MC32P7351.c"	UARTSEND_PIN = 0;
0001cf   df94     bclr    0x194, 0x7       	BCLR	_IOP1bits,7
                                           _00107_DS_
                                           ;	.line	52; "MC32P7351.c"	UARTUser.Uart_sendbuff[UARTUser.Uart_send_byteLen-1] >>= 1;
0001d0   5837     movar   0x37             	MOVAR	(_UARTUser + 3)
0001d1   5609     movra   0x9              	MOVRA	r0x103C
0001d2   5607     movra   0x7              	MOVRA	r0x103A
                                           ;;99	MOVAR	r0x103A
0001d3   6c09     decar   0x9              	DECAR	r0x103C
0001d4   5607     movra   0x7              	MOVRA	r0x103A
0001d5   5807     movar   0x7              	MOVAR	r0x103A
0001d6   3f38     addai   0x38             	ADDAI	(_UARTUser + 4)
0001d7   5607     movra   0x7              	MOVRA	r0x103A
0001d8   3c00     movai   0                	MOVAI	high (_UARTUser + 4)
0001d9   f187     jbclr   0x187, 0         	JBCLR	PFLAG,0
0001da   3f01     addai   0x1              	ADDAI	0x01
0001db   5609     movra   0x9              	MOVRA	r0x103C
0001dc   5807     movar   0x7              	MOVAR	r0x103A
0001dd   5784     movra   0x184            	MOVRA	FSR0
0001de   5809     movar   0x9              	MOVAR	r0x103C
0001df   5785     movra   0x185            	MOVRA	FSR1
0001e0   5982     movar   0x182            	MOVAR	INDF2
0001e1   560a     movra   0xa              	MOVRA	r0x103D
                                           ;;shiftRight_Left2ResultLit:5339: shCount=1, size=1, sign=0, same=0, offr=0
0001e2   d187     bclr    0x187, 0         	BCLR	PFLAG,0
0001e3   4c0a     rrar    0xa              	RRAR	r0x103D
0001e4   560b     movra   0xb              	MOVRA	r0x103E
0001e5   5807     movar   0x7              	MOVAR	r0x103A
0001e6   5784     movra   0x184            	MOVRA	FSR0
0001e7   5809     movar   0x9              	MOVAR	r0x103C
0001e8   5785     movra   0x185            	MOVRA	FSR1
0001e9   580b     movar   0xb              	MOVAR	r0x103E
0001ea   5782     movra   0x182            	MOVRA	INDF2
0001eb   a206     goto    0x206            	GOTO	_00119_DS_
                                           _00117_DS_
                                           ;	.line	54; "MC32P7351.c"	else if(UARTUser.Uart_bit_cnt == UART_LEN+1)
0001ec   5808     movar   0x8              	MOVAR	r0x103B
0001ed   3909     xorai   0x9              	XORAI	0x09
0001ee   e587     jbset   0x187, 0x2       	JBSET	PFLAG,2
0001ef   a1f2     goto    0x1f2            	GOTO	_00114_DS_
                                           ;	.line	56; "MC32P7351.c"	UARTSEND_PIN = 1;
0001f0   cf94     bset    0x194, 0x7       	BSET	_IOP1bits,7
0001f1   a206     goto    0x206            	GOTO	_00119_DS_
                                           _00114_DS_
                                           ;	.line	58; "MC32P7351.c"	else if(UARTUser.Uart_bit_cnt == UART_LEN+2)
0001f2   5808     movar   0x8              	MOVAR	r0x103B
0001f3   390a     xorai   0xa              	XORAI	0x0a
0001f4   e587     jbset   0x187, 0x2       	JBSET	PFLAG,2
0001f5   a206     goto    0x206            	GOTO	_00119_DS_
                                           ;;gen.c:6570: size=0, offset=0, AOP_TYPE(res)=8
                                           ;	.line	60; "MC32P7351.c"	UARTUser.Uart_bit_cnt = 0;
0001f6   7634     clrr    0x34             	CLRR	(_UARTUser + 0)
                                           ;	.line	61; "MC32P7351.c"	UARTUser.Uart_send_byteLen--;
0001f7   5837     movar   0x37             	MOVAR	(_UARTUser + 3)
0001f8   5607     movra   0x7              	MOVRA	r0x103A
0001f9   6e07     decr    0x7              	DECR	r0x103A
                                           ;;gen.c:6570: size=0, offset=0, AOP_TYPE(res)=8
0001fa   5807     movar   0x7              	MOVAR	r0x103A
0001fb   5637     movra   0x37             	MOVRA	(_UARTUser + 3)
                                           ;	.line	62; "MC32P7351.c"	if(UARTUser.Uart_send_byteLen == 0)
0001fc   3c00     movai   0                	MOVAI	0x00
0001fd   5c07     orar    0x7              	ORAR	r0x103A
0001fe   e587     jbset   0x187, 0x2       	JBSET	PFLAG,2
0001ff   a205     goto    0x205            	GOTO	_00109_DS_
                                           ;;gen.c:6570: size=0, offset=0, AOP_TYPE(res)=8
                                           ;	.line	64; "MC32P7351.c"	UARTUser.Uart_ov = 1;
000200   3c01     movai   0x1              	MOVAI	0x01
000201   5635     movra   0x35             	MOVRA	(_UARTUser + 1)
                                           ;	.line	65; "MC32P7351.c"	T0IE = 0;
000202   d18a     bclr    0x18a, 0         	BCLR	_INTEbits,0
                                           ;	.line	66; "MC32P7351.c"	T0IF = 0;
000203   d18b     bclr    0x18b, 0         	BCLR	_INTFbits,0
000204   a206     goto    0x206            	GOTO	_00119_DS_
                                           _00109_DS_
                                           ;	.line	68; "MC32P7351.c"	else UARTSEND_PIN = 0;
000205   df94     bclr    0x194, 0x7       	BCLR	_IOP1bits,7
                                           _00119_DS_
                                           ;	.line	70; "MC32P7351.c"	}
000206   000c     return                   	RETURN	
                                           ; exit point of _Uart_send_Function
                                           
                                           
                                           ;	code size estimation:
                                           ;	  498+    0 =   498 instructions (  996 byte)
                                           
                                           	end
                                           ;--------------------------------------------------------
                                           ; File Created by SN-SDCC : SinoMCU ANSI-C Compiler
                                           ; Version 2.0.0 (Dec 11 2019) (MINGW32)
                                           ; This file was generated Wed Nov 20 17:41:42 2024
                                           ;--------------------------------------------------------
                                           ; MC32 port for the RISC core
                                           ;--------------------------------------------------------
                                           ;	.file	"Init.c"
                                           	list	p=7351
                                           	radix dec
                                           	include "7351.inc"
                                           		LIST
                                           ;mc32p7351.inc    Standard Header File, Version 1.00 by Sinomcu
                                           		NOLIST
                                           ;--------------------------------------------------------
                                           ; external declarations
                                           ;--------------------------------------------------------
                                           	extern	_Sys_Init
                                           	extern	_Scan_ADC
                                           	extern	_Set_ADC_Channel
                                           	extern	_ADC_Get_Value_Average
                                           	extern	_Scan_Key
                                           	extern	_Sleep_Func
                                           	extern	_INDF0bits
                                           	extern	_INDF1bits
                                           	extern	_INDF2bits
                                           	extern	_HIBYTEbits
                                           	extern	_FSR0bits
                                           	extern	_FSR1bits
                                           	extern	_PCLbits
                                           	extern	_PFLAGbits
                                           	extern	_MCRbits
                                           	extern	_INDF3bits
                                           	extern	_INTEbits
                                           	extern	_INTFbits
                                           	extern	_DRVCRbits
                                           	extern	_PFRCCRbits
                                           	extern	_P1KBCRbits
                                           	extern	_PFRCCALbits
                                           	extern	_IOP0bits
                                           	extern	_OEP0bits
                                           	extern	_PUP0bits
                                           	extern	_PDP0bits
                                           	extern	_IOP1bits
                                           	extern	_OEP1bits
                                           	extern	_PUP1bits
                                           	extern	_PDP1bits
                                           	extern	_T0CRbits
                                           	extern	_T0CNTbits
                                           	extern	_T0LOADbits
                                           	extern	_T0DATAbits
                                           	extern	_T1CRbits
                                           	extern	_T1CNTbits
                                           	extern	_T1LOADbits
                                           	extern	_T1DATAbits
                                           	extern	_T2CRbits
                                           	extern	_T2CNTbits
                                           	extern	_T2LOADbits
                                           	extern	_T2DATAbits
                                           	extern	_T3CRbits
                                           	extern	_T3CNTbits
                                           	extern	_T3LOADbits
                                           	extern	_PWM0DRbits
                                           	extern	_PWM1DRbits
                                           	extern	_PWM2DRbits
                                           	extern	_PWMCR0bits
                                           	extern	_PWMCR1bits
                                           	extern	_OSCMRbits
                                           	extern	_LVDCRbits
                                           	extern	_ADCR0bits
                                           	extern	_ADCR1bits
                                           	extern	_ADCR2bits
                                           	extern	_OSADJCRbits
                                           	extern	_ADRHbits
                                           	extern	_ADRLbits
                                           	extern	_ADIOS0bits
                                           	extern	_ADIOS1bits
                                           	extern	_PMODbits
                                           	extern	_PWMCR3bits
                                           	extern	_PWMCR2bits
                                           	extern	_PFRCAUXbits
                                           	extern	_HIRCCALbits
                                           	extern	_Flag1
                                           	extern	_flag2
                                           	extern	_adc_data
                                           	extern	_INDF0
                                           	extern	_INDF1
                                           	extern	_INDF2
                                           	extern	_HIBYTE
                                           	extern	_FSR0
                                           	extern	_FSR1
                                           	extern	_PCL
                                           	extern	_PFLAG
                                           	extern	_MCR
                                           	extern	_INDF3
                                           	extern	_INTE
                                           	extern	_INTF
                                           	extern	_DRVCR
                                           	extern	_PFRCCR
                                           	extern	_P1KBCR
                                           	extern	_PFRCCAL
                                           	extern	_IOP0
                                           	extern	_OEP0
                                           	extern	_PUP0
                                           	extern	_PDP0
                                           	extern	_IOP1
                                           	extern	_OEP1
                                           	extern	_PUP1
                                           	extern	_PDP1
                                           	extern	_T0CR
                                           	extern	_T0CNT
                                           	extern	_T0LOAD
                                           	extern	_T0DATA
                                           	extern	_T1CR
                                           	extern	_T1CNT
                                           	extern	_T1LOAD
                                           	extern	_T1DATA
                                           	extern	_T2CR
                                           	extern	_T2CNT
                                           	extern	_T2LOAD
                                           	extern	_T2DATA
                                           	extern	_T3CR
                                           	extern	_T3CNT
                                           	extern	_T3LOAD
                                           	extern	_PWM0DR
                                           	extern	_PWM1DR
                                           	extern	_PWM2DR
                                           	extern	_PWMCR0
                                           	extern	_PWMCR1
                                           	extern	_OSCMR
                                           	extern	_LVDCR
                                           	extern	_ADCR0
                                           	extern	_ADCR1
                                           	extern	_ADCR2
                                           	extern	_OSADJCR
                                           	extern	_ADRH
                                           	extern	_ADRL
                                           	extern	_ADIOS0
                                           	extern	_ADIOS1
                                           	extern	_PMOD
                                           	extern	_PWMCR3
                                           	extern	_PWMCR2
                                           	extern	_PFRCAUX
                                           	extern	_HIRCCAL
                                           
                                           	extern STK06
                                           	extern STK05
                                           	extern STK04
                                           	extern STK03
                                           	extern STK02
                                           	extern STK01
                                           	extern STK00
                                           ;--------------------------------------------------------
                                           ; global declarations
                                           ;--------------------------------------------------------
                                           	global	_delay
                                           	global	_ADC_Init
                                           	global	_TIMER2_PWM_Init
                                           	global	_TIMER1_PWM_Init
                                           	global	_TIMER0_PWM_Init
                                           	global	_TIMER3_INT_Init
                                           	global	_TIMER2_INT_Init
                                           	global	_TIMER1_INT_Init
                                           	global	_TIMER0_INT_Init
                                           	global	_IO_Init
                                           	global	_CLR_RAM
                                           
                                           ;--------------------------------------------------------
                                           ; global definitions
                                           ;--------------------------------------------------------
                                           ;--------------------------------------------------------
                                           ; absolute symbol definitions
                                           ;--------------------------------------------------------
                                           ;--------------------------------------------------------
                                           ; compiler-defined variables
                                           ;--------------------------------------------------------
                                           UDL_Init_0	udata
                                           r0x1001	res	1
                                           r0x1000	res	1
                                           r0x1002	res	1
                                           r0x1003	res	1
                                           ;--------------------------------------------------------
                                           ; initialized data
                                           ;--------------------------------------------------------
                                           
                                           ;@Allocation info for local variables in function 'CLR_RAM'
                                           ;@CLR_RAM Sys_Init                  Allocated to registers ;size:2
                                           ;@CLR_RAM IO_Init                   Allocated to registers ;size:2
                                           ;@CLR_RAM TIMER0_INT_Init           Allocated to registers ;size:2
                                           ;@CLR_RAM TIMER1_INT_Init           Allocated to registers ;size:2
                                           ;@CLR_RAM TIMER2_INT_Init           Allocated to registers ;size:2
                                           ;@CLR_RAM TIMER3_INT_Init           Allocated to registers ;size:2
                                           ;@CLR_RAM TIMER0_PWM_Init           Allocated to registers ;size:2
                                           ;@CLR_RAM TIMER1_PWM_Init           Allocated to registers ;size:2
                                           ;@CLR_RAM TIMER2_PWM_Init           Allocated to registers ;size:2
                                           ;@CLR_RAM ADC_Init                  Allocated to registers ;size:2
                                           ;@CLR_RAM Scan_ADC                  Allocated to registers ;size:2
                                           ;@CLR_RAM Set_ADC_Channel           Allocated to registers ;size:2
                                           ;@CLR_RAM ADC_Get_Value_Average     Allocated to registers ;size:2
                                           ;@CLR_RAM Scan_Key                  Allocated to registers ;size:2
                                           ;@CLR_RAM Sleep_Func                Allocated to registers ;size:2
                                           ;@CLR_RAM delay                     Allocated to registers ;size:2
                                           ;@CLR_RAM INDF0bits                 Allocated to registers ;size:1
                                           ;@CLR_RAM INDF1bits                 Allocated to registers ;size:1
                                           ;@CLR_RAM INDF2bits                 Allocated to registers ;size:1
                                           ;@CLR_RAM HIBYTEbits                Allocated to registers ;size:1
                                           ;@CLR_RAM FSR0bits                  Allocated to registers ;size:1
                                           ;@CLR_RAM FSR1bits                  Allocated to registers ;size:1
                                           ;@CLR_RAM PCLbits                   Allocated to registers ;size:1
                                           ;@CLR_RAM PFLAGbits                 Allocated to registers ;size:1
                                           ;@CLR_RAM MCRbits                   Allocated to registers ;size:1
                                           ;@CLR_RAM INDF3bits                 Allocated to registers ;size:1
                                           ;@CLR_RAM INTEbits                  Allocated to registers ;size:1
                                           ;@CLR_RAM INTFbits                  Allocated to registers ;size:1
                                           ;@CLR_RAM DRVCRbits                 Allocated to registers ;size:1
                                           ;@CLR_RAM PFRCCRbits                Allocated to registers ;size:1
                                           ;@CLR_RAM P1KBCRbits                Allocated to registers ;size:1
                                           ;@CLR_RAM PFRCCALbits               Allocated to registers ;size:1
                                           ;@CLR_RAM IOP0bits                  Allocated to registers ;size:1
                                           ;@CLR_RAM OEP0bits                  Allocated to registers ;size:1
                                           ;@CLR_RAM PUP0bits                  Allocated to registers ;size:1
                                           ;@CLR_RAM PDP0bits                  Allocated to registers ;size:1
                                           ;@CLR_RAM IOP1bits                  Allocated to registers ;size:1
                                           ;@CLR_RAM OEP1bits                  Allocated to registers ;size:1
                                           ;@CLR_RAM PUP1bits                  Allocated to registers ;size:1
                                           ;@CLR_RAM PDP1bits                  Allocated to registers ;size:1
                                           ;@CLR_RAM T0CRbits                  Allocated to registers ;size:1
                                           ;@CLR_RAM T0CNTbits                 Allocated to registers ;size:1
                                           ;@CLR_RAM T0LOADbits                Allocated to registers ;size:1
                                           ;@CLR_RAM T0DATAbits                Allocated to registers ;size:1
                                           ;@CLR_RAM T1CRbits                  Allocated to registers ;size:1
                                           ;@CLR_RAM T1CNTbits                 Allocated to registers ;size:1
                                           ;@CLR_RAM T1LOADbits                Allocated to registers ;size:1
                                           ;@CLR_RAM T1DATAbits                Allocated to registers ;size:1
                                           ;@CLR_RAM T2CRbits                  Allocated to registers ;size:1
                                           ;@CLR_RAM T2CNTbits                 Allocated to registers ;size:1
                                           ;@CLR_RAM T2LOADbits                Allocated to registers ;size:1
                                           ;@CLR_RAM T2DATAbits                Allocated to registers ;size:1
                                           ;@CLR_RAM T3CRbits                  Allocated to registers ;size:1
                                           ;@CLR_RAM T3CNTbits                 Allocated to registers ;size:1
                                           ;@CLR_RAM T3LOADbits                Allocated to registers ;size:1
                                           ;@CLR_RAM PWM0DRbits                Allocated to registers ;size:1
                                           ;@CLR_RAM PWM1DRbits                Allocated to registers ;size:1
                                           ;@CLR_RAM PWM2DRbits                Allocated to registers ;size:1
                                           ;@CLR_RAM PWMCR0bits                Allocated to registers ;size:1
                                           ;@CLR_RAM PWMCR1bits                Allocated to registers ;size:1
                                           ;@CLR_RAM OSCMRbits                 Allocated to registers ;size:1
                                           ;@CLR_RAM LVDCRbits                 Allocated to registers ;size:1
                                           ;@CLR_RAM ADCR0bits                 Allocated to registers ;size:1
                                           ;@CLR_RAM ADCR1bits                 Allocated to registers ;size:1
                                           ;@CLR_RAM ADCR2bits                 Allocated to registers ;size:1
                                           ;@CLR_RAM OSADJCRbits               Allocated to registers ;size:1
                                           ;@CLR_RAM ADRHbits                  Allocated to registers ;size:1
                                           ;@CLR_RAM ADRLbits                  Allocated to registers ;size:1
                                           ;@CLR_RAM ADIOS0bits                Allocated to registers ;size:1
                                           ;@CLR_RAM ADIOS1bits                Allocated to registers ;size:1
                                           ;@CLR_RAM PMODbits                  Allocated to registers ;size:1
                                           ;@CLR_RAM PWMCR3bits                Allocated to registers ;size:1
                                           ;@CLR_RAM PWMCR2bits                Allocated to registers ;size:1
                                           ;@CLR_RAM PFRCAUXbits               Allocated to registers ;size:1
                                           ;@CLR_RAM HIRCCALbits               Allocated to registers ;size:1
                                           ;@CLR_RAM Flag1                     Allocated to registers ;size:1
                                           ;@CLR_RAM flag2                     Allocated to registers ;size:1
                                           ;@CLR_RAM adc_data                  Allocated to registers ;size:2
                                           ;@CLR_RAM INDF0                     Allocated to registers ;size:1
                                           ;@CLR_RAM INDF1                     Allocated to registers ;size:1
                                           ;@CLR_RAM INDF2                     Allocated to registers ;size:1
                                           ;@CLR_RAM HIBYTE                    Allocated to registers ;size:1
                                           ;@CLR_RAM FSR0                      Allocated to registers ;size:1
                                           ;@CLR_RAM FSR1                      Allocated to registers ;size:1
                                           ;@CLR_RAM PCL                       Allocated to registers ;size:1
                                           ;@CLR_RAM PFLAG                     Allocated to registers ;size:1
                                           ;@CLR_RAM MCR                       Allocated to registers ;size:1
                                           ;@CLR_RAM INDF3                     Allocated to registers ;size:1
                                           ;@CLR_RAM INTE                      Allocated to registers ;size:1
                                           ;@CLR_RAM INTF                      Allocated to registers ;size:1
                                           ;@CLR_RAM DRVCR                     Allocated to registers ;size:1
                                           ;@CLR_RAM PFRCCR                    Allocated to registers ;size:1
                                           ;@CLR_RAM P1KBCR                    Allocated to registers ;size:1
                                           ;@CLR_RAM PFRCCAL                   Allocated to registers ;size:1
                                           ;@CLR_RAM IOP0                      Allocated to registers ;size:1
                                           ;@CLR_RAM OEP0                      Allocated to registers ;size:1
                                           ;@CLR_RAM PUP0                      Allocated to registers ;size:1
                                           ;@CLR_RAM PDP0                      Allocated to registers ;size:1
                                           ;@CLR_RAM IOP1                      Allocated to registers ;size:1
                                           ;@CLR_RAM OEP1                      Allocated to registers ;size:1
                                           ;@CLR_RAM PUP1                      Allocated to registers ;size:1
                                           ;@CLR_RAM PDP1                      Allocated to registers ;size:1
                                           ;@CLR_RAM T0CR                      Allocated to registers ;size:1
                                           ;@CLR_RAM T0CNT                     Allocated to registers ;size:1
                                           ;@CLR_RAM T0LOAD                    Allocated to registers ;size:1
                                           ;@CLR_RAM T0DATA                    Allocated to registers ;size:1
                                           ;@CLR_RAM T1CR                      Allocated to registers ;size:1
                                           ;@CLR_RAM T1CNT                     Allocated to registers ;size:1
                                           ;@CLR_RAM T1LOAD                    Allocated to registers ;size:1
                                           ;@CLR_RAM T1DATA                    Allocated to registers ;size:1
                                           ;@CLR_RAM T2CR                      Allocated to registers ;size:1
                                           ;@CLR_RAM T2CNT                     Allocated to registers ;size:1
                                           ;@CLR_RAM T2LOAD                    Allocated to registers ;size:1
                                           ;@CLR_RAM T2DATA                    Allocated to registers ;size:1
                                           ;@CLR_RAM T3CR                      Allocated to registers ;size:1
                                           ;@CLR_RAM T3CNT                     Allocated to registers ;size:1
                                           ;@CLR_RAM T3LOAD                    Allocated to registers ;size:1
                                           ;@CLR_RAM PWM0DR                    Allocated to registers ;size:1
                                           ;@CLR_RAM PWM1DR                    Allocated to registers ;size:1
                                           ;@CLR_RAM PWM2DR                    Allocated to registers ;size:1
                                           ;@CLR_RAM PWMCR0                    Allocated to registers ;size:1
                                           ;@CLR_RAM PWMCR1                    Allocated to registers ;size:1
                                           ;@CLR_RAM OSCMR                     Allocated to registers ;size:1
                                           ;@CLR_RAM LVDCR                     Allocated to registers ;size:1
                                           ;@CLR_RAM ADCR0                     Allocated to registers ;size:1
                                           ;@CLR_RAM ADCR1                     Allocated to registers ;size:1
                                           ;@CLR_RAM ADCR2                     Allocated to registers ;size:1
                                           ;@CLR_RAM OSADJCR                   Allocated to registers ;size:1
                                           ;@CLR_RAM ADRH                      Allocated to registers ;size:1
                                           ;@CLR_RAM ADRL                      Allocated to registers ;size:1
                                           ;@CLR_RAM ADIOS0                    Allocated to registers ;size:1
                                           ;@CLR_RAM ADIOS1                    Allocated to registers ;size:1
                                           ;@CLR_RAM PMOD                      Allocated to registers ;size:1
                                           ;@CLR_RAM PWMCR3                    Allocated to registers ;size:1
                                           ;@CLR_RAM PWMCR2                    Allocated to registers ;size:1
                                           ;@CLR_RAM PFRCAUX                   Allocated to registers ;size:1
                                           ;@CLR_RAM HIRCCAL                   Allocated to registers ;size:1
                                           ;@end Allocation info for local variables in function 'CLR_RAM';
                                           ;@Allocation info for local variables in function 'IO_Init'
                                           ;@end Allocation info for local variables in function 'IO_Init';
                                           ;@Allocation info for local variables in function 'TIMER0_INT_Init'
                                           ;@end Allocation info for local variables in function 'TIMER0_INT_Init';
                                           ;@Allocation info for local variables in function 'TIMER1_INT_Init'
                                           ;@end Allocation info for local variables in function 'TIMER1_INT_Init';
                                           ;@Allocation info for local variables in function 'TIMER2_INT_Init'
                                           ;@end Allocation info for local variables in function 'TIMER2_INT_Init';
                                           ;@Allocation info for local variables in function 'TIMER3_INT_Init'
                                           ;@end Allocation info for local variables in function 'TIMER3_INT_Init';
                                           ;@Allocation info for local variables in function 'TIMER0_PWM_Init'
                                           ;@end Allocation info for local variables in function 'TIMER0_PWM_Init';
                                           ;@Allocation info for local variables in function 'TIMER1_PWM_Init'
                                           ;@end Allocation info for local variables in function 'TIMER1_PWM_Init';
                                           ;@Allocation info for local variables in function 'TIMER2_PWM_Init'
                                           ;@end Allocation info for local variables in function 'TIMER2_PWM_Init';
                                           ;@Allocation info for local variables in function 'ADC_Init'
                                           ;@end Allocation info for local variables in function 'ADC_Init';
                                           ;@Allocation info for local variables in function 'delay'
                                           ;@delay num                       Allocated to registers r0x1001 r0x1000 ;size:2
                                           ;@delay i                         Allocated to registers r0x1002 r0x1003 ;size:2
                                           ;@end Allocation info for local variables in function 'delay';
                                           
                                           ;--------------------------------------------------------
                                           ; overlayable items in internal ram 
                                           ;--------------------------------------------------------
                                           ;	udata_ovr
                                           ;--------------------------------------------------------
                                           ; code
                                           ;--------------------------------------------------------
                                           code_Init	code
                                           ;***
                                           ;  pBlock Stats: dbName = C
                                           ;***
                                           ;entry:  _delay	;Function start
                                           ; 2 exit points
                                           ;has an exit
                                           ;5 compiler assigned registers:
                                           ;   r0x1000
                                           ;   STK00
                                           ;   r0x1001
                                           ;   r0x1002
                                           ;   r0x1003
                                           ;; Starting pCode block
                                           _delay	;Function start
                                           ; 2 exit points
                                           ;	.line	249; "Init.c"	void delay(uint16_t num)
00032e   5643     movra   0x43             	MOVRA	r0x1000
00032f   5806     movar   0x6              	MOVAR	STK00
000330   5642     movra   0x42             	MOVRA	r0x1001
                                           ;	.line	252; "Init.c"	for (i = 0; i < num; i ++)
000331   7644     clrr    0x44             	CLRR	r0x1002
000332   7645     clrr    0x45             	CLRR	r0x1003
                                           _00150_DS_
000333   5843     movar   0x43             	MOVAR	r0x1000
000334   4845     rsubar  0x45             	RSUBAR	r0x1003
000335   e587     jbset   0x187, 0x2       	JBSET	PFLAG,2
000336   a339     goto    0x339            	GOTO	_00163_DS_
000337   5842     movar   0x42             	MOVAR	r0x1001
000338   4844     rsubar  0x44             	RSUBAR	r0x1002
                                           _00163_DS_
000339   f187     jbclr   0x187, 0         	JBCLR	PFLAG,0
00033a   a340     goto    0x340            	GOTO	_00152_DS_
                                           ;;genSkipc:3291: created from rifx:013B5EFC
                                           ;	.line	254; "Init.c"	Nop();
00033b   0000     nop                      	nop	
                                           ;	.line	252; "Init.c"	for (i = 0; i < num; i ++)
00033c   6644     incr    0x44             	INCR	r0x1002
00033d   f587     jbclr   0x187, 0x2       	JBCLR	PFLAG,2
00033e   6645     incr    0x45             	INCR	r0x1003
00033f   a333     goto    0x333            	GOTO	_00150_DS_
                                           _00152_DS_
                                           ;	.line	256; "Init.c"	}
000340   000c     return                   	RETURN	
                                           ; exit point of _delay
                                           
                                           ;***
                                           ;  pBlock Stats: dbName = C
                                           ;***
                                           ;entry:  _ADC_Init	;Function start
                                           ; 2 exit points
                                           ;has an exit
                                           ;functions called:
                                           ;   _Set_ADC_Channel
                                           ;   _Set_ADC_Channel
                                           ;; Starting pCode block
                                           _ADC_Init	;Function start
                                           ; 2 exit points
                                           ;	.line	206; "Init.c"	OEP0 &= DEF_CLR_BIT4;                        //P01 
000341   d991     bclr    0x191, 0x4       	BCLR	_OEP0,4
                                           ;	.line	208; "Init.c"	ADIOS0 = 0x08;                     //io  1:  0:io
000342   3c08     movai   0x8              	MOVAI	0x08
000343   57b6     movra   0x1b6            	MOVRA	_ADIOS0
                                           ;	.line	211; "Init.c"	ADIOS1 = 0x00;                     //io  1:  0:io
000344   77b7     clrr    0x1b7            	CLRR	_ADIOS1
                                           ;	.line	214; "Init.c"	PMOD = 0x07;                       //bit7-bit5 P17P13P01 io 1:  0:io 
000345   3c07     movai   0x7              	MOVAI	0x07
000346   57bc     movra   0x1bc            	MOVRA	_PMOD
                                           ;	.line	217; "Init.c"	ADCR0 = 0xfb;                                //ADC12H8L4
000347   3cfb     movai   0xfb             	MOVAI	0xfb
000348   57b0     movra   0x1b0            	MOVRA	_ADCR0
                                           ;	.line	218; "Init.c"	ADCR1 = 0x80;                                //322V 
000349   3c80     movai   0x80             	MOVAI	0x80
00034a   57b1     movra   0x1b1            	MOVRA	_ADCR1
                                           ;	.line	219; "Init.c"	ADCR2 = 0xff;                                //15ADCLK 
00034b   3cff     movai   0xff             	MOVAI	0xff
00034c   57b2     movra   0x1b2            	MOVRA	_ADCR2
                                           ;	.line	220; "Init.c"	Set_ADC_Channel(3);         // ADC   AD    CHX
00034d   3c03     movai   0x3              	MOVAI	0x03
00034e   8306     call    0x306            	CALL	_Set_ADC_Channel
                                           ;	.line	221; "Init.c"	}
00034f   000c     return                   	RETURN	
                                           ; exit point of _ADC_Init
                                           
                                           ;***
                                           ;  pBlock Stats: dbName = C
                                           ;***
                                           ;entry:  _TIMER2_PWM_Init	;Function start
                                           ; 2 exit points
                                           ;has an exit
                                           ;; Starting pCode block
                                           _TIMER2_PWM_Init	;Function start
                                           ; 2 exit points
                                           ;	.line	187; "Init.c"	T2CR = DEF_SET_BIT6 | PRS_1 | DEF_SET_BIT3;     //PWM,CPU,4
000350   3c48     movai   0x48             	MOVAI	0x48
000351   57a0     movra   0x1a0            	MOVRA	_T2CR
                                           ;	.line	188; "Init.c"	T2CNT = 159-1;
000352   3c9e     movai   0x9e             	MOVAI	0x9e
000353   57a1     movra   0x1a1            	MOVRA	_T2CNT
                                           ;	.line	189; "Init.c"	T2LOAD = 159-1;                                     
000354   3c9e     movai   0x9e             	MOVAI	0x9e
000355   57a2     movra   0x1a2            	MOVRA	_T2LOAD
                                           ;	.line	190; "Init.c"	T2DATA = 25;
000356   3c19     movai   0x19             	MOVAI	0x19
000357   57a3     movra   0x1a3            	MOVRA	_T2DATA
                                           ;	.line	191; "Init.c"	PWMCR1 = DEF_SET_BIT4; 
000358   3c10     movai   0x10             	MOVAI	0x10
000359   57ad     movra   0x1ad            	MOVRA	_PWMCR1
                                           ;	.line	192; "Init.c"	PWMCR2 = 0x03;                                         //4
00035a   3c03     movai   0x3              	MOVAI	0x03
00035b   57be     movra   0x1be            	MOVRA	_PWMCR2
                                           ;	.line	194; "Init.c"	T2EN = 1;
00035c   cfa0     bset    0x1a0, 0x7       	BSET	_T2CRbits,7
                                           ;	.line	195; "Init.c"	}
00035d   000c     return                   	RETURN	
                                           ; exit point of _TIMER2_PWM_Init
                                           
                                           ;***
                                           ;  pBlock Stats: dbName = C
                                           ;***
                                           ;entry:  _TIMER1_PWM_Init	;Function start
                                           ; 2 exit points
                                           ;has an exit
                                           ;; Starting pCode block
                                           _TIMER1_PWM_Init	;Function start
                                           ; 2 exit points
                                           ;	.line	163; "Init.c"	T1CR = DEF_SET_BIT6 | PRS_4;                    //PWM,CPU,4
00035e   3c42     movai   0x42             	MOVAI	0x42
00035f   579c     movra   0x19c            	MOVRA	_T1CR
                                           ;	.line	164; "Init.c"	T1CNT = 100-1;
000360   3c63     movai   0x63             	MOVAI	0x63
000361   579d     movra   0x19d            	MOVRA	_T1CNT
                                           ;	.line	165; "Init.c"	T1LOAD = 100-1;                                                  
000362   3c63     movai   0x63             	MOVAI	0x63
000363   579e     movra   0x19e            	MOVRA	_T1LOAD
                                           ;	.line	166; "Init.c"	T1DATA = 25;
000364   3c19     movai   0x19             	MOVAI	0x19
000365   579f     movra   0x19f            	MOVRA	_T1DATA
                                           ;	.line	169; "Init.c"	PWMCR1 = 0x00;                                                        //
000366   77ad     clrr    0x1ad            	CLRR	_PWMCR1
                                           ;	.line	170; "Init.c"	T1EN = 1;
000367   cf9c     bset    0x19c, 0x7       	BSET	_T1CRbits,7
                                           ;	.line	171; "Init.c"	}
000368   000c     return                   	RETURN	
                                           ; exit point of _TIMER1_PWM_Init
                                           
                                           ;***
                                           ;  pBlock Stats: dbName = C
                                           ;***
                                           ;entry:  _TIMER0_PWM_Init	;Function start
                                           ; 2 exit points
                                           ;has an exit
                                           ;; Starting pCode block
                                           _TIMER0_PWM_Init	;Function start
                                           ; 2 exit points
                                           ;	.line	140; "Init.c"	T0CR = DEF_SET_BIT6 | PRS_4;     //PWM,CPU,4
000369   3c42     movai   0x42             	MOVAI	0x42
00036a   5798     movra   0x198            	MOVRA	_T0CR
                                           ;	.line	141; "Init.c"	T0CNT = 100-1;
00036b   3c63     movai   0x63             	MOVAI	0x63
00036c   5799     movra   0x199            	MOVRA	_T0CNT
                                           ;	.line	142; "Init.c"	T0LOAD = 100-1;                                        
00036d   3c63     movai   0x63             	MOVAI	0x63
00036e   579a     movra   0x19a            	MOVRA	_T0LOAD
                                           ;	.line	143; "Init.c"	T0DATA = 25;
00036f   3c19     movai   0x19             	MOVAI	0x19
000370   579b     movra   0x19b            	MOVRA	_T0DATA
                                           ;	.line	144; "Init.c"	PWMCR0 = 0x00;                                         //
000371   77ac     clrr    0x1ac            	CLRR	_PWMCR0
                                           ;	.line	145; "Init.c"	PWMCR1 = 0x00;                                         //
000372   77ad     clrr    0x1ad            	CLRR	_PWMCR1
                                           ;	.line	147; "Init.c"	PWMCR3 = DEF_CLR_BIT2;                                 //P16
000373   3cfb     movai   0xfb             	MOVAI	0xfb
000374   57bd     movra   0x1bd            	MOVRA	_PWMCR3
                                           ;	.line	148; "Init.c"	T0EN = 1;
000375   cf98     bset    0x198, 0x7       	BSET	_T0CRbits,7
                                           ;	.line	149; "Init.c"	}
000376   000c     return                   	RETURN	
                                           ; exit point of _TIMER0_PWM_Init
                                           
                                           ;***
                                           ;  pBlock Stats: dbName = C
                                           ;***
                                           ;entry:  _TIMER3_INT_Init	;Function start
                                           ; 2 exit points
                                           ;has an exit
                                           ;; Starting pCode block
                                           _TIMER3_INT_Init	;Function start
                                           ; 2 exit points
                                           ;	.line	122; "Init.c"	T3CR = PRS_128;               //CPU,128
000377   3c07     movai   0x7              	MOVAI	0x07
000378   57a4     movra   0x1a4            	MOVRA	_T3CR
                                           ;	.line	123; "Init.c"	T3CNT = 250 - 1;
000379   3cf9     movai   0xf9             	MOVAI	0xf9
00037a   57a5     movra   0x1a5            	MOVRA	_T3CNT
                                           ;	.line	124; "Init.c"	T3LOAD = 250 - 1;                  
00037b   3cf9     movai   0xf9             	MOVAI	0xf9
00037c   57a6     movra   0x1a6            	MOVRA	_T3LOAD
                                           ;	.line	125; "Init.c"	T3EN = 1; 
00037d   cfa4     bset    0x1a4, 0x7       	BSET	_T3CRbits,7
                                           ;	.line	126; "Init.c"	T3IE = 1;
00037e   cf8a     bset    0x18a, 0x7       	BSET	_INTEbits,7
                                           ;	.line	127; "Init.c"	}
00037f   000c     return                   	RETURN	
                                           ; exit point of _TIMER3_INT_Init
                                           
                                           ;***
                                           ;  pBlock Stats: dbName = C
                                           ;***
                                           ;entry:  _TIMER2_INT_Init	;Function start
                                           ; 2 exit points
                                           ;has an exit
                                           ;; Starting pCode block
                                           _TIMER2_INT_Init	;Function start
                                           ; 2 exit points
                                           ;	.line	106; "Init.c"	T2CR = PRS_8;   //CPU,8
000380   3c03     movai   0x3              	MOVAI	0x03
000381   57a0     movra   0x1a0            	MOVRA	_T2CR
                                           ;	.line	107; "Init.c"	T2CNT = 100 - 1;
000382   3c63     movai   0x63             	MOVAI	0x63
000383   57a1     movra   0x1a1            	MOVRA	_T2CNT
                                           ;	.line	108; "Init.c"	T2LOAD = 100 - 1;                 
000384   3c63     movai   0x63             	MOVAI	0x63
000385   57a2     movra   0x1a2            	MOVRA	_T2LOAD
                                           ;	.line	109; "Init.c"	T2EN = 1;
000386   cfa0     bset    0x1a0, 0x7       	BSET	_T2CRbits,7
                                           ;	.line	110; "Init.c"	T2IE = 1;
000387   cb8a     bset    0x18a, 0x5       	BSET	_INTEbits,5
                                           ;	.line	111; "Init.c"	}
000388   000c     return                   	RETURN	
                                           ; exit point of _TIMER2_INT_Init
                                           
                                           ;***
                                           ;  pBlock Stats: dbName = C
                                           ;***
                                           ;entry:  _TIMER1_INT_Init	;Function start
                                           ; 2 exit points
                                           ;has an exit
                                           ;; Starting pCode block
                                           _TIMER1_INT_Init	;Function start
                                           ; 2 exit points
                                           ;	.line	90; "Init.c"	T1CR = PRS_32; //,CPU,32
000389   3c05     movai   0x5              	MOVAI	0x05
00038a   579c     movra   0x19c            	MOVRA	_T1CR
                                           ;	.line	91; "Init.c"	T1CNT = 250 -1;                 
00038b   3cf9     movai   0xf9             	MOVAI	0xf9
00038c   579d     movra   0x19d            	MOVRA	_T1CNT
                                           ;	.line	92; "Init.c"	T1LOAD = 250 -1;
00038d   3cf9     movai   0xf9             	MOVAI	0xf9
00038e   579e     movra   0x19e            	MOVRA	_T1LOAD
                                           ;	.line	93; "Init.c"	T1EN = 1;
00038f   cf9c     bset    0x19c, 0x7       	BSET	_T1CRbits,7
                                           ;	.line	94; "Init.c"	T1IE = 1;
000390   c38a     bset    0x18a, 0x1       	BSET	_INTEbits,1
                                           ;	.line	95; "Init.c"	}
000391   000c     return                   	RETURN	
                                           ; exit point of _TIMER1_INT_Init
                                           
                                           ;***
                                           ;  pBlock Stats: dbName = C
                                           ;***
                                           ;entry:  _TIMER0_INT_Init	;Function start
                                           ; 2 exit points
                                           ;has an exit
                                           ;; Starting pCode block
                                           _TIMER0_INT_Init	;Function start
                                           ; 2 exit points
                                           ;	.line	74; "Init.c"	T0CR = PRS_4; //CPU,4
000392   3c02     movai   0x2              	MOVAI	0x02
000393   5798     movra   0x198            	MOVRA	_T0CR
                                           ;	.line	75; "Init.c"	T0CNT = 104-1;
000394   3c67     movai   0x67             	MOVAI	0x67
000395   5799     movra   0x199            	MOVRA	_T0CNT
                                           ;	.line	76; "Init.c"	T0LOAD = 104 -1;                 
000396   3c67     movai   0x67             	MOVAI	0x67
000397   579a     movra   0x19a            	MOVRA	_T0LOAD
                                           ;	.line	77; "Init.c"	T0EN = 1;
000398   cf98     bset    0x198, 0x7       	BSET	_T0CRbits,7
                                           ;	.line	78; "Init.c"	T0IE = 1;
000399   c18a     bset    0x18a, 0         	BSET	_INTEbits,0
                                           ;	.line	79; "Init.c"	}
00039a   000c     return                   	RETURN	
                                           ; exit point of _TIMER0_INT_Init
                                           
                                           ;***
                                           ;  pBlock Stats: dbName = C
                                           ;***
                                           ;entry:  _IO_Init	;Function start
                                           ; 2 exit points
                                           ;has an exit
                                           ;; Starting pCode block
                                           _IO_Init	;Function start
                                           ; 2 exit points
                                           ;	.line	48; "Init.c"	IOP0 = 0x00;                       //io
00039b   7790     clrr    0x190            	CLRR	_IOP0
                                           ;	.line	49; "Init.c"	OEP0 = 0xff;                       //io 1:out  0:in
00039c   3cff     movai   0xff             	MOVAI	0xff
00039d   5791     movra   0x191            	MOVRA	_OEP0
                                           ;	.line	50; "Init.c"	PUP0 = 0x00;                       //io   1:enable  0:disable
00039e   7792     clrr    0x192            	CLRR	_PUP0
                                           ;	.line	51; "Init.c"	PDP0 = 0x00;                       //io   1:enable  0:disable
00039f   7793     clrr    0x193            	CLRR	_PDP0
                                           ;	.line	53; "Init.c"	IOP1 = 0x00;                       //io
0003a0   7794     clrr    0x194            	CLRR	_IOP1
                                           ;	.line	54; "Init.c"	OEP1 = 0xF7;                       //io 1:out  0:in
0003a1   3cf7     movai   0xf7             	MOVAI	0xf7
0003a2   5795     movra   0x195            	MOVRA	_OEP1
                                           ;	.line	55; "Init.c"	PUP1 = 0x00;                       //io   1:enable  0:disable
0003a3   7796     clrr    0x196            	CLRR	_PUP1
                                           ;	.line	56; "Init.c"	PDP1 = 0x00;                       //io   1:enable  0:disable
0003a4   7797     clrr    0x197            	CLRR	_PDP1
                                           ;	.line	58; "Init.c"	PMOD = 0x07;                       //bit2-bit0 P13P01P00 io  1: 0:
0003a5   3c07     movai   0x7              	MOVAI	0x07
0003a6   57bc     movra   0x1bc            	MOVRA	_PMOD
                                           ;	.line	60; "Init.c"	DRVCR = 0x00;                      //
0003a7   778c     clrr    0x18c            	CLRR	_DRVCR
                                           ;	.line	62; "Init.c"	P1KBCR = 0x08;                      //P1IO  P17~P10
0003a8   3c08     movai   0x8              	MOVAI	0x08
0003a9   578e     movra   0x18e            	MOVRA	_P1KBCR
                                           ;	.line	63; "Init.c"	}
0003aa   000c     return                   	RETURN	
                                           ; exit point of _IO_Init
                                           
                                           ;***
                                           ;  pBlock Stats: dbName = C
                                           ;***
                                           ;entry:  _CLR_RAM	;Function start
                                           ; 2 exit points
                                           ;has an exit
                                           ;; Starting pCode block
                                           _CLR_RAM	;Function start
                                           ; 2 exit points
                                           ;	.line	33; "Init.c"	for (FSR0 = 0; FSR0 < 0xff; FSR0++)
0003ab   7784     clrr    0x184            	CLRR	_FSR0
                                           ;;unsigned compare: left < lit(0xFF=255), size=1
                                           _00107_DS_
0003ac   3cff     movai   0xff             	MOVAI	0xff
0003ad   4984     rsubar  0x184            	RSUBAR	_FSR0
0003ae   f187     jbclr   0x187, 0         	JBCLR	PFLAG,0
0003af   a3b3     goto    0x3b3            	GOTO	_00105_DS_
                                           ;;genSkipc:3291: created from rifx:013B5EFC
                                           ;	.line	35; "Init.c"	INDF0 = 0x00;
0003b0   7780     clrr    0x180            	CLRR	_INDF0
                                           ;	.line	33; "Init.c"	for (FSR0 = 0; FSR0 < 0xff; FSR0++)
0003b1   6784     incr    0x184            	INCR	_FSR0
0003b2   a3ac     goto    0x3ac            	GOTO	_00107_DS_
                                           _00105_DS_
                                           ;	.line	37; "Init.c"	FSR0 = 0xFF;
0003b3   3cff     movai   0xff             	MOVAI	0xff
0003b4   5784     movra   0x184            	MOVRA	_FSR0
                                           ;	.line	38; "Init.c"	INDF0 = 0x00;
0003b5   7780     clrr    0x180            	CLRR	_INDF0
                                           ;	.line	39; "Init.c"	}
0003b6   000c     return                   	RETURN	
                                           ; exit point of _CLR_RAM
                                           
                                           
                                           ;	code size estimation:
                                           ;	  136+    0 =   136 instructions (  272 byte)
                                           
                                           	end
                                           ;--------------------------------------------------------
                                           ; File Created by SN-SDCC : SinoMCU ANSI-C Compiler
                                           ; Version 2.0.0 (Dec 11 2019) (MINGW32)
                                           ; This file was generated Wed Nov 20 17:41:43 2024
                                           ;--------------------------------------------------------
                                           ; MC32 port for the RISC core
                                           ;--------------------------------------------------------
                                           ;	.file	"ADC.c"
                                           	list	p=7351
                                           	radix dec
                                           	include "7351.inc"
                                           		LIST
                                           ;mc32p7351.inc    Standard Header File, Version 1.00 by Sinomcu
                                           		NOLIST
                                           ;--------------------------------------------------------
                                           ; external declarations
                                           ;--------------------------------------------------------
                                           	extern	_Sys_Init
                                           	extern	_CLR_RAM
                                           	extern	_IO_Init
                                           	extern	_TIMER0_INT_Init
                                           	extern	_TIMER1_INT_Init
                                           	extern	_TIMER2_INT_Init
                                           	extern	_TIMER3_INT_Init
                                           	extern	_TIMER0_PWM_Init
                                           	extern	_TIMER1_PWM_Init
                                           	extern	_TIMER2_PWM_Init
                                           	extern	_ADC_Init
                                           	extern	_Scan_Key
                                           	extern	_Sleep_Func
                                           	extern	_delay
                                           	extern	_INDF0bits
                                           	extern	_INDF1bits
                                           	extern	_INDF2bits
                                           	extern	_HIBYTEbits
                                           	extern	_FSR0bits
                                           	extern	_FSR1bits
                                           	extern	_PCLbits
                                           	extern	_PFLAGbits
                                           	extern	_MCRbits
                                           	extern	_INDF3bits
                                           	extern	_INTEbits
                                           	extern	_INTFbits
                                           	extern	_DRVCRbits
                                           	extern	_PFRCCRbits
                                           	extern	_P1KBCRbits
                                           	extern	_PFRCCALbits
                                           	extern	_IOP0bits
                                           	extern	_OEP0bits
                                           	extern	_PUP0bits
                                           	extern	_PDP0bits
                                           	extern	_IOP1bits
                                           	extern	_OEP1bits
                                           	extern	_PUP1bits
                                           	extern	_PDP1bits
                                           	extern	_T0CRbits
                                           	extern	_T0CNTbits
                                           	extern	_T0LOADbits
                                           	extern	_T0DATAbits
                                           	extern	_T1CRbits
                                           	extern	_T1CNTbits
                                           	extern	_T1LOADbits
                                           	extern	_T1DATAbits
                                           	extern	_T2CRbits
                                           	extern	_T2CNTbits
                                           	extern	_T2LOADbits
                                           	extern	_T2DATAbits
                                           	extern	_T3CRbits
                                           	extern	_T3CNTbits
                                           	extern	_T3LOADbits
                                           	extern	_PWM0DRbits
                                           	extern	_PWM1DRbits
                                           	extern	_PWM2DRbits
                                           	extern	_PWMCR0bits
                                           	extern	_PWMCR1bits
                                           	extern	_OSCMRbits
                                           	extern	_LVDCRbits
                                           	extern	_ADCR0bits
                                           	extern	_ADCR1bits
                                           	extern	_ADCR2bits
                                           	extern	_OSADJCRbits
                                           	extern	_ADRHbits
                                           	extern	_ADRLbits
                                           	extern	_ADIOS0bits
                                           	extern	_ADIOS1bits
                                           	extern	_PMODbits
                                           	extern	_PWMCR3bits
                                           	extern	_PWMCR2bits
                                           	extern	_PFRCAUXbits
                                           	extern	_HIRCCALbits
                                           	extern	_Flag1
                                           	extern	_flag2
                                           	extern	_INDF0
                                           	extern	_INDF1
                                           	extern	_INDF2
                                           	extern	_HIBYTE
                                           	extern	_FSR0
                                           	extern	_FSR1
                                           	extern	_PCL
                                           	extern	_PFLAG
                                           	extern	_MCR
                                           	extern	_INDF3
                                           	extern	_INTE
                                           	extern	_INTF
                                           	extern	_DRVCR
                                           	extern	_PFRCCR
                                           	extern	_P1KBCR
                                           	extern	_PFRCCAL
                                           	extern	_IOP0
                                           	extern	_OEP0
                                           	extern	_PUP0
                                           	extern	_PDP0
                                           	extern	_IOP1
                                           	extern	_OEP1
                                           	extern	_PUP1
                                           	extern	_PDP1
                                           	extern	_T0CR
                                           	extern	_T0CNT
                                           	extern	_T0LOAD
                                           	extern	_T0DATA
                                           	extern	_T1CR
                                           	extern	_T1CNT
                                           	extern	_T1LOAD
                                           	extern	_T1DATA
                                           	extern	_T2CR
                                           	extern	_T2CNT
                                           	extern	_T2LOAD
                                           	extern	_T2DATA
                                           	extern	_T3CR
                                           	extern	_T3CNT
                                           	extern	_T3LOAD
                                           	extern	_PWM0DR
                                           	extern	_PWM1DR
                                           	extern	_PWM2DR
                                           	extern	_PWMCR0
                                           	extern	_PWMCR1
                                           	extern	_OSCMR
                                           	extern	_LVDCR
                                           	extern	_ADCR0
                                           	extern	_ADCR1
                                           	extern	_ADCR2
                                           	extern	_OSADJCR
                                           	extern	_ADRH
                                           	extern	_ADRL
                                           	extern	_ADIOS0
                                           	extern	_ADIOS1
                                           	extern	_PMOD
                                           	extern	_PWMCR3
                                           	extern	_PWMCR2
                                           	extern	_PFRCAUX
                                           	extern	_HIRCCAL
                                           
                                           	extern STK06
                                           	extern STK05
                                           	extern STK04
                                           	extern STK03
                                           	extern STK02
                                           	extern STK01
                                           	extern STK00
                                           ;--------------------------------------------------------
                                           ; global declarations
                                           ;--------------------------------------------------------
                                           	global	_ADC_Get_Value_Average
                                           	global	_Set_ADC_Channel
                                           	global	_Scan_ADC
                                           	global	_ADC_Zero_ADJ
                                           	global	_adc_star
                                           	global	_g_temp_value
                                           	global	_g_channel
                                           	global	_g_adcsum
                                           	global	_g_adcmax
                                           	global	_g_adcmin
                                           	global	_adc_data
                                           
                                           ;--------------------------------------------------------
                                           ; global definitions
                                           ;--------------------------------------------------------
                                           UD_ADC_0	udata
                                           _adc_star	res	1
                                           
                                           UD_ADC_1	udata
                                           _g_temp_value	res	2
                                           
                                           UD_ADC_2	udata
                                           _g_channel	res	1
                                           
                                           UD_ADC_3	udata
                                           _g_adcsum	res	4
                                           
                                           UD_ADC_4	udata
                                           _g_adcmax	res	2
                                           
                                           UD_ADC_5	udata
                                           _g_adcmin	res	2
                                           
                                           UD_ADC_6	udata
                                           _adc_data	res	2
                                           
                                           ;--------------------------------------------------------
                                           ; absolute symbol definitions
                                           ;--------------------------------------------------------
                                           ;--------------------------------------------------------
                                           ; compiler-defined variables
                                           ;--------------------------------------------------------
                                           UDL_ADC_0	udata
                                           r0x1016	res	1
                                           r0x1017	res	1
                                           r0x1018	res	1
                                           r0x1011	res	1
                                           r0x1010	res	1
                                           r0x1012	res	1
                                           r0x1013	res	1
                                           r0x100E	res	1
                                           r0x100F	res	1
                                           ;--------------------------------------------------------
                                           ; initialized data
                                           ;--------------------------------------------------------
                                           
                                           ;@Allocation info for local variables in function 'Scan_ADC'
                                           ;@Scan_ADC Sys_Init                  Allocated to registers ;size:2
                                           ;@Scan_ADC CLR_RAM                   Allocated to registers ;size:2
                                           ;@Scan_ADC IO_Init                   Allocated to registers ;size:2
                                           ;@Scan_ADC TIMER0_INT_Init           Allocated to registers ;size:2
                                           ;@Scan_ADC TIMER1_INT_Init           Allocated to registers ;size:2
                                           ;@Scan_ADC TIMER2_INT_Init           Allocated to registers ;size:2
                                           ;@Scan_ADC TIMER3_INT_Init           Allocated to registers ;size:2
                                           ;@Scan_ADC TIMER0_PWM_Init           Allocated to registers ;size:2
                                           ;@Scan_ADC TIMER1_PWM_Init           Allocated to registers ;size:2
                                           ;@Scan_ADC TIMER2_PWM_Init           Allocated to registers ;size:2
                                           ;@Scan_ADC ADC_Init                  Allocated to registers ;size:2
                                           ;@Scan_ADC Set_ADC_Channel           Allocated to registers ;size:2
                                           ;@Scan_ADC ADC_Get_Value_Average     Allocated to registers ;size:2
                                           ;@Scan_ADC Scan_Key                  Allocated to registers ;size:2
                                           ;@Scan_ADC Sleep_Func                Allocated to registers ;size:2
                                           ;@Scan_ADC delay                     Allocated to registers ;size:2
                                           ;@Scan_ADC INDF0bits                 Allocated to registers ;size:1
                                           ;@Scan_ADC INDF1bits                 Allocated to registers ;size:1
                                           ;@Scan_ADC INDF2bits                 Allocated to registers ;size:1
                                           ;@Scan_ADC HIBYTEbits                Allocated to registers ;size:1
                                           ;@Scan_ADC FSR0bits                  Allocated to registers ;size:1
                                           ;@Scan_ADC FSR1bits                  Allocated to registers ;size:1
                                           ;@Scan_ADC PCLbits                   Allocated to registers ;size:1
                                           ;@Scan_ADC PFLAGbits                 Allocated to registers ;size:1
                                           ;@Scan_ADC MCRbits                   Allocated to registers ;size:1
                                           ;@Scan_ADC INDF3bits                 Allocated to registers ;size:1
                                           ;@Scan_ADC INTEbits                  Allocated to registers ;size:1
                                           ;@Scan_ADC INTFbits                  Allocated to registers ;size:1
                                           ;@Scan_ADC DRVCRbits                 Allocated to registers ;size:1
                                           ;@Scan_ADC PFRCCRbits                Allocated to registers ;size:1
                                           ;@Scan_ADC P1KBCRbits                Allocated to registers ;size:1
                                           ;@Scan_ADC PFRCCALbits               Allocated to registers ;size:1
                                           ;@Scan_ADC IOP0bits                  Allocated to registers ;size:1
                                           ;@Scan_ADC OEP0bits                  Allocated to registers ;size:1
                                           ;@Scan_ADC PUP0bits                  Allocated to registers ;size:1
                                           ;@Scan_ADC PDP0bits                  Allocated to registers ;size:1
                                           ;@Scan_ADC IOP1bits                  Allocated to registers ;size:1
                                           ;@Scan_ADC OEP1bits                  Allocated to registers ;size:1
                                           ;@Scan_ADC PUP1bits                  Allocated to registers ;size:1
                                           ;@Scan_ADC PDP1bits                  Allocated to registers ;size:1
                                           ;@Scan_ADC T0CRbits                  Allocated to registers ;size:1
                                           ;@Scan_ADC T0CNTbits                 Allocated to registers ;size:1
                                           ;@Scan_ADC T0LOADbits                Allocated to registers ;size:1
                                           ;@Scan_ADC T0DATAbits                Allocated to registers ;size:1
                                           ;@Scan_ADC T1CRbits                  Allocated to registers ;size:1
                                           ;@Scan_ADC T1CNTbits                 Allocated to registers ;size:1
                                           ;@Scan_ADC T1LOADbits                Allocated to registers ;size:1
                                           ;@Scan_ADC T1DATAbits                Allocated to registers ;size:1
                                           ;@Scan_ADC T2CRbits                  Allocated to registers ;size:1
                                           ;@Scan_ADC T2CNTbits                 Allocated to registers ;size:1
                                           ;@Scan_ADC T2LOADbits                Allocated to registers ;size:1
                                           ;@Scan_ADC T2DATAbits                Allocated to registers ;size:1
                                           ;@Scan_ADC T3CRbits                  Allocated to registers ;size:1
                                           ;@Scan_ADC T3CNTbits                 Allocated to registers ;size:1
                                           ;@Scan_ADC T3LOADbits                Allocated to registers ;size:1
                                           ;@Scan_ADC PWM0DRbits                Allocated to registers ;size:1
                                           ;@Scan_ADC PWM1DRbits                Allocated to registers ;size:1
                                           ;@Scan_ADC PWM2DRbits                Allocated to registers ;size:1
                                           ;@Scan_ADC PWMCR0bits                Allocated to registers ;size:1
                                           ;@Scan_ADC PWMCR1bits                Allocated to registers ;size:1
                                           ;@Scan_ADC OSCMRbits                 Allocated to registers ;size:1
                                           ;@Scan_ADC LVDCRbits                 Allocated to registers ;size:1
                                           ;@Scan_ADC ADCR0bits                 Allocated to registers ;size:1
                                           ;@Scan_ADC ADCR1bits                 Allocated to registers ;size:1
                                           ;@Scan_ADC ADCR2bits                 Allocated to registers ;size:1
                                           ;@Scan_ADC OSADJCRbits               Allocated to registers ;size:1
                                           ;@Scan_ADC ADRHbits                  Allocated to registers ;size:1
                                           ;@Scan_ADC ADRLbits                  Allocated to registers ;size:1
                                           ;@Scan_ADC ADIOS0bits                Allocated to registers ;size:1
                                           ;@Scan_ADC ADIOS1bits                Allocated to registers ;size:1
                                           ;@Scan_ADC PMODbits                  Allocated to registers ;size:1
                                           ;@Scan_ADC PWMCR3bits                Allocated to registers ;size:1
                                           ;@Scan_ADC PWMCR2bits                Allocated to registers ;size:1
                                           ;@Scan_ADC PFRCAUXbits               Allocated to registers ;size:1
                                           ;@Scan_ADC HIRCCALbits               Allocated to registers ;size:1
                                           ;@Scan_ADC Flag1                     Allocated to registers ;size:1
                                           ;@Scan_ADC flag2                     Allocated to registers ;size:1
                                           ;@Scan_ADC adc_star                  Allocated to registers ;size:1
                                           ;@Scan_ADC g_temp_value              Allocated to registers ;size:2
                                           ;@Scan_ADC g_channel                 Allocated to registers ;size:1
                                           ;@Scan_ADC g_adcsum                  Allocated to registers ;size:4
                                           ;@Scan_ADC g_adcmax                  Allocated to registers ;size:2
                                           ;@Scan_ADC g_adcmin                  Allocated to registers ;size:2
                                           ;@Scan_ADC adc_data                  Allocated to registers ;size:2
                                           ;@Scan_ADC INDF0                     Allocated to registers ;size:1
                                           ;@Scan_ADC INDF1                     Allocated to registers ;size:1
                                           ;@Scan_ADC INDF2                     Allocated to registers ;size:1
                                           ;@Scan_ADC HIBYTE                    Allocated to registers ;size:1
                                           ;@Scan_ADC FSR0                      Allocated to registers ;size:1
                                           ;@Scan_ADC FSR1                      Allocated to registers ;size:1
                                           ;@Scan_ADC PCL                       Allocated to registers ;size:1
                                           ;@Scan_ADC PFLAG                     Allocated to registers ;size:1
                                           ;@Scan_ADC MCR                       Allocated to registers ;size:1
                                           ;@Scan_ADC INDF3                     Allocated to registers ;size:1
                                           ;@Scan_ADC INTE                      Allocated to registers ;size:1
                                           ;@Scan_ADC INTF                      Allocated to registers ;size:1
                                           ;@Scan_ADC DRVCR                     Allocated to registers ;size:1
                                           ;@Scan_ADC PFRCCR                    Allocated to registers ;size:1
                                           ;@Scan_ADC P1KBCR                    Allocated to registers ;size:1
                                           ;@Scan_ADC PFRCCAL                   Allocated to registers ;size:1
                                           ;@Scan_ADC IOP0                      Allocated to registers ;size:1
                                           ;@Scan_ADC OEP0                      Allocated to registers ;size:1
                                           ;@Scan_ADC PUP0                      Allocated to registers ;size:1
                                           ;@Scan_ADC PDP0                      Allocated to registers ;size:1
                                           ;@Scan_ADC IOP1                      Allocated to registers ;size:1
                                           ;@Scan_ADC OEP1                      Allocated to registers ;size:1
                                           ;@Scan_ADC PUP1                      Allocated to registers ;size:1
                                           ;@Scan_ADC PDP1                      Allocated to registers ;size:1
                                           ;@Scan_ADC T0CR                      Allocated to registers ;size:1
                                           ;@Scan_ADC T0CNT                     Allocated to registers ;size:1
                                           ;@Scan_ADC T0LOAD                    Allocated to registers ;size:1
                                           ;@Scan_ADC T0DATA                    Allocated to registers ;size:1
                                           ;@Scan_ADC T1CR                      Allocated to registers ;size:1
                                           ;@Scan_ADC T1CNT                     Allocated to registers ;size:1
                                           ;@Scan_ADC T1LOAD                    Allocated to registers ;size:1
                                           ;@Scan_ADC T1DATA                    Allocated to registers ;size:1
                                           ;@Scan_ADC T2CR                      Allocated to registers ;size:1
                                           ;@Scan_ADC T2CNT                     Allocated to registers ;size:1
                                           ;@Scan_ADC T2LOAD                    Allocated to registers ;size:1
                                           ;@Scan_ADC T2DATA                    Allocated to registers ;size:1
                                           ;@Scan_ADC T3CR                      Allocated to registers ;size:1
                                           ;@Scan_ADC T3CNT                     Allocated to registers ;size:1
                                           ;@Scan_ADC T3LOAD                    Allocated to registers ;size:1
                                           ;@Scan_ADC PWM0DR                    Allocated to registers ;size:1
                                           ;@Scan_ADC PWM1DR                    Allocated to registers ;size:1
                                           ;@Scan_ADC PWM2DR                    Allocated to registers ;size:1
                                           ;@Scan_ADC PWMCR0                    Allocated to registers ;size:1
                                           ;@Scan_ADC PWMCR1                    Allocated to registers ;size:1
                                           ;@Scan_ADC OSCMR                     Allocated to registers ;size:1
                                           ;@Scan_ADC LVDCR                     Allocated to registers ;size:1
                                           ;@Scan_ADC ADCR0                     Allocated to registers ;size:1
                                           ;@Scan_ADC ADCR1                     Allocated to registers ;size:1
                                           ;@Scan_ADC ADCR2                     Allocated to registers ;size:1
                                           ;@Scan_ADC OSADJCR                   Allocated to registers ;size:1
                                           ;@Scan_ADC ADRH                      Allocated to registers ;size:1
                                           ;@Scan_ADC ADRL                      Allocated to registers ;size:1
                                           ;@Scan_ADC ADIOS0                    Allocated to registers ;size:1
                                           ;@Scan_ADC ADIOS1                    Allocated to registers ;size:1
                                           ;@Scan_ADC PMOD                      Allocated to registers ;size:1
                                           ;@Scan_ADC PWMCR3                    Allocated to registers ;size:1
                                           ;@Scan_ADC PWMCR2                    Allocated to registers ;size:1
                                           ;@Scan_ADC PFRCAUX                   Allocated to registers ;size:1
                                           ;@Scan_ADC HIRCCAL                   Allocated to registers ;size:1
                                           ;@end Allocation info for local variables in function 'Scan_ADC';
                                           ;@Allocation info for local variables in function 'Set_ADC_Channel'
                                           ;@Set_ADC_Channel CHX                       Allocated to registers r0x1016 ;size:1
                                           ;@end Allocation info for local variables in function 'Set_ADC_Channel';
                                           ;@Allocation info for local variables in function 'ADC_Get_Value_Average'
                                           ;@end Allocation info for local variables in function 'ADC_Get_Value_Average';
                                           ;@Allocation info for local variables in function 'ADC_Zero_ADJ'
                                           ;@end Allocation info for local variables in function 'ADC_Zero_ADJ';
                                           
                                           ;--------------------------------------------------------
                                           ; overlayable items in internal ram 
                                           ;--------------------------------------------------------
                                           ;	udata_ovr
                                           ;--------------------------------------------------------
                                           ; code
                                           ;--------------------------------------------------------
                                           code_ADC	code
                                           ;***
                                           ;  pBlock Stats: dbName = C
                                           ;***
                                           ;entry:  _ADC_Zero_ADJ	;Function start
                                           ; 2 exit points
                                           ;has an exit
                                           ;2 compiler assigned registers:
                                           ;   r0x100E
                                           ;   r0x100F
                                           ;; Starting pCode block
                                           _ADC_Zero_ADJ	;Function start
                                           ; 2 exit points
                                           ;	.line	98; "ADC.c"	ADCR0 = 0xeb;                                //ADC?2H8L4GND
000207   3ceb     movai   0xeb             	MOVAI	0xeb
000208   57b0     movra   0x1b0            	MOVRA	_ADCR0
                                           ;	.line	99; "ADC.c"	ADCR1 = 0x80;                                //32?V
000209   3c80     movai   0x80             	MOVAI	0x80
00020a   57b1     movra   0x1b1            	MOVRA	_ADCR1
                                           ;	.line	100; "ADC.c"	ADCR2 = 0xff;                                //?5ADCLK
00020b   3cff     movai   0xff             	MOVAI	0xff
00020c   57b2     movra   0x1b2            	MOVRA	_ADCR2
                                           ;	.line	101; "ADC.c"	OSADJCR |= DEF_SET_BIT7;                     //?
00020d   cfb3     bset    0x1b3, 0x7       	BSET	_OSADJCR,7
                                           ;	.line	102; "ADC.c"	ADEOC = 0;
00020e   d3b0     bclr    0x1b0, 0x1       	BCLR	_ADCR0bits,1
                                           _00177_DS_
                                           ;	.line	103; "ADC.c"	while (!ADEOC);
00020f   e3b0     jbset   0x1b0, 0x1       	JBSET	_ADCR0bits,1
000210   a20f     goto    0x20f            	GOTO	_00177_DS_
                                           ;	.line	104; "ADC.c"	if ((ADRH == 0) && ((ADRL & 0x0F) == 0))     //?
000211   3c00     movai   0                	MOVAI	0x00
000212   5db4     orar    0x1b4            	ORAR	_ADRH
000213   e587     jbset   0x187, 0x2       	JBSET	PFLAG,2
000214   a249     goto    0x249            	GOTO	_00209_DS_
000215   59b5     movar   0x1b5            	MOVAR	_ADRL
000216   5632     movra   0x32             	MOVRA	r0x100E
000217   5832     movar   0x32             	MOVAR	r0x100E
000218   3e0f     andai   0xf              	ANDAI	0x0f
000219   e587     jbset   0x187, 0x2       	JBSET	PFLAG,2
00021a   a249     goto    0x249            	GOTO	_00209_DS_
                                           ;	.line	106; "ADC.c"	OSADJTD = 1;                             //
00021b   cdb3     bset    0x1b3, 0x6       	BSET	_OSADJCRbits,6
                                           ;	.line	107; "ADC.c"	OSADJCR |= 0x3F;
00021c   3c3f     movai   0x3f             	MOVAI	0x3f
00021d   5fb3     orra    0x1b3            	ORRA	_OSADJCR
                                           ;	.line	108; "ADC.c"	ADEOC = 0;
00021e   d3b0     bclr    0x1b0, 0x1       	BCLR	_ADCR0bits,1
                                           _00180_DS_
                                           ;	.line	109; "ADC.c"	while (!ADEOC);
00021f   e3b0     jbset   0x1b0, 0x1       	JBSET	_ADCR0bits,1
000220   a21f     goto    0x21f            	GOTO	_00180_DS_
                                           ;	.line	110; "ADC.c"	if ((ADRH == 0) && ((ADRL & 0x0F) == 0)) //?
000221   3c00     movai   0                	MOVAI	0x00
000222   5db4     orar    0x1b4            	ORAR	_ADRH
000223   e587     jbset   0x187, 0x2       	JBSET	PFLAG,2
000224   a22e     goto    0x22e            	GOTO	_00193_DS_
000225   59b5     movar   0x1b5            	MOVAR	_ADRL
000226   5632     movra   0x32             	MOVRA	r0x100E
000227   5832     movar   0x32             	MOVAR	r0x100E
000228   3e0f     andai   0xf              	ANDAI	0x0f
000229   e587     jbset   0x187, 0x2       	JBSET	PFLAG,2
00022a   a22e     goto    0x22e            	GOTO	_00193_DS_
                                           ;	.line	112; "ADC.c"	ADEN = 0;
00022b   d1b0     bclr    0x1b0, 0         	BCLR	_ADCR0bits,0
                                           ;	.line	113; "ADC.c"	return PASS;
00022c   3c00     movai   0                	MOVAI	0x00
00022d   a26a     goto    0x26a            	GOTO	_00215_DS_
                                           _00193_DS_
                                           ;	.line	119; "ADC.c"	if (OSADJCR & 0x3f)
00022e   59b3     movar   0x1b3            	MOVAR	_OSADJCR
00022f   5632     movra   0x32             	MOVRA	r0x100E
000230   5832     movar   0x32             	MOVAR	r0x100E
000231   3e3f     andai   0x3f             	ANDAI	0x3f
000232   e587     jbset   0x187, 0x2       	JBSET	PFLAG,2
000233   a235     goto    0x235            	GOTO	_00301_DS_
000234   a246     goto    0x246            	GOTO	_00190_DS_
                                           _00301_DS_
                                           ;	.line	121; "ADC.c"	OSADJCR --;
000235   6fb3     decr    0x1b3            	DECR	_OSADJCR
                                           ;	.line	122; "ADC.c"	ADEOC = 0;
000236   d3b0     bclr    0x1b0, 0x1       	BCLR	_ADCR0bits,1
                                           _00183_DS_
                                           ;	.line	123; "ADC.c"	while (!ADEOC);
000237   e3b0     jbset   0x1b0, 0x1       	JBSET	_ADCR0bits,1
000238   a237     goto    0x237            	GOTO	_00183_DS_
                                           ;	.line	124; "ADC.c"	if ((ADRH == 0) && ((ADRL & 0x0F) == 0))//?
000239   3c00     movai   0                	MOVAI	0x00
00023a   5db4     orar    0x1b4            	ORAR	_ADRH
00023b   e587     jbset   0x187, 0x2       	JBSET	PFLAG,2
00023c   a22e     goto    0x22e            	GOTO	_00193_DS_
00023d   59b5     movar   0x1b5            	MOVAR	_ADRL
00023e   5632     movra   0x32             	MOVRA	r0x100E
00023f   5832     movar   0x32             	MOVAR	r0x100E
000240   3e0f     andai   0xf              	ANDAI	0x0f
000241   e587     jbset   0x187, 0x2       	JBSET	PFLAG,2
000242   a22e     goto    0x22e            	GOTO	_00193_DS_
                                           ;	.line	126; "ADC.c"	ADEN = 0;
000243   d1b0     bclr    0x1b0, 0         	BCLR	_ADCR0bits,0
                                           ;	.line	127; "ADC.c"	return PASS;
000244   3c00     movai   0                	MOVAI	0x00
000245   a26a     goto    0x26a            	GOTO	_00215_DS_
                                           _00190_DS_
                                           ;	.line	132; "ADC.c"	ADEN = 0;
000246   d1b0     bclr    0x1b0, 0         	BCLR	_ADCR0bits,0
                                           ;	.line	133; "ADC.c"	return FAIL;
000247   3c01     movai   0x1              	MOVAI	0x01
000248   a26a     goto    0x26a            	GOTO	_00215_DS_
                                           _00209_DS_
                                           ;	.line	142; "ADC.c"	if ((OSADJCR & 0x3f) == 0x3f)
000249   59b3     movar   0x1b3            	MOVAR	_OSADJCR
00024a   5632     movra   0x32             	MOVRA	r0x100E
00024b   7633     clrr    0x33             	CLRR	r0x100F
00024c   3c3f     movai   0x3f             	MOVAI	0x3f
00024d   7a32     andra   0x32             	ANDRA	r0x100E
00024e   7633     clrr    0x33             	CLRR	r0x100F
00024f   5832     movar   0x32             	MOVAR	r0x100E
000250   393f     xorai   0x3f             	XORAI	0x3f
000251   e587     jbset   0x187, 0x2       	JBSET	PFLAG,2
000252   a25a     goto    0x25a            	GOTO	_00206_DS_
000253   5833     movar   0x33             	MOVAR	r0x100F
000254   3900     xorai   0                	XORAI	0x00
000255   e587     jbset   0x187, 0x2       	JBSET	PFLAG,2
000256   a25a     goto    0x25a            	GOTO	_00206_DS_
                                           ;	.line	144; "ADC.c"	ADEN = 0;
000257   d1b0     bclr    0x1b0, 0         	BCLR	_ADCR0bits,0
                                           ;	.line	145; "ADC.c"	return FAIL;
000258   3c01     movai   0x1              	MOVAI	0x01
000259   a26a     goto    0x26a            	GOTO	_00215_DS_
                                           _00206_DS_
                                           ;	.line	149; "ADC.c"	OSADJCR ++;
00025a   67b3     incr    0x1b3            	INCR	_OSADJCR
                                           ;	.line	150; "ADC.c"	ADEOC = 0;
00025b   d3b0     bclr    0x1b0, 0x1       	BCLR	_ADCR0bits,1
                                           _00199_DS_
                                           ;	.line	151; "ADC.c"	while (!ADEOC);
00025c   e3b0     jbset   0x1b0, 0x1       	JBSET	_ADCR0bits,1
00025d   a25c     goto    0x25c            	GOTO	_00199_DS_
                                           ;	.line	152; "ADC.c"	if ((ADRH == 0) && ((ADRL & 0x0F) == 0))//?
00025e   3c00     movai   0                	MOVAI	0x00
00025f   5db4     orar    0x1b4            	ORAR	_ADRH
000260   e587     jbset   0x187, 0x2       	JBSET	PFLAG,2
000261   a249     goto    0x249            	GOTO	_00209_DS_
000262   59b5     movar   0x1b5            	MOVAR	_ADRL
000263   5632     movra   0x32             	MOVRA	r0x100E
000264   5832     movar   0x32             	MOVAR	r0x100E
000265   3e0f     andai   0xf              	ANDAI	0x0f
000266   e587     jbset   0x187, 0x2       	JBSET	PFLAG,2
000267   a249     goto    0x249            	GOTO	_00209_DS_
                                           ;	.line	154; "ADC.c"	ADEN = 0;
000268   d1b0     bclr    0x1b0, 0         	BCLR	_ADCR0bits,0
                                           ;	.line	155; "ADC.c"	return PASS;
000269   3c00     movai   0                	MOVAI	0x00
                                           _00215_DS_
                                           ;	.line	160; "ADC.c"	}
00026a   000c     return                   	RETURN	
                                           ; exit point of _ADC_Zero_ADJ
                                           
                                           ;***
                                           ;  pBlock Stats: dbName = C
                                           ;***
                                           ;entry:  _ADC_Get_Value_Average	;Function start
                                           ; 2 exit points
                                           ;has an exit
                                           ;7 compiler assigned registers:
                                           ;   r0x1010
                                           ;   r0x1011
                                           ;   r0x1012
                                           ;   r0x1013
                                           ;   r0x1014
                                           ;   r0x1015
                                           ;   STK00
                                           ;; Starting pCode block
                                           _ADC_Get_Value_Average	;Function start
                                           ; 2 exit points
                                           ;	.line	63; "ADC.c"	g_adcsum = 0;
00026b   7646     clrr    0x46             	CLRR	_g_adcsum
00026c   7647     clrr    0x47             	CLRR	(_g_adcsum + 1)
00026d   7648     clrr    0x48             	CLRR	(_g_adcsum + 2)
00026e   7649     clrr    0x49             	CLRR	(_g_adcsum + 3)
                                           ;	.line	64; "ADC.c"	g_adcmax = 0;
00026f   7652     clrr    0x52             	CLRR	_g_adcmax
000270   7653     clrr    0x53             	CLRR	(_g_adcmax + 1)
                                           ;	.line	65; "ADC.c"	g_adcmin = 0xffff;
000271   3cff     movai   0xff             	MOVAI	0xff
000272   5654     movra   0x54             	MOVRA	_g_adcmin
000273   5655     movra   0x55             	MOVRA	(_g_adcmin + 1)
                                           ;	.line	67; "ADC.c"	for (g_channel = 0; g_channel < 20; g_channel ++)
000274   7666     clrr    0x66             	CLRR	_g_channel
                                           _00139_DS_
                                           ;	.line	69; "ADC.c"	ADEOC = 0;
000275   d3b0     bclr    0x1b0, 0x1       	BCLR	_ADCR0bits,1
                                           _00128_DS_
                                           ;	.line	70; "ADC.c"	while (!ADEOC);                         //
000276   e3b0     jbset   0x1b0, 0x1       	JBSET	_ADCR0bits,1
000277   a276     goto    0x276            	GOTO	_00128_DS_
                                           ;	.line	71; "ADC.c"	g_temp_value = ADRH;
000278   59b4     movar   0x1b4            	MOVAR	_ADRH
000279   5650     movra   0x50             	MOVRA	_g_temp_value
00027a   7651     clrr    0x51             	CLRR	(_g_temp_value + 1)
                                           ;	.line	72; "ADC.c"	g_temp_value = g_temp_value << 4 | (ADRL & 0x0f);
00027b   4451     swapar  0x51             	SWAPAR	(_g_temp_value + 1)
00027c   3ef0     andai   0xf0             	ANDAI	0xf0
00027d   562f     movra   0x2f             	MOVRA	r0x1010
00027e   4450     swapar  0x50             	SWAPAR	_g_temp_value
00027f   562e     movra   0x2e             	MOVRA	r0x1011
000280   3e0f     andai   0xf              	ANDAI	0x0f
000281   5e2f     orra    0x2f             	ORRA	r0x1010
000282   422e     xorra   0x2e             	XORRA	r0x1011
000283   59b5     movar   0x1b5            	MOVAR	_ADRL
000284   5630     movra   0x30             	MOVRA	r0x1012
000285   7631     clrr    0x31             	CLRR	r0x1013
000286   3c0f     movai   0xf              	MOVAI	0x0f
000287   7a30     andra   0x30             	ANDRA	r0x1012
000288   7631     clrr    0x31             	CLRR	r0x1013
                                           ;;101	MOVAR	r0x1012
                                           ;;99	MOVRA	r0x1014
                                           ;;104	MOVAR	r0x1013
                                           ;;102	MOVRA	r0x1015
                                           ;;100	MOVAR	r0x1014
000289   5830     movar   0x30             	MOVAR	r0x1012
00028a   5c2e     orar    0x2e             	ORAR	r0x1011
00028b   5650     movra   0x50             	MOVRA	_g_temp_value
                                           ;;103	MOVAR	r0x1015
00028c   3c00     movai   0                	MOVAI	0x00
00028d   5c2f     orar    0x2f             	ORAR	r0x1010
00028e   5651     movra   0x51             	MOVRA	(_g_temp_value + 1)
                                           ;;unsigned compare: left < lit(0x2=2), size=1
                                           ;	.line	73; "ADC.c"	if (g_channel < 2)
00028f   3c02     movai   0x2              	MOVAI	0x02
000290   4866     rsubar  0x66             	RSUBAR	_g_channel
000291   e187     jbset   0x187, 0         	JBSET	PFLAG,0
000292   a2bf     goto    0x2bf            	GOTO	_00137_DS_
                                           ;;genSkipc:3291: created from rifx:013B5EFC
                                           ;	.line	76; "ADC.c"	if (g_temp_value > g_adcmax)
000293   5851     movar   0x51             	MOVAR	(_g_temp_value + 1)
000294   4853     rsubar  0x53             	RSUBAR	(_g_adcmax + 1)
000295   e587     jbset   0x187, 0x2       	JBSET	PFLAG,2
000296   a299     goto    0x299            	GOTO	_00171_DS_
000297   5850     movar   0x50             	MOVAR	_g_temp_value
000298   4852     rsubar  0x52             	RSUBAR	_g_adcmax
                                           _00171_DS_
000299   f187     jbclr   0x187, 0         	JBCLR	PFLAG,0
00029a   a29f     goto    0x29f            	GOTO	_00134_DS_
                                           ;;genSkipc:3291: created from rifx:013B5EFC
                                           ;	.line	77; "ADC.c"	g_adcmax = g_temp_value;             //?
00029b   5850     movar   0x50             	MOVAR	_g_temp_value
00029c   5652     movra   0x52             	MOVRA	_g_adcmax
00029d   5851     movar   0x51             	MOVAR	(_g_temp_value + 1)
00029e   5653     movra   0x53             	MOVRA	(_g_adcmax + 1)
                                           _00134_DS_
                                           ;	.line	78; "ADC.c"	if (g_temp_value < g_adcmin)
00029f   5855     movar   0x55             	MOVAR	(_g_adcmin + 1)
0002a0   4851     rsubar  0x51             	RSUBAR	(_g_temp_value + 1)
0002a1   e587     jbset   0x187, 0x2       	JBSET	PFLAG,2
0002a2   a2a5     goto    0x2a5            	GOTO	_00172_DS_
0002a3   5854     movar   0x54             	MOVAR	_g_adcmin
0002a4   4850     rsubar  0x50             	RSUBAR	_g_temp_value
                                           _00172_DS_
0002a5   f187     jbclr   0x187, 0         	JBCLR	PFLAG,0
0002a6   a2ab     goto    0x2ab            	GOTO	_00136_DS_
                                           ;;genSkipc:3291: created from rifx:013B5EFC
                                           ;	.line	79; "ADC.c"	g_adcmin = g_temp_value;             //?
0002a7   5850     movar   0x50             	MOVAR	_g_temp_value
0002a8   5654     movra   0x54             	MOVRA	_g_adcmin
0002a9   5851     movar   0x51             	MOVAR	(_g_temp_value + 1)
0002aa   5655     movra   0x55             	MOVRA	(_g_adcmin + 1)
                                           _00136_DS_
                                           ;	.line	80; "ADC.c"	g_adcsum += g_temp_value;  	   	
0002ab   5850     movar   0x50             	MOVAR	_g_temp_value
0002ac   562e     movra   0x2e             	MOVRA	r0x1011
0002ad   5851     movar   0x51             	MOVAR	(_g_temp_value + 1)
0002ae   562f     movra   0x2f             	MOVRA	r0x1010
0002af   7630     clrr    0x30             	CLRR	r0x1012
0002b0   7631     clrr    0x31             	CLRR	r0x1013
0002b1   582e     movar   0x2e             	MOVAR	r0x1011
0002b2   7e46     addra   0x46             	ADDRA	_g_adcsum
0002b3   582f     movar   0x2f             	MOVAR	r0x1010
0002b4   f187     jbclr   0x187, 0         	JBCLR	PFLAG,0
0002b5   602f     jzar    0x2f             	JZAR	r0x1010
0002b6   7e47     addra   0x47             	ADDRA	(_g_adcsum + 1)
0002b7   5830     movar   0x30             	MOVAR	r0x1012
0002b8   f187     jbclr   0x187, 0         	JBCLR	PFLAG,0
0002b9   6030     jzar    0x30             	JZAR	r0x1012
0002ba   7e48     addra   0x48             	ADDRA	(_g_adcsum + 2)
0002bb   5831     movar   0x31             	MOVAR	r0x1013
0002bc   f187     jbclr   0x187, 0         	JBCLR	PFLAG,0
0002bd   6031     jzar    0x31             	JZAR	r0x1013
0002be   7e49     addra   0x49             	ADDRA	(_g_adcsum + 3)
                                           _00137_DS_
                                           ;	.line	67; "ADC.c"	for (g_channel = 0; g_channel < 20; g_channel ++)
0002bf   6666     incr    0x66             	INCR	_g_channel
                                           ;;unsigned compare: left < lit(0x14=20), size=1
0002c0   3c14     movai   0x14             	MOVAI	0x14
0002c1   4866     rsubar  0x66             	RSUBAR	_g_channel
0002c2   e187     jbset   0x187, 0         	JBSET	PFLAG,0
0002c3   a275     goto    0x275            	GOTO	_00139_DS_
                                           ;;genSkipc:3291: created from rifx:013B5EFC
                                           ;	.line	82; "ADC.c"	g_adcsum -= g_adcmax;                       //?
0002c4   5852     movar   0x52             	MOVAR	_g_adcmax
0002c5   562e     movra   0x2e             	MOVRA	r0x1011
0002c6   5853     movar   0x53             	MOVAR	(_g_adcmax + 1)
0002c7   562f     movra   0x2f             	MOVRA	r0x1010
0002c8   7630     clrr    0x30             	CLRR	r0x1012
0002c9   7631     clrr    0x31             	CLRR	r0x1013
0002ca   582e     movar   0x2e             	MOVAR	r0x1011
0002cb   4a46     rsubra  0x46             	RSUBRA	_g_adcsum
0002cc   582f     movar   0x2f             	MOVAR	r0x1010
0002cd   e187     jbset   0x187, 0         	JBSET	PFLAG,0
0002ce   602f     jzar    0x2f             	JZAR	r0x1010
0002cf   4a47     rsubra  0x47             	RSUBRA	(_g_adcsum + 1)
0002d0   5830     movar   0x30             	MOVAR	r0x1012
0002d1   e187     jbset   0x187, 0         	JBSET	PFLAG,0
0002d2   6030     jzar    0x30             	JZAR	r0x1012
0002d3   4a48     rsubra  0x48             	RSUBRA	(_g_adcsum + 2)
0002d4   5831     movar   0x31             	MOVAR	r0x1013
0002d5   e187     jbset   0x187, 0         	JBSET	PFLAG,0
0002d6   6031     jzar    0x31             	JZAR	r0x1013
0002d7   4a49     rsubra  0x49             	RSUBRA	(_g_adcsum + 3)
                                           ;	.line	83; "ADC.c"	g_adcsum -= g_adcmin;                       //?
0002d8   5854     movar   0x54             	MOVAR	_g_adcmin
0002d9   562e     movra   0x2e             	MOVRA	r0x1011
0002da   5855     movar   0x55             	MOVAR	(_g_adcmin + 1)
0002db   562f     movra   0x2f             	MOVRA	r0x1010
0002dc   7630     clrr    0x30             	CLRR	r0x1012
0002dd   7631     clrr    0x31             	CLRR	r0x1013
0002de   582e     movar   0x2e             	MOVAR	r0x1011
0002df   4a46     rsubra  0x46             	RSUBRA	_g_adcsum
0002e0   582f     movar   0x2f             	MOVAR	r0x1010
0002e1   e187     jbset   0x187, 0         	JBSET	PFLAG,0
0002e2   602f     jzar    0x2f             	JZAR	r0x1010
0002e3   4a47     rsubra  0x47             	RSUBRA	(_g_adcsum + 1)
0002e4   5830     movar   0x30             	MOVAR	r0x1012
0002e5   e187     jbset   0x187, 0         	JBSET	PFLAG,0
0002e6   6030     jzar    0x30             	JZAR	r0x1012
0002e7   4a48     rsubra  0x48             	RSUBRA	(_g_adcsum + 2)
0002e8   5831     movar   0x31             	MOVAR	r0x1013
0002e9   e187     jbset   0x187, 0         	JBSET	PFLAG,0
0002ea   6031     jzar    0x31             	JZAR	r0x1013
0002eb   4a49     rsubra  0x49             	RSUBRA	(_g_adcsum + 3)
                                           ;	.line	84; "ADC.c"	g_temp_value = (g_adcsum >> 4);             //16?
0002ec   4446     swapar  0x46             	SWAPAR	_g_adcsum
0002ed   3e0f     andai   0xf              	ANDAI	0x0f
0002ee   562e     movra   0x2e             	MOVRA	r0x1011
0002ef   4447     swapar  0x47             	SWAPAR	(_g_adcsum + 1)
0002f0   562f     movra   0x2f             	MOVRA	r0x1010
0002f1   3ef0     andai   0xf0             	ANDAI	0xf0
0002f2   5e2e     orra    0x2e             	ORRA	r0x1011
0002f3   422f     xorra   0x2f             	XORRA	r0x1010
0002f4   4448     swapar  0x48             	SWAPAR	(_g_adcsum + 2)
0002f5   5630     movra   0x30             	MOVRA	r0x1012
0002f6   3ef0     andai   0xf0             	ANDAI	0xf0
0002f7   5e2f     orra    0x2f             	ORRA	r0x1010
0002f8   4230     xorra   0x30             	XORRA	r0x1012
0002f9   4449     swapar  0x49             	SWAPAR	(_g_adcsum + 3)
0002fa   5631     movra   0x31             	MOVRA	r0x1013
0002fb   3ef0     andai   0xf0             	ANDAI	0xf0
0002fc   5e30     orra    0x30             	ORRA	r0x1012
0002fd   4231     xorra   0x31             	XORRA	r0x1013
0002fe   582e     movar   0x2e             	MOVAR	r0x1011
0002ff   5650     movra   0x50             	MOVRA	_g_temp_value
000300   582f     movar   0x2f             	MOVAR	r0x1010
000301   5651     movra   0x51             	MOVRA	(_g_temp_value + 1)
                                           ;	.line	85; "ADC.c"	return g_temp_value;
000302   5850     movar   0x50             	MOVAR	_g_temp_value
000303   5606     movra   0x6              	MOVRA	STK00
000304   5851     movar   0x51             	MOVAR	(_g_temp_value + 1)
                                           ;	.line	86; "ADC.c"	}
000305   000c     return                   	RETURN	
                                           ; exit point of _ADC_Get_Value_Average
                                           
                                           ;***
                                           ;  pBlock Stats: dbName = C
                                           ;***
                                           ;entry:  _Set_ADC_Channel	;Function start
                                           ; 2 exit points
                                           ;has an exit
                                           ;3 compiler assigned registers:
                                           ;   r0x1016
                                           ;   r0x1017
                                           ;   r0x1018
                                           ;; Starting pCode block
                                           _Set_ADC_Channel	;Function start
                                           ; 2 exit points
000306   562d     movra   0x2d             	MOVRA	r0x1018
                                           ;	.line	48; "ADC.c"	void Set_ADC_Channel(u8 CHX)
000307   562b     movra   0x2b             	MOVRA	r0x1016
                                           ;	.line	50; "ADC.c"	ADCR0 = (ADCR0 & 0x0f) | (CHX << 4); 
000308   59b0     movar   0x1b0            	MOVAR	_ADCR0
000309   562c     movra   0x2c             	MOVRA	r0x1017
00030a   3c0f     movai   0xf              	MOVAI	0x0f
00030b   7a2c     andra   0x2c             	ANDRA	r0x1017
                                           ;;106	MOVAR	r0x1016
00030c   442d     swapar  0x2d             	SWAPAR	r0x1018
00030d   3ef0     andai   0xf0             	ANDAI	0xf0
00030e   562d     movra   0x2d             	MOVRA	r0x1018
00030f   562b     movra   0x2b             	MOVRA	r0x1016
                                           ;;105	MOVAR	r0x1016
000310   582d     movar   0x2d             	MOVAR	r0x1018
000311   5c2c     orar    0x2c             	ORAR	r0x1017
000312   57b0     movra   0x1b0            	MOVRA	_ADCR0
                                           ;	.line	51; "ADC.c"	}
000313   000c     return                   	RETURN	
                                           ; exit point of _Set_ADC_Channel
                                           
                                           ;***
                                           ;  pBlock Stats: dbName = C
                                           ;***
                                           ;entry:  _Scan_ADC	;Function start
                                           ; 2 exit points
                                           ;has an exit
                                           ;functions called:
                                           ;   _ADC_Get_Value_Average
                                           ;   _Set_ADC_Channel
                                           ;   _ADC_Get_Value_Average
                                           ;   _Set_ADC_Channel
                                           ;   _ADC_Get_Value_Average
                                           ;   _Set_ADC_Channel
                                           ;   _ADC_Get_Value_Average
                                           ;   _Set_ADC_Channel
                                           ;1 compiler assigned register :
                                           ;   STK00
                                           ;; Starting pCode block
                                           _Scan_ADC	;Function start
                                           ; 2 exit points
                                           ;	.line	22; "ADC.c"	switch(adc_star)
000314   5865     movar   0x65             	MOVAR	_adc_star
000315   e587     jbset   0x187, 0x2       	JBSET	PFLAG,2
000316   a318     goto    0x318            	GOTO	_00118_DS_
000317   a31e     goto    0x31e            	GOTO	_00105_DS_
                                           _00118_DS_
000318   5865     movar   0x65             	MOVAR	_adc_star
000319   3901     xorai   0x1              	XORAI	0x01
00031a   e587     jbset   0x187, 0x2       	JBSET	PFLAG,2
00031b   a31d     goto    0x31d            	GOTO	_00119_DS_
00031c   a326     goto    0x326            	GOTO	_00106_DS_
                                           _00119_DS_
00031d   a32d     goto    0x32d            	GOTO	_00108_DS_
                                           _00105_DS_
                                           ;	.line	26; "ADC.c"	adc_data = ADC_Get_Value_Average();	//+?ms
00031e   826b     call    0x26b            	CALL	_ADC_Get_Value_Average
00031f   5657     movra   0x57             	MOVRA	(_adc_data + 1)
000320   5806     movar   0x6              	MOVAR	STK00
000321   5656     movra   0x56             	MOVRA	_adc_data
                                           ;	.line	28; "ADC.c"	Set_ADC_Channel(11);    //EVN0 P01 
000322   3c0b     movai   0xb              	MOVAI	0x0b
000323   8306     call    0x306            	CALL	_Set_ADC_Channel
                                           ;	.line	29; "ADC.c"	adc_star++;
000324   6665     incr    0x65             	INCR	_adc_star
                                           ;	.line	30; "ADC.c"	break;
000325   a32d     goto    0x32d            	GOTO	_00108_DS_
                                           _00106_DS_
                                           ;	.line	34; "ADC.c"	adc_data = ADC_Get_Value_Average();
000326   826b     call    0x26b            	CALL	_ADC_Get_Value_Average
000327   5657     movra   0x57             	MOVRA	(_adc_data + 1)
000328   5806     movar   0x6              	MOVAR	STK00
000329   5656     movra   0x56             	MOVRA	_adc_data
                                           ;	.line	36; "ADC.c"	Set_ADC_Channel(5);     //AN5 P10
00032a   3c05     movai   0x5              	MOVAI	0x05
00032b   8306     call    0x306            	CALL	_Set_ADC_Channel
                                           ;	.line	37; "ADC.c"	adc_star = 0;
00032c   7665     clrr    0x65             	CLRR	_adc_star
                                           _00108_DS_
                                           ;	.line	40; "ADC.c"	}
00032d   000c     return                   	RETURN	
                                           ; exit point of _Scan_ADC
                                           
                                           
                                           ;	code size estimation:
                                           ;	  295+    0 =   295 instructions (  590 byte)
                                           
                                           	end
                                           ;--------------------------------------------------------
                                           ; File Created by SN-SDCC : SinoMCU ANSI-C Compiler
                                           ; Version 2.0.0 (Dec 11 2019) (MINGW32)
                                           ; This file was generated Wed Nov 20 17:41:42 2024
                                           ;--------------------------------------------------------
                                           ; MC32 port for the RISC core
                                           ;--------------------------------------------------------
                                           ;	.file	"MC32P7351.c"
                                           	list	p=7351
                                           	radix dec
                                           	include "7351.inc"
                                           ;--------------------------------------------------------
                                           ; external declarations
                                           ;--------------------------------------------------------
                                           	extern	_CLR_RAM
                                           	extern	_IO_Init
                                           	extern	_TIMER0_INT_Init
                                           	extern	_TIMER1_INT_Init
                                           	extern	_TIMER2_INT_Init
                                           	extern	_TIMER3_INT_Init
                                           	extern	_TIMER0_PWM_Init
                                           	extern	_TIMER1_PWM_Init
                                           	extern	_TIMER2_PWM_Init
                                           	extern	_ADC_Init
                                           	extern	_Scan_ADC
                                           	extern	_Set_ADC_Channel
                                           	extern	_ADC_Get_Value_Average
                                           	extern	_delay
                                           	extern	_INDF0bits
                                           	extern	_INDF1bits
                                           	extern	_INDF2bits
                                           	extern	_HIBYTEbits
                                           	extern	_FSR0bits
                                           	extern	_FSR1bits
                                           	extern	_PCLbits
                                           	extern	_PFLAGbits
                                           	extern	_MCRbits
                                           	extern	_INDF3bits
                                           	extern	_INTEbits
                                           	extern	_INTFbits
                                           	extern	_DRVCRbits
                                           	extern	_PFRCCRbits
                                           	extern	_P1KBCRbits
                                           	extern	_PFRCCALbits
                                           	extern	_IOP0bits
                                           	extern	_OEP0bits
                                           	extern	_PUP0bits
                                           	extern	_PDP0bits
                                           	extern	_IOP1bits
                                           	extern	_OEP1bits
                                           	extern	_PUP1bits
                                           	extern	_PDP1bits
                                           	extern	_T0CRbits
                                           	extern	_T0CNTbits
                                           	extern	_T0LOADbits
                                           	extern	_T0DATAbits
                                           	extern	_T1CRbits
                                           	extern	_T1CNTbits
                                           	extern	_T1LOADbits
                                           	extern	_T1DATAbits
                                           	extern	_T2CRbits
                                           	extern	_T2CNTbits
                                           	extern	_T2LOADbits
                                           	extern	_T2DATAbits
                                           	extern	_T3CRbits
                                           	extern	_T3CNTbits
                                           	extern	_T3LOADbits
                                           	extern	_PWM0DRbits
                                           	extern	_PWM1DRbits
                                           	extern	_PWM2DRbits
                                           	extern	_PWMCR0bits
                                           	extern	_PWMCR1bits
                                           	extern	_OSCMRbits
                                           	extern	_LVDCRbits
                                           	extern	_ADCR0bits
                                           	extern	_ADCR1bits
                                           	extern	_ADCR2bits
                                           	extern	_OSADJCRbits
                                           	extern	_ADRHbits
                                           	extern	_ADRLbits
                                           	extern	_ADIOS0bits
                                           	extern	_ADIOS1bits
                                           	extern	_PMODbits
                                           	extern	_PWMCR3bits
                                           	extern	_PWMCR2bits
                                           	extern	_PFRCAUXbits
                                           	extern	_HIRCCALbits
                                           	extern	_flag2
                                           	extern	_adc_data
                                           	extern	_INDF0
                                           	extern	_INDF1
                                           	extern	_INDF2
                                           	extern	_HIBYTE
                                           	extern	_FSR0
                                           	extern	_FSR1
                                           	extern	_PCL
                                           	extern	_PFLAG
                                           	extern	_MCR
                                           	extern	_INDF3
                                           	extern	_INTE
                                           	extern	_INTF
                                           	extern	_DRVCR
                                           	extern	_PFRCCR
                                           	extern	_P1KBCR
                                           	extern	_PFRCCAL
                                           	extern	_IOP0
                                           	extern	_OEP0
                                           	extern	_PUP0
                                           	extern	_PDP0
                                           	extern	_IOP1
                                           	extern	_OEP1
                                           	extern	_PUP1
                                           	extern	_PDP1
                                           	extern	_T0CR
                                           	extern	_T0CNT
                                           	extern	_T0LOAD
                                           	extern	_T0DATA
                                           	extern	_T1CR
                                           	extern	_T1CNT
                                           	extern	_T1LOAD
                                           	extern	_T1DATA
                                           	extern	_T2CR
                                           	extern	_T2CNT
                                           	extern	_T2LOAD
                                           	extern	_T2DATA
                                           	extern	_T3CR
                                           	extern	_T3CNT
                                           	extern	_T3LOAD
                                           	extern	_PWM0DR
                                           	extern	_PWM1DR
                                           	extern	_PWM2DR
                                           	extern	_PWMCR0
                                           	extern	_PWMCR1
                                           	extern	_OSCMR
                                           	extern	_LVDCR
                                           	extern	_ADCR0
                                           	extern	_ADCR1
                                           	extern	_ADCR2
                                           	extern	_OSADJCR
                                           	extern	_ADRH
                                           	extern	_ADRL
                                           	extern	_ADIOS0
                                           	extern	_ADIOS1
                                           	extern	_PMOD
                                           	extern	_PWMCR3
                                           	extern	_PWMCR2
                                           	extern	_PFRCAUX
                                           	extern	_HIRCCAL
                                           	extern	__gptrget1
                                           ;--------------------------------------------------------
                                           ; global declarations
                                           ;--------------------------------------------------------
                                           	global	_Sleep_Func
                                           	global	_Scan_Key
                                           	global	_Sys_Init
                                           	global	_Uart_send_Function
                                           	global	_Uart_getsend_func
                                           	global	_ADC_cul
                                           	global	_VIN_Scan
                                           	global	_LED_Scan
                                           	global	_main
                                           	global	_int_isr
                                           	global	_abuf
                                           	global	_statusbuf
                                           	global	_sleep_time
                                           	global	_key_per
                                           	global	_key_cur
                                           	global	_key_down
                                           	global	_key_keep
                                           	global	_int_time0
                                           	global	_testflag
                                           	global	_charge_F
                                           	global	_ADCScan_F
                                           	global	_Flag1
                                           	global	_Flag2
                                           	global	_test__
                                           	global	_ChargeTrue
                                           	global	_UARTUser
                                           	global	_keytrue
                                           	global	_VINtrue
                                           	global	_buff
                                           	global	_Bat_voltage
                                           
                                           	global STK06
                                           	global STK05
                                           	global STK04
                                           	global STK03
                                           	global STK02
                                           	global STK01
                                           	global STK00
                                           
                                           sharebank udata_ovr 0x0000
                                           STK06	res 1
                                           STK05	res 1
                                           STK04	res 1
                                           STK03	res 1
                                           STK02	res 1
                                           STK01	res 1
                                           STK00	res 1
                                           
                                           ;--------------------------------------------------------
                                           ; global definitions
                                           ;--------------------------------------------------------
                                           UD_MC32P7351_0	udata
                                           _abuf	res	1
                                           
                                           UD_MC32P7351_1	udata
                                           _statusbuf	res	1
                                           
                                           UD_MC32P7351_2	udata
                                           _sleep_time	res	1
                                           
                                           UD_MC32P7351_3	udata
                                           _key_per	res	1
                                           
                                           UD_MC32P7351_4	udata
                                           _key_cur	res	1
                                           
                                           UD_MC32P7351_5	udata
                                           _key_down	res	1
                                           
                                           UD_MC32P7351_6	udata
                                           _key_keep	res	1
                                           
                                           UD_MC32P7351_7	udata
                                           _int_time0	res	1
                                           
                                           UD_MC32P7351_8	udata
                                           _testflag	res	1
                                           
                                           UD_MC32P7351_9	udata
                                           _charge_F	res	1
                                           
                                           UD_MC32P7351_10	udata
                                           _ADCScan_F	res	1
                                           
                                           UD_MC32P7351_11	udata
                                           _Flag1	res	1
                                           
                                           UD_MC32P7351_12	udata
                                           _Flag2	res	1
                                           
                                           UD_MC32P7351_13	udata
                                           _test__	res	2
                                           
                                           UD_MC32P7351_14	udata
                                           _ChargeTrue	res	9
                                           
                                           UD_MC32P7351_15	udata
                                           _UARTUser	res	8
                                           
                                           UD_MC32P7351_16	udata
                                           _keytrue	res	2
                                           
                                           UD_MC32P7351_17	udata
                                           _VINtrue	res	2
                                           
                                           UD_MC32P7351_18	udata
                                           _buff	res	6
                                           
                                           ;--------------------------------------------------------
                                           ; absolute symbol definitions
                                           ;--------------------------------------------------------
                                           ;--------------------------------------------------------
                                           ; compiler-defined variables
                                           ;--------------------------------------------------------
                                           UDL_MC32P7351_0	udata
                                           r0x103A	res	1
                                           r0x103B	res	1
                                           r0x103C	res	1
                                           r0x103D	res	1
                                           r0x103E	res	1
                                           r0x1029	res	1
                                           r0x1028	res	1
                                           r0x1027	res	1
                                           r0x102A	res	1
                                           r0x102B	res	1
                                           r0x102C	res	1
                                           r0x102D	res	1
                                           r0x102E	res	1
                                           r0x102F	res	1
                                           r0x1030	res	1
                                           r0x1031	res	1
                                           r0x1033	res	1
                                           r0x1032	res	1
                                           r0x1034	res	1
                                           r0x1035	res	1
                                           r0x1036	res	1
                                           r0x1037	res	1
                                           r0x1038	res	1
                                           r0x1039	res	1
                                           r0x1026	res	1
                                           r0x103F	res	1
                                           r0x1040	res	1
                                           ;--------------------------------------------------------
                                           ; initialized data
                                           ;--------------------------------------------------------
                                           
                                           ID_MC32P7351_0	code
                                           _Bat_voltage
                                           	dw 0x85
                                           	dw 0x05
                                           	dw 0x00
                                           	dw 0x06
                                           	dw 0x33
                                           	dw 0x07
                                           
                                           
                                           ;@Allocation info for local variables in function 'Uart_send_Function'
                                           ;@Uart_send_Function Sys_Init                  Allocated to registers ;size:2
                                           ;@Uart_send_Function CLR_RAM                   Allocated to registers ;size:2
                                           ;@Uart_send_Function IO_Init                   Allocated to registers ;size:2
                                           ;@Uart_send_Function TIMER0_INT_Init           Allocated to registers ;size:2
                                           ;@Uart_send_Function TIMER1_INT_Init           Allocated to registers ;size:2
                                           ;@Uart_send_Function TIMER2_INT_Init           Allocated to registers ;size:2
                                           ;@Uart_send_Function TIMER3_INT_Init           Allocated to registers ;size:2
                                           ;@Uart_send_Function TIMER0_PWM_Init           Allocated to registers ;size:2
                                           ;@Uart_send_Function TIMER1_PWM_Init           Allocated to registers ;size:2
                                           ;@Uart_send_Function TIMER2_PWM_Init           Allocated to registers ;size:2
                                           ;@Uart_send_Function ADC_Init                  Allocated to registers ;size:2
                                           ;@Uart_send_Function Scan_ADC                  Allocated to registers ;size:2
                                           ;@Uart_send_Function Set_ADC_Channel           Allocated to registers ;size:2
                                           ;@Uart_send_Function ADC_Get_Value_Average     Allocated to registers ;size:2
                                           ;@Uart_send_Function Scan_Key                  Allocated to registers ;size:2
                                           ;@Uart_send_Function Sleep_Func                Allocated to registers ;size:2
                                           ;@Uart_send_Function delay                     Allocated to registers ;size:2
                                           ;@Uart_send_Function Uart_send_Function        Allocated to registers ;size:2
                                           ;@Uart_send_Function INDF0bits                 Allocated to registers ;size:1
                                           ;@Uart_send_Function INDF1bits                 Allocated to registers ;size:1
                                           ;@Uart_send_Function INDF2bits                 Allocated to registers ;size:1
                                           ;@Uart_send_Function HIBYTEbits                Allocated to registers ;size:1
                                           ;@Uart_send_Function FSR0bits                  Allocated to registers ;size:1
                                           ;@Uart_send_Function FSR1bits                  Allocated to registers ;size:1
                                           ;@Uart_send_Function PCLbits                   Allocated to registers ;size:1
                                           ;@Uart_send_Function PFLAGbits                 Allocated to registers ;size:1
                                           ;@Uart_send_Function MCRbits                   Allocated to registers ;size:1
                                           ;@Uart_send_Function INDF3bits                 Allocated to registers ;size:1
                                           ;@Uart_send_Function INTEbits                  Allocated to registers ;size:1
                                           ;@Uart_send_Function INTFbits                  Allocated to registers ;size:1
                                           ;@Uart_send_Function DRVCRbits                 Allocated to registers ;size:1
                                           ;@Uart_send_Function PFRCCRbits                Allocated to registers ;size:1
                                           ;@Uart_send_Function P1KBCRbits                Allocated to registers ;size:1
                                           ;@Uart_send_Function PFRCCALbits               Allocated to registers ;size:1
                                           ;@Uart_send_Function IOP0bits                  Allocated to registers ;size:1
                                           ;@Uart_send_Function OEP0bits                  Allocated to registers ;size:1
                                           ;@Uart_send_Function PUP0bits                  Allocated to registers ;size:1
                                           ;@Uart_send_Function PDP0bits                  Allocated to registers ;size:1
                                           ;@Uart_send_Function IOP1bits                  Allocated to registers ;size:1
                                           ;@Uart_send_Function OEP1bits                  Allocated to registers ;size:1
                                           ;@Uart_send_Function PUP1bits                  Allocated to registers ;size:1
                                           ;@Uart_send_Function PDP1bits                  Allocated to registers ;size:1
                                           ;@Uart_send_Function T0CRbits                  Allocated to registers ;size:1
                                           ;@Uart_send_Function T0CNTbits                 Allocated to registers ;size:1
                                           ;@Uart_send_Function T0LOADbits                Allocated to registers ;size:1
                                           ;@Uart_send_Function T0DATAbits                Allocated to registers ;size:1
                                           ;@Uart_send_Function T1CRbits                  Allocated to registers ;size:1
                                           ;@Uart_send_Function T1CNTbits                 Allocated to registers ;size:1
                                           ;@Uart_send_Function T1LOADbits                Allocated to registers ;size:1
                                           ;@Uart_send_Function T1DATAbits                Allocated to registers ;size:1
                                           ;@Uart_send_Function T2CRbits                  Allocated to registers ;size:1
                                           ;@Uart_send_Function T2CNTbits                 Allocated to registers ;size:1
                                           ;@Uart_send_Function T2LOADbits                Allocated to registers ;size:1
                                           ;@Uart_send_Function T2DATAbits                Allocated to registers ;size:1
                                           ;@Uart_send_Function T3CRbits                  Allocated to registers ;size:1
                                           ;@Uart_send_Function T3CNTbits                 Allocated to registers ;size:1
                                           ;@Uart_send_Function T3LOADbits                Allocated to registers ;size:1
                                           ;@Uart_send_Function PWM0DRbits                Allocated to registers ;size:1
                                           ;@Uart_send_Function PWM1DRbits                Allocated to registers ;size:1
                                           ;@Uart_send_Function PWM2DRbits                Allocated to registers ;size:1
                                           ;@Uart_send_Function PWMCR0bits                Allocated to registers ;size:1
                                           ;@Uart_send_Function PWMCR1bits                Allocated to registers ;size:1
                                           ;@Uart_send_Function OSCMRbits                 Allocated to registers ;size:1
                                           ;@Uart_send_Function LVDCRbits                 Allocated to registers ;size:1
                                           ;@Uart_send_Function ADCR0bits                 Allocated to registers ;size:1
                                           ;@Uart_send_Function ADCR1bits                 Allocated to registers ;size:1
                                           ;@Uart_send_Function ADCR2bits                 Allocated to registers ;size:1
                                           ;@Uart_send_Function OSADJCRbits               Allocated to registers ;size:1
                                           ;@Uart_send_Function ADRHbits                  Allocated to registers ;size:1
                                           ;@Uart_send_Function ADRLbits                  Allocated to registers ;size:1
                                           ;@Uart_send_Function ADIOS0bits                Allocated to registers ;size:1
                                           ;@Uart_send_Function ADIOS1bits                Allocated to registers ;size:1
                                           ;@Uart_send_Function PMODbits                  Allocated to registers ;size:1
                                           ;@Uart_send_Function PWMCR3bits                Allocated to registers ;size:1
                                           ;@Uart_send_Function PWMCR2bits                Allocated to registers ;size:1
                                           ;@Uart_send_Function PFRCAUXbits               Allocated to registers ;size:1
                                           ;@Uart_send_Function HIRCCALbits               Allocated to registers ;size:1
                                           ;@Uart_send_Function flag2                     Allocated to registers ;size:1
                                           ;@Uart_send_Function adc_data                  Allocated to registers ;size:2
                                           ;@Uart_send_Function abuf                      Allocated to registers ;size:1
                                           ;@Uart_send_Function statusbuf                 Allocated to registers ;size:1
                                           ;@Uart_send_Function sleep_time                Allocated to registers ;size:1
                                           ;@Uart_send_Function key_per                   Allocated to registers ;size:1
                                           ;@Uart_send_Function key_cur                   Allocated to registers ;size:1
                                           ;@Uart_send_Function key_down                  Allocated to registers ;size:1
                                           ;@Uart_send_Function key_keep                  Allocated to registers ;size:1
                                           ;@Uart_send_Function int_time0                 Allocated to registers ;size:1
                                           ;@Uart_send_Function testflag                  Allocated to registers ;size:1
                                           ;@Uart_send_Function charge_F                  Allocated to registers ;size:1
                                           ;@Uart_send_Function ADCScan_F                 Allocated to registers ;size:1
                                           ;@Uart_send_Function Flag1                     Allocated to registers ;size:1
                                           ;@Uart_send_Function Flag2                     Allocated to registers ;size:1
                                           ;@Uart_send_Function test__                    Allocated to registers ;size:2
                                           ;@Uart_send_Function ChargeTrue                Allocated to registers ;size:9
                                           ;@Uart_send_Function UARTUser                  Allocated to registers ;size:8
                                           ;@Uart_send_Function INDF0                     Allocated to registers ;size:1
                                           ;@Uart_send_Function INDF1                     Allocated to registers ;size:1
                                           ;@Uart_send_Function INDF2                     Allocated to registers ;size:1
                                           ;@Uart_send_Function HIBYTE                    Allocated to registers ;size:1
                                           ;@Uart_send_Function FSR0                      Allocated to registers ;size:1
                                           ;@Uart_send_Function FSR1                      Allocated to registers ;size:1
                                           ;@Uart_send_Function PCL                       Allocated to registers ;size:1
                                           ;@Uart_send_Function PFLAG                     Allocated to registers ;size:1
                                           ;@Uart_send_Function MCR                       Allocated to registers ;size:1
                                           ;@Uart_send_Function INDF3                     Allocated to registers ;size:1
                                           ;@Uart_send_Function INTE                      Allocated to registers ;size:1
                                           ;@Uart_send_Function INTF                      Allocated to registers ;size:1
                                           ;@Uart_send_Function DRVCR                     Allocated to registers ;size:1
                                           ;@Uart_send_Function PFRCCR                    Allocated to registers ;size:1
                                           ;@Uart_send_Function P1KBCR                    Allocated to registers ;size:1
                                           ;@Uart_send_Function PFRCCAL                   Allocated to registers ;size:1
                                           ;@Uart_send_Function IOP0                      Allocated to registers ;size:1
                                           ;@Uart_send_Function OEP0                      Allocated to registers ;size:1
                                           ;@Uart_send_Function PUP0                      Allocated to registers ;size:1
                                           ;@Uart_send_Function PDP0                      Allocated to registers ;size:1
                                           ;@Uart_send_Function IOP1                      Allocated to registers ;size:1
                                           ;@Uart_send_Function OEP1                      Allocated to registers ;size:1
                                           ;@Uart_send_Function PUP1                      Allocated to registers ;size:1
                                           ;@Uart_send_Function PDP1                      Allocated to registers ;size:1
                                           ;@Uart_send_Function T0CR                      Allocated to registers ;size:1
                                           ;@Uart_send_Function T0CNT                     Allocated to registers ;size:1
                                           ;@Uart_send_Function T0LOAD                    Allocated to registers ;size:1
                                           ;@Uart_send_Function T0DATA                    Allocated to registers ;size:1
                                           ;@Uart_send_Function T1CR                      Allocated to registers ;size:1
                                           ;@Uart_send_Function T1CNT                     Allocated to registers ;size:1
                                           ;@Uart_send_Function T1LOAD                    Allocated to registers ;size:1
                                           ;@Uart_send_Function T1DATA                    Allocated to registers ;size:1
                                           ;@Uart_send_Function T2CR                      Allocated to registers ;size:1
                                           ;@Uart_send_Function T2CNT                     Allocated to registers ;size:1
                                           ;@Uart_send_Function T2LOAD                    Allocated to registers ;size:1
                                           ;@Uart_send_Function T2DATA                    Allocated to registers ;size:1
                                           ;@Uart_send_Function T3CR                      Allocated to registers ;size:1
                                           ;@Uart_send_Function T3CNT                     Allocated to registers ;size:1
                                           ;@Uart_send_Function T3LOAD                    Allocated to registers ;size:1
                                           ;@Uart_send_Function PWM0DR                    Allocated to registers ;size:1
                                           ;@Uart_send_Function PWM1DR                    Allocated to registers ;size:1
                                           ;@Uart_send_Function PWM2DR                    Allocated to registers ;size:1
                                           ;@Uart_send_Function PWMCR0                    Allocated to registers ;size:1
                                           ;@Uart_send_Function PWMCR1                    Allocated to registers ;size:1
                                           ;@Uart_send_Function OSCMR                     Allocated to registers ;size:1
                                           ;@Uart_send_Function LVDCR                     Allocated to registers ;size:1
                                           ;@Uart_send_Function ADCR0                     Allocated to registers ;size:1
                                           ;@Uart_send_Function ADCR1                     Allocated to registers ;size:1
                                           ;@Uart_send_Function ADCR2                     Allocated to registers ;size:1
                                           ;@Uart_send_Function OSADJCR                   Allocated to registers ;size:1
                                           ;@Uart_send_Function ADRH                      Allocated to registers ;size:1
                                           ;@Uart_send_Function ADRL                      Allocated to registers ;size:1
                                           ;@Uart_send_Function ADIOS0                    Allocated to registers ;size:1
                                           ;@Uart_send_Function ADIOS1                    Allocated to registers ;size:1
                                           ;@Uart_send_Function PMOD                      Allocated to registers ;size:1
                                           ;@Uart_send_Function PWMCR3                    Allocated to registers ;size:1
                                           ;@Uart_send_Function PWMCR2                    Allocated to registers ;size:1
                                           ;@Uart_send_Function PFRCAUX                   Allocated to registers ;size:1
                                           ;@Uart_send_Function HIRCCAL                   Allocated to registers ;size:1
                                           ;@end Allocation info for local variables in function 'Uart_send_Function';
                                           ;@Allocation info for local variables in function 'Uart_getsend_func'
                                           ;@Uart_getsend_func len                       Allocated to registers r0x102A ;size:1
                                           ;@Uart_getsend_func data                      Allocated to registers r0x1029 r0x1028 r0x1027 ;size:3
                                           ;@Uart_getsend_func i                         Allocated to registers r0x102B ;size:1
                                           ;@end Allocation info for local variables in function 'Uart_getsend_func';
                                           ;@Allocation info for local variables in function 'Sys_Init'
                                           ;@end Allocation info for local variables in function 'Sys_Init';
                                           ;@Allocation info for local variables in function 'ADC_cul'
                                           ;@end Allocation info for local variables in function 'ADC_cul';
                                           ;@Allocation info for local variables in function 'VIN_Scan'
                                           ;@end Allocation info for local variables in function 'VIN_Scan';
                                           ;@Allocation info for local variables in function 'LED_Scan'
                                           ;@end Allocation info for local variables in function 'LED_Scan';
                                           ;@Allocation info for local variables in function 'main'
                                           ;@end Allocation info for local variables in function 'main';
                                           ;@Allocation info for local variables in function 'Scan_Key'
                                           ;@end Allocation info for local variables in function 'Scan_Key';
                                           ;@Allocation info for local variables in function 'Sleep_Func'
                                           ;@end Allocation info for local variables in function 'Sleep_Func';
                                           ;@Allocation info for local variables in function 'int_isr'
                                           ;@end Allocation info for local variables in function 'int_isr';
                                           
                                           ;--------------------------------------------------------
                                           ; overlayable items in internal ram 
                                           ;--------------------------------------------------------
                                           ;	udata_ovr
                                           ;--------------------------------------------------------
                                           ; reset vector 
                                           ;--------------------------------------------------------
                                           STARTUP	code 0x0000
                                           	goto	_main
                                           ;--------------------------------------------------------
                                           ; interrupt and initialization code
                                           ;--------------------------------------------------------
                                           c_interrupt	code	0x8
                                           __sdcc_interrupt
                                           ;***
                                           ;  pBlock Stats: dbName = I
                                           ;***
                                           ;entry:  _int_isr	;Function start
                                           ; 0 exit points
                                           ;functions called:
                                           ;   _Uart_send_Function
                                           ;   _Uart_send_Function
                                           ;2 compiler assigned registers:
                                           ;   r0x103F
                                           ;   r0x1040
                                           ;; Starting pCode block
                                           _int_isr	;Function start
                                           ; 0 exit points
                                           ;	.line	387; "MC32P7351.c"	__endasm;
                                           	movra	_abuf
                                           	swapar	_PFLAG
                                           	movra	_statusbuf
                                           ;	.line	389; "MC32P7351.c"	if (T0IF & T0IE)   	//104us
                                           	CLRR	r0x103F
                                           	JBCLR	_INTFbits,0
                                           	INCR	r0x103F
                                           	CLRR	r0x1040
                                           	JBCLR	_INTEbits,0
                                           	INCR	r0x1040
                                           	MOVAR	r0x1040
                                           	ANDRA	r0x103F
                                           	MOVAI	0x00
                                           	ORAR	r0x103F
                                           	JBCLR	PFLAG,2
                                           	GOTO	_00241_DS_
                                           ;	.line	392; "MC32P7351.c"	T0IF = 0;
                                           	BCLR	_INTFbits,0
                                           ;	.line	393; "MC32P7351.c"	Uart_send_Function();
                                           	CALL	_Uart_send_Function
                                           _00241_DS_
                                           ;	.line	396; "MC32P7351.c"	if (T1IF & T1IE)   	//2ms
                                           	CLRR	r0x103F
                                           	JBCLR	_INTFbits,1
                                           	INCR	r0x103F
                                           	CLRR	r0x1040
                                           	JBCLR	_INTEbits,1
                                           	INCR	r0x1040
                                           	MOVAR	r0x1040
                                           	ANDRA	r0x103F
                                           	MOVAI	0x00
                                           	ORAR	r0x103F
                                           	JBCLR	PFLAG,2
                                           	GOTO	_00245_DS_
                                           ;	.line	399; "MC32P7351.c"	T1IF = 0;
                                           	BCLR	_INTFbits,1
                                           ;	.line	400; "MC32P7351.c"	T1_flag    	=  	1;
                                           	BSET	_Flag1,1
                                           ;	.line	401; "MC32P7351.c"	int_time0++;
                                           	INCR	_int_time0
                                           ;;swapping arguments (AOP_TYPEs 1/3)
                                           ;;unsigned compare: left >= lit(0x7E=126), size=1
                                           ;	.line	402; "MC32P7351.c"	if(int_time0>125)
                                           	MOVAI	0x7e
                                           	RSUBAR	_int_time0
                                           	JBSET	PFLAG,0
                                           	GOTO	_00245_DS_
                                           ;;genSkipc:3291: created from rifx:013B5EFC
                                           ;	.line	404; "MC32P7351.c"	testflag= !testflag;
                                           	MOVAR	_testflag
                                           	MOVAI	0x00
                                           	JBCLR	PFLAG,2
                                           	MOVAI	0x01
                                           	MOVRA	_testflag
                                           	MOVRA	r0x103F
                                           ;;108	MOVAR	r0x103F
                                           ;	.line	405; "MC32P7351.c"	ADCScan_F = 1;
                                           	MOVAI	0x01
                                           	MOVRA	_ADCScan_F
                                           ;	.line	407; "MC32P7351.c"	int_time0 = 0;
                                           	CLRR	_int_time0
                                           _00245_DS_
                                           ;	.line	428; "MC32P7351.c"	__endasm;
                                           	swapar	_statusbuf
                                           	movra	_PFLAG
                                           	swapr	_abuf
                                           	swapar	_abuf
                                           END_OF_INTERRUPT
                                           ;	.line	430; "MC32P7351.c"	}
                                           	RETIE	
                                           
                                           ;--------------------------------------------------------
                                           ; code
                                           ;--------------------------------------------------------
                                           code_MC32P7351	code
                                           ;***
                                           ;  pBlock Stats: dbName = M
                                           ;***
                                           ;entry:  _main	;Function start
                                           ; 2 exit points
                                           ;has an exit
                                           ;functions called:
                                           ;   _Sys_Init
                                           ;   _Set_ADC_Channel
                                           ;   _LED_Scan
                                           ;   _VIN_Scan
                                           ;   _ADC_cul
                                           ;   _Sys_Init
                                           ;   _Set_ADC_Channel
                                           ;   _LED_Scan
                                           ;   _VIN_Scan
                                           ;   _ADC_cul
                                           ;; Starting pCode block
                                           _main	;Function start
                                           ; 2 exit points
                                           ;	.line	275; "MC32P7351.c"	Sys_Init();
                                           	CALL	_Sys_Init
                                           ;;gen.c:6570: size=0, offset=0, AOP_TYPE(res)=8
                                           ;	.line	276; "MC32P7351.c"	UARTUser.Uart_ov = 1;
                                           	MOVAI	0x01
                                           	MOVRA	(_UARTUser + 1)
                                           ;;gen.c:6570: size=0, offset=0, AOP_TYPE(res)=8
                                           ;	.line	277; "MC32P7351.c"	UARTUser.Uart_send_F = 1;
                                           	MOVAI	0x01
                                           	MOVRA	(_UARTUser + 2)
                                           ;	.line	278; "MC32P7351.c"	Set_ADC_Channel(3); 
                                           	MOVAI	0x03
                                           	CALL	_Set_ADC_Channel
                                           ;;gen.c:6570: size=1, offset=0, AOP_TYPE(res)=8
                                           ;	.line	279; "MC32P7351.c"	ChargeTrue.I_Target = 102;
                                           	MOVAI	0x66
                                           	MOVRA	(_ChargeTrue + 4)
                                           ;;gen.c:6570: size=0, offset=1, AOP_TYPE(res)=8
                                           	CLRR	(_ChargeTrue + 5)
                                           _00218_DS_
                                           ;	.line	282; "MC32P7351.c"	ClrWdt();
                                           	clrwdt	
                                           ;	.line	283; "MC32P7351.c"	LED_Scan();
                                           	CALL	_LED_Scan
                                           ;	.line	284; "MC32P7351.c"	VIN_Scan();
                                           	CALL	_VIN_Scan
                                           ;	.line	286; "MC32P7351.c"	ADC_cul();
                                           	CALL	_ADC_cul
                                           	GOTO	_00218_DS_
                                           ;	.line	316; "MC32P7351.c"	}
                                           	RETURN	
                                           ; exit point of _main
                                           
                                           ;***
                                           ;  pBlock Stats: dbName = C
                                           ;***
                                           ;entry:  _Sleep_Func	;Function start
                                           ; 2 exit points
                                           ;has an exit
                                           ;; Starting pCode block
                                           _Sleep_Func	;Function start
                                           ; 2 exit points
                                           ;	.line	348; "MC32P7351.c"	if(!ON_flag)
                                           	JBCLR	_Flag2,0
                                           	GOTO	_00233_DS_
                                           ;	.line	350; "MC32P7351.c"	if(++sleep_time >= 100) //2ms*100 =200ms
                                           	INCR	_sleep_time
                                           ;;unsigned compare: left < lit(0x64=100), size=1
                                           	MOVAI	0x64
                                           	RSUBAR	_sleep_time
                                           	JBSET	PFLAG,0
                                           	GOTO	_00235_DS_
                                           ;;genSkipc:3291: created from rifx:013B5EFC
                                           ;	.line	352; "MC32P7351.c"	sleep_time = 0;
                                           	CLRR	_sleep_time
                                           ;	.line	353; "MC32P7351.c"	GIE = 0;
                                           	BCLR	_MCRbits,7
                                           ;	.line	354; "MC32P7351.c"	KBIF = 0;
                                           	BCLR	_INTFbits,4
                                           ;	.line	355; "MC32P7351.c"	KBIE = 1;
                                           	BSET	_INTEbits,4
                                           ;	.line	357; "MC32P7351.c"	Nop();
                                           	nop	
                                           ;	.line	358; "MC32P7351.c"	Nop();
                                           	nop	
                                           ;	.line	359; "MC32P7351.c"	Stop();
                                           	stop	
                                           ;	.line	360; "MC32P7351.c"	Nop();
                                           	nop	
                                           ;	.line	361; "MC32P7351.c"	Nop();
                                           	nop	
                                           ;	.line	362; "MC32P7351.c"	KBIE = 0;
                                           	BCLR	_INTEbits,4
                                           ;	.line	363; "MC32P7351.c"	KBIF = 0;
                                           	BCLR	_INTFbits,4
                                           ;	.line	364; "MC32P7351.c"	GIE = 1;
                                           	BSET	_MCRbits,7
                                           	GOTO	_00235_DS_
                                           _00233_DS_
                                           ;	.line	369; "MC32P7351.c"	sleep_time = 0;
                                           	CLRR	_sleep_time
                                           _00235_DS_
                                           ;	.line	371; "MC32P7351.c"	}
                                           	RETURN	
                                           ; exit point of _Sleep_Func
                                           
                                           ;***
                                           ;  pBlock Stats: dbName = C
                                           ;***
                                           ;entry:  _Scan_Key	;Function start
                                           ; 2 exit points
                                           ;has an exit
                                           ;1 compiler assigned register :
                                           ;   r0x1026
                                           ;; Starting pCode block
                                           _Scan_Key	;Function start
                                           ; 2 exit points
                                           ;	.line	326; "MC32P7351.c"	key_per = key_cur; 	
                                           	MOVAR	_key_cur
                                           	MOVRA	_key_per
                                           ;	.line	328; "MC32P7351.c"	key_cur = (~IOP1)&0x08;    	   	//
                                           	COMAR	_IOP1
                                           	MOVRA	r0x1026
                                           	MOVAI	0x08
                                           	ANDAR	r0x1026
                                           	MOVRA	_key_cur
                                           ;	.line	330; "MC32P7351.c"	key_down = (~key_per) & key_cur;
                                           	COMAR	_key_per
                                           	MOVRA	r0x1026
                                           	MOVAR	_key_cur
                                           	ANDAR	r0x1026
                                           	MOVRA	_key_down
                                           ;	.line	331; "MC32P7351.c"	key_keep = key_per & key_cur;
                                           	MOVAR	_key_cur
                                           	ANDAR	_key_per
                                           	MOVRA	_key_keep
                                           ;	.line	333; "MC32P7351.c"	if(key_down & Key)
                                           	MOVAR	_key_down
                                           	MOVRA	r0x1026
                                           	JBSET	r0x1026,3
                                           	GOTO	_00225_DS_
                                           ;	.line	335; "MC32P7351.c"	key_keep = 1;
                                           	MOVAI	0x01
                                           	MOVRA	_key_keep
                                           _00225_DS_
                                           ;	.line	338; "MC32P7351.c"	}
                                           	RETURN	
                                           ; exit point of _Scan_Key
                                           
                                           ;***
                                           ;  pBlock Stats: dbName = C
                                           ;***
                                           ;entry:  _LED_Scan	;Function start
                                           ; 2 exit points
                                           ;has an exit
                                           ;functions called:
                                           ;   _delay
                                           ;   _delay
                                           ;   _delay
                                           ;   _delay
                                           ;   _delay
                                           ;   _delay
                                           ;2 compiler assigned registers:
                                           ;   STK00
                                           ;   r0x1027
                                           ;; Starting pCode block
                                           _LED_Scan	;Function start
                                           ; 2 exit points
                                           ;	.line	217; "MC32P7351.c"	OEP1 |= DEF_SET_BIT6; // io 1:out  0:in
                                           	BSET	_OEP1,6
                                           ;	.line	218; "MC32P7351.c"	OEP0 |= DEF_SET_BIT0; // io 1:out  0:in
                                           	BSET	_OEP0,0
                                           ;	.line	219; "MC32P7351.c"	PUP0 = 0x00;
                                           	CLRR	_PUP0
                                           ;	.line	220; "MC32P7351.c"	if(Flag1.bits.bit0)
                                           	JBSET	_Flag1,0
                                           	GOTO	_00202_DS_
                                           ;	.line	222; "MC32P7351.c"	PIN1 = 1;
                                           	BSET	_IOP0bits,0
                                           ;	.line	223; "MC32P7351.c"	PIN2 = 0;
                                           	BCLR	_IOP1bits,6
                                           ;	.line	224; "MC32P7351.c"	delay(350);
                                           	MOVAI	0x5e
                                           	MOVRA	STK00
                                           	MOVAI	0x01
                                           	CALL	_delay
                                           	GOTO	_00203_DS_
                                           _00202_DS_
                                           ;	.line	228; "MC32P7351.c"	if(testflag)
                                           	MOVAI	0x00
                                           	ORAR	_testflag
                                           	JBCLR	PFLAG,2
                                           	GOTO	_00199_DS_
                                           ;	.line	230; "MC32P7351.c"	PIN1 = 0;
                                           	BCLR	_IOP0bits,0
                                           ;	.line	231; "MC32P7351.c"	PIN2 = 1;
                                           	BSET	_IOP1bits,6
                                           	GOTO	_00200_DS_
                                           _00199_DS_
                                           ;	.line	236; "MC32P7351.c"	PIN1 = 0;
                                           	BCLR	_IOP0bits,0
                                           ;	.line	237; "MC32P7351.c"	PIN2 = 0;
                                           	BCLR	_IOP1bits,6
                                           _00200_DS_
                                           ;	.line	240; "MC32P7351.c"	delay(350);
                                           	MOVAI	0x5e
                                           	MOVRA	STK00
                                           	MOVAI	0x01
                                           	CALL	_delay
                                           _00203_DS_
                                           ;	.line	243; "MC32P7351.c"	OEP1 &= DEF_CLR_BIT6; // io 1:out  0:in
                                           	BCLR	_OEP1,6
                                           ;	.line	244; "MC32P7351.c"	OEP0 &= DEF_CLR_BIT0; // io 1:out  0:in
                                           	BCLR	_OEP0,0
                                           ;	.line	245; "MC32P7351.c"	PUP0 = 0x01;
                                           	MOVAI	0x01
                                           	MOVRA	_PUP0
                                           ;	.line	246; "MC32P7351.c"	delay(4);
                                           	MOVAI	0x04
                                           	MOVRA	STK00
                                           	MOVAI	0x00
                                           	CALL	_delay
                                           ;	.line	247; "MC32P7351.c"	if(!KEYPIN)
                                           	JBCLR	_IOP0bits,0
                                           	GOTO	_00210_DS_
                                           ;	.line	249; "MC32P7351.c"	if(keytrue.key_cnt <100)keytrue.key_cnt++;
                                           	MOVAR	(_keytrue + 0)
                                           	MOVRA	r0x1027
                                           ;;unsigned compare: left < lit(0x64=100), size=1
                                           	MOVAI	0x64
                                           	RSUBAR	r0x1027
                                           	JBCLR	PFLAG,0
                                           	GOTO	_00205_DS_
                                           ;;genSkipc:3291: created from rifx:013B5EFC
                                           	INCR	r0x1027
                                           ;;gen.c:6570: size=0, offset=0, AOP_TYPE(res)=8
                                           	MOVAR	r0x1027
                                           	MOVRA	(_keytrue + 0)
                                           _00205_DS_
                                           ;	.line	250; "MC32P7351.c"	if(keytrue.key_cnt>=25 && keytrue.key_release)
                                           	MOVAR	(_keytrue + 0)
                                           	MOVRA	r0x1027
                                           ;;unsigned compare: left < lit(0x19=25), size=1
                                           	MOVAI	0x19
                                           	RSUBAR	r0x1027
                                           	JBSET	PFLAG,0
                                           	GOTO	_00212_DS_
                                           ;;genSkipc:3291: created from rifx:013B5EFC
                                           	MOVAR	(_keytrue + 1)
                                           	MOVRA	r0x1027
                                           	MOVAI	0x00
                                           	ORAR	r0x1027
                                           	JBCLR	PFLAG,2
                                           	GOTO	_00212_DS_
                                           ;;gen.c:6570: size=0, offset=0, AOP_TYPE(res)=8
                                           ;	.line	252; "MC32P7351.c"	keytrue.key_release = 0;
                                           	CLRR	(_keytrue + 1)
                                           ;	.line	253; "MC32P7351.c"	Flag1.bits.bit0 = ~Flag1.bits.bit0;
                                           	CLRR	r0x1027
                                           	JBCLR	_Flag1,0
                                           	INCR	r0x1027
                                           	COMAR	r0x1027
                                           	MOVRA	r0x1027
                                           	RRAR	r0x1027
                                           	JBSET	PFLAG,0
                                           	BCLR	_Flag1,0
                                           	JBCLR	PFLAG,0
                                           	BSET	_Flag1,0
                                           	GOTO	_00212_DS_
                                           ;;gen.c:6570: size=0, offset=0, AOP_TYPE(res)=8
                                           _00210_DS_
                                           ;	.line	259; "MC32P7351.c"	keytrue.key_cnt = 0;
                                           	CLRR	(_keytrue + 0)
                                           ;;gen.c:6570: size=0, offset=0, AOP_TYPE(res)=8
                                           ;	.line	260; "MC32P7351.c"	keytrue.key_release = 1;
                                           	MOVAI	0x01
                                           	MOVRA	(_keytrue + 1)
                                           _00212_DS_
                                           ;	.line	263; "MC32P7351.c"	}
                                           	RETURN	
                                           ; exit point of _LED_Scan
                                           
                                           ;***
                                           ;  pBlock Stats: dbName = C
                                           ;***
                                           ;entry:  _VIN_Scan	;Function start
                                           ; 2 exit points
                                           ;has an exit
                                           ;1 compiler assigned register :
                                           ;   r0x1027
                                           ;; Starting pCode block
                                           _VIN_Scan	;Function start
                                           ; 2 exit points
                                           ;	.line	195; "MC32P7351.c"	if(VIN_5V)
                                           	JBSET	_IOP1bits,3
                                           	GOTO	_00191_DS_
                                           ;	.line	197; "MC32P7351.c"	if(VINtrue.key_cnt <100)VINtrue.key_cnt++;
                                           	MOVAR	(_VINtrue + 0)
                                           	MOVRA	r0x1027
                                           ;;unsigned compare: left < lit(0x64=100), size=1
                                           	MOVAI	0x64
                                           	RSUBAR	r0x1027
                                           	JBCLR	PFLAG,0
                                           	GOTO	_00186_DS_
                                           ;;genSkipc:3291: created from rifx:013B5EFC
                                           	INCR	r0x1027
                                           ;;gen.c:6570: size=0, offset=0, AOP_TYPE(res)=8
                                           	MOVAR	r0x1027
                                           	MOVRA	(_VINtrue + 0)
                                           _00186_DS_
                                           ;	.line	198; "MC32P7351.c"	if(VINtrue.key_cnt>=25 && VINtrue.key_release)
                                           	MOVAR	(_VINtrue + 0)
                                           	MOVRA	r0x1027
                                           ;;unsigned compare: left < lit(0x19=25), size=1
                                           	MOVAI	0x19
                                           	RSUBAR	r0x1027
                                           	JBSET	PFLAG,0
                                           	GOTO	_00193_DS_
                                           ;;genSkipc:3291: created from rifx:013B5EFC
                                           	MOVAR	(_VINtrue + 1)
                                           	MOVRA	r0x1027
                                           	MOVAI	0x00
                                           	ORAR	r0x1027
                                           	JBCLR	PFLAG,2
                                           	GOTO	_00193_DS_
                                           ;;gen.c:6570: size=0, offset=0, AOP_TYPE(res)=8
                                           ;	.line	200; "MC32P7351.c"	VINtrue.key_release = 0;
                                           	CLRR	(_VINtrue + 1)
                                           ;	.line	201; "MC32P7351.c"	charge_F = 1;
                                           	MOVAI	0x01
                                           	MOVRA	_charge_F
                                           	GOTO	_00193_DS_
                                           ;;gen.c:6570: size=0, offset=0, AOP_TYPE(res)=8
                                           _00191_DS_
                                           ;	.line	206; "MC32P7351.c"	VINtrue.key_cnt = 0;
                                           	CLRR	(_VINtrue + 0)
                                           ;;gen.c:6570: size=0, offset=0, AOP_TYPE(res)=8
                                           ;	.line	207; "MC32P7351.c"	VINtrue.key_release = 1;
                                           	MOVAI	0x01
                                           	MOVRA	(_VINtrue + 1)
                                           ;	.line	208; "MC32P7351.c"	charge_F = 0;
                                           	CLRR	_charge_F
                                           _00193_DS_
                                           ;	.line	210; "MC32P7351.c"	}
                                           	RETURN	
                                           ; exit point of _VIN_Scan
                                           
                                           ;***
                                           ;  pBlock Stats: dbName = C
                                           ;***
                                           ;entry:  _ADC_cul	;Function start
                                           ; 2 exit points
                                           ;has an exit
                                           ;functions called:
                                           ;   _ADC_Get_Value_Average
                                           ;   _Set_ADC_Channel
                                           ;   _delay
                                           ;   _ADC_Get_Value_Average
                                           ;   _Set_ADC_Channel
                                           ;   _Uart_getsend_func
                                           ;   _ADC_Get_Value_Average
                                           ;   _Set_ADC_Channel
                                           ;   _delay
                                           ;   _ADC_Get_Value_Average
                                           ;   _Set_ADC_Channel
                                           ;   _Uart_getsend_func
                                           ;11 compiler assigned registers:
                                           ;   r0x1032
                                           ;   STK00
                                           ;   r0x1033
                                           ;   r0x1034
                                           ;   r0x1035
                                           ;   r0x1036
                                           ;   STK02
                                           ;   STK01
                                           ;   r0x1037
                                           ;   r0x1038
                                           ;   r0x1039
                                           ;; Starting pCode block
                                           _ADC_cul	;Function start
                                           ; 2 exit points
                                           ;	.line	138; "MC32P7351.c"	if(ADCScan_F)
                                           	MOVAI	0x00
                                           	ORAR	_ADCScan_F
                                           	JBCLR	PFLAG,2
                                           	GOTO	_00154_DS_
                                           ;	.line	140; "MC32P7351.c"	ADCScan_F = 0;
                                           	CLRR	_ADCScan_F
                                           ;	.line	141; "MC32P7351.c"	ChargeTrue.BAT_Voltage = ADC_Get_Value_Average();
                                           	CALL	_ADC_Get_Value_Average
                                           	MOVRA	r0x1032
                                           	MOVAR	STK00
                                           	MOVRA	(_ChargeTrue + 0)
                                           	MOVRA	r0x1033
                                           ;;gen.c:6570: size=1, offset=0, AOP_TYPE(res)=8
                                           ;;117	MOVAR	r0x1033
                                           ;;gen.c:6570: size=0, offset=1, AOP_TYPE(res)=8
                                           	MOVAR	r0x1032
                                           	MOVRA	(_ChargeTrue + 1)
                                           ;	.line	142; "MC32P7351.c"	Set_ADC_Channel(3);
                                           	MOVAI	0x03
                                           	CALL	_Set_ADC_Channel
                                           ;	.line	143; "MC32P7351.c"	delay(2);
                                           	MOVAI	0x02
                                           	MOVRA	STK00
                                           	MOVAI	0x00
                                           	CALL	_delay
                                           ;	.line	144; "MC32P7351.c"	buff[0] = ChargeTrue.BAT_Voltage;
                                           	MOVAR	(_ChargeTrue + 0)
                                           	MOVRA	(_buff + 0)
                                           	MOVRA	r0x1033
                                           ;;gen.c:6570: size=0, offset=0, AOP_TYPE(res)=8
                                           ;;116	MOVAR	r0x1033
                                           ;	.line	145; "MC32P7351.c"	buff[1] = ChargeTrue.BAT_Voltage >> 8;
                                           	MOVAR	(_ChargeTrue + 0)
                                           	MOVRA	r0x1033
                                           	MOVAR	(_ChargeTrue + 1)
                                           	MOVRA	r0x1033
                                           	MOVRA	r0x1034
                                           	MOVRA	r0x1032
                                           ;;101	MOVAR	r0x1032
                                           	CLRR	r0x1035
                                           ;;112	MOVAR	r0x1034
                                           ;;gen.c:6570: size=0, offset=0, AOP_TYPE(res)=8
                                           	MOVAR	r0x1033
                                           	MOVRA	(_buff + 1)
                                           ;	.line	146; "MC32P7351.c"	ChargeTrue.I_Voltage = ADC_Get_Value_Average();
                                           	CALL	_ADC_Get_Value_Average
                                           	MOVRA	r0x1034
                                           	MOVAR	STK00
                                           	MOVRA	(_ChargeTrue + 2)
                                           	MOVRA	r0x1033
                                           ;;gen.c:6570: size=1, offset=0, AOP_TYPE(res)=8
                                           ;;115	MOVAR	r0x1033
                                           ;;gen.c:6570: size=0, offset=1, AOP_TYPE(res)=8
                                           	MOVAR	r0x1034
                                           	MOVRA	(_ChargeTrue + 3)
                                           ;	.line	147; "MC32P7351.c"	Set_ADC_Channel(10);
                                           	MOVAI	0x0a
                                           	CALL	_Set_ADC_Channel
                                           ;	.line	148; "MC32P7351.c"	buff[2] = ChargeTrue.I_Voltage;
                                           	MOVAR	(_ChargeTrue + 2)
                                           	MOVRA	(_buff + 2)
                                           	MOVRA	r0x1033
                                           ;;gen.c:6570: size=0, offset=0, AOP_TYPE(res)=8
                                           ;;114	MOVAR	r0x1033
                                           ;	.line	149; "MC32P7351.c"	buff[3] = ChargeTrue.I_Voltage >> 8;
                                           	MOVAR	(_ChargeTrue + 2)
                                           	MOVRA	r0x1033
                                           	MOVAR	(_ChargeTrue + 3)
                                           	MOVRA	(_buff + 3)
                                           	MOVRA	r0x1033
                                           	MOVRA	r0x1035
                                           	MOVRA	r0x1034
                                           ;;102	MOVAR	r0x1034
                                           	CLRR	r0x1036
                                           ;;103	MOVAR	r0x1035
                                           ;;gen.c:6570: size=0, offset=0, AOP_TYPE(res)=8
                                           ;;113	MOVAR	r0x1033
                                           ;;gen.c:6570: size=0, offset=0, AOP_TYPE(res)=8
                                           ;	.line	150; "MC32P7351.c"	buff[4] = 0;
                                           	CLRR	(_buff + 4)
                                           ;;gen.c:6570: size=0, offset=0, AOP_TYPE(res)=8
                                           ;	.line	151; "MC32P7351.c"	buff[5] = charge_F;
                                           	MOVAR	_charge_F
                                           	MOVRA	(_buff + 5)
                                           ;	.line	152; "MC32P7351.c"	Uart_getsend_func(buff,6);
                                           	MOVAI	high (_buff + 0)
                                           	MOVRA	r0x1035
                                           	MOVAI	(_buff + 0)
                                           	MOVRA	r0x1033
                                           	CLRR	r0x1036
                                           	MOVAI	0x06
                                           	MOVRA	STK02
                                           	MOVAR	r0x1033
                                           	MOVRA	STK01
                                           	MOVAR	r0x1035
                                           	MOVRA	STK00
                                           	MOVAI	0x00
                                           	CALL	_Uart_getsend_func
                                           ;	.line	168; "MC32P7351.c"	if(ChargeTrue.I_Voltage < ChargeTrue.I_Target)
                                           	MOVAR	(_ChargeTrue + 2)
                                           	MOVRA	r0x1033
                                           	MOVAR	(_ChargeTrue + 3)
                                           	MOVRA	r0x1035
                                           	MOVAR	(_ChargeTrue + 4)
                                           	MOVRA	r0x1036
                                           	MOVAR	(_ChargeTrue + 5)
                                           	MOVRA	r0x1037
                                           	MOVAR	r0x1037
                                           	RSUBAR	r0x1035
                                           	JBSET	PFLAG,2
                                           	GOTO	_00180_DS_
                                           	MOVAR	r0x1036
                                           	RSUBAR	r0x1033
                                           _00180_DS_
                                           	JBCLR	PFLAG,0
                                           	GOTO	_00150_DS_
                                           ;;genSkipc:3291: created from rifx:013B5EFC
                                           ;	.line	170; "MC32P7351.c"	ChargeTrue.PWMDuty_Target = ChargeTrue.I_Target - ChargeTrue.I_Voltage;
                                           	MOVAR	r0x1036
                                           	MOVRA	r0x1038
                                           ;;107	MOVAR	r0x1033
                                           ;;106	MOVAR	r0x1039
                                           	MOVAR	r0x1033
                                           	MOVRA	r0x1039
                                           	RSUBRA	r0x1038
                                           ;;gen.c:6570: size=0, offset=0, AOP_TYPE(res)=8
                                           	MOVAR	r0x1038
                                           	MOVRA	(_ChargeTrue + 6)
                                           ;;swapping arguments (AOP_TYPEs 1/2)
                                           ;;unsigned compare: left >= lit(0x9=9), size=1
                                           ;	.line	171; "MC32P7351.c"	if(ChargeTrue.PWMDuty_Target >8)//wpm
                                           	MOVAI	0x09
                                           	RSUBAR	r0x1038
                                           	JBSET	PFLAG,0
                                           	GOTO	_00154_DS_
                                           ;;genSkipc:3291: created from rifx:013B5EFC
                                           ;	.line	173; "MC32P7351.c"	if(ChargeTrue.PWMDuty_Now<155)
                                           	MOVAR	(_ChargeTrue + 7)
                                           	MOVRA	r0x1038
                                           ;;unsigned compare: left < lit(0x9B=155), size=1
                                           	MOVAI	0x9b
                                           	RSUBAR	r0x1038
                                           	JBCLR	PFLAG,0
                                           	GOTO	_00142_DS_
                                           ;;genSkipc:3291: created from rifx:013B5EFC
                                           ;	.line	174; "MC32P7351.c"	ChargeTrue.PWMDuty_Now += 1;
                                           	MOVAR	r0x1038
                                           	MOVRA	r0x1039
                                           	INCAR	r0x1039
                                           	MOVRA	(_ChargeTrue + 7)
                                           	MOVRA	r0x1038
                                           ;;gen.c:6570: size=0, offset=0, AOP_TYPE(res)=8
                                           ;;105	MOVAR	r0x1038
                                           _00142_DS_
                                           ;	.line	175; "MC32P7351.c"	T2DATA = ChargeTrue.PWMDuty_Now;
                                           	MOVAR	(_ChargeTrue + 7)
                                           	MOVRA	_T2DATA
                                           	GOTO	_00154_DS_
                                           _00150_DS_
                                           ;	.line	180; "MC32P7351.c"	ChargeTrue.PWMDuty_Target = ChargeTrue.I_Voltage - ChargeTrue.I_Target;
                                           	MOVAR	r0x1033
                                           	MOVRA	r0x1038
                                           ;;111	MOVAR	r0x1036
                                           ;;110	MOVAR	r0x1033
                                           	MOVAR	r0x1036
                                           	MOVRA	r0x1033
                                           	RSUBAR	r0x1038
                                           	MOVRA	(_ChargeTrue + 6)
                                           	MOVRA	r0x1036
                                           ;;gen.c:6570: size=0, offset=0, AOP_TYPE(res)=8
                                           ;;104	MOVAR	r0x1036
                                           ;;swapping arguments (AOP_TYPEs 1/2)
                                           ;;unsigned compare: left >= lit(0x9=9), size=1
                                           ;	.line	181; "MC32P7351.c"	if(ChargeTrue.PWMDuty_Target >8)//wpm
                                           	MOVAI	0x09
                                           	RSUBAR	r0x1036
                                           	JBSET	PFLAG,0
                                           	GOTO	_00154_DS_
                                           ;;genSkipc:3291: created from rifx:013B5EFC
                                           ;	.line	183; "MC32P7351.c"	if(ChargeTrue.PWMDuty_Now >2)
                                           	MOVAR	(_ChargeTrue + 7)
                                           	MOVRA	r0x1033
                                           ;;swapping arguments (AOP_TYPEs 1/2)
                                           ;;unsigned compare: left >= lit(0x3=3), size=1
                                           	MOVAI	0x03
                                           	RSUBAR	r0x1033
                                           	JBSET	PFLAG,0
                                           	GOTO	_00146_DS_
                                           ;;genSkipc:3291: created from rifx:013B5EFC
                                           ;	.line	184; "MC32P7351.c"	ChargeTrue.PWMDuty_Now -= 1;
                                           	MOVAR	r0x1033
                                           	MOVRA	r0x1036
                                           	DECAR	r0x1036
                                           	MOVRA	(_ChargeTrue + 7)
                                           	MOVRA	r0x1033
                                           ;;gen.c:6570: size=0, offset=0, AOP_TYPE(res)=8
                                           ;;100	MOVAR	r0x1033
                                           _00146_DS_
                                           ;	.line	185; "MC32P7351.c"	T2DATA = ChargeTrue.PWMDuty_Now;
                                           	MOVAR	(_ChargeTrue + 7)
                                           	MOVRA	_T2DATA
                                           _00154_DS_
                                           ;	.line	191; "MC32P7351.c"	}
                                           	RETURN	
                                           ; exit point of _ADC_cul
                                           
                                           ;***
                                           ;  pBlock Stats: dbName = C
                                           ;***
                                           ;entry:  _Sys_Init	;Function start
                                           ; 2 exit points
                                           ;has an exit
                                           ;functions called:
                                           ;   _CLR_RAM
                                           ;   _IO_Init
                                           ;   _TIMER0_INT_Init
                                           ;   _TIMER1_INT_Init
                                           ;   _TIMER2_PWM_Init
                                           ;   _ADC_Init
                                           ;   _CLR_RAM
                                           ;   _IO_Init
                                           ;   _TIMER0_INT_Init
                                           ;   _TIMER1_INT_Init
                                           ;   _TIMER2_PWM_Init
                                           ;   _ADC_Init
                                           ;; Starting pCode block
                                           _Sys_Init	;Function start
                                           ; 2 exit points
                                           ;	.line	112; "MC32P7351.c"	GIE = 0;
                                           	BCLR	_MCRbits,7
                                           ;	.line	113; "MC32P7351.c"	CLR_RAM();
                                           	CALL	_CLR_RAM
                                           ;	.line	114; "MC32P7351.c"	IO_Init();
                                           	CALL	_IO_Init
                                           ;	.line	115; "MC32P7351.c"	TIMER0_INT_Init();     	
                                           	CALL	_TIMER0_INT_Init
                                           ;	.line	116; "MC32P7351.c"	TIMER1_INT_Init();
                                           	CALL	_TIMER1_INT_Init
                                           ;	.line	121; "MC32P7351.c"	TIMER2_PWM_Init();
                                           	CALL	_TIMER2_PWM_Init
                                           ;	.line	122; "MC32P7351.c"	ADC_Init();
                                           	CALL	_ADC_Init
                                           ;	.line	123; "MC32P7351.c"	GIE = 1;
                                           	BSET	_MCRbits,7
                                           ;	.line	124; "MC32P7351.c"	}
                                           	RETURN	
                                           ; exit point of _Sys_Init
                                           
                                           ;***
                                           ;  pBlock Stats: dbName = C
                                           ;***
                                           ;entry:  _Uart_getsend_func	;Function start
                                           ; 2 exit points
                                           ;has an exit
                                           ;functions called:
                                           ;   __gptrget1
                                           ;   __gptrget1
                                           ;14 compiler assigned registers:
                                           ;   r0x1027
                                           ;   STK00
                                           ;   r0x1028
                                           ;   STK01
                                           ;   r0x1029
                                           ;   STK02
                                           ;   r0x102A
                                           ;   r0x102B
                                           ;   r0x102C
                                           ;   r0x102D
                                           ;   r0x102E
                                           ;   r0x102F
                                           ;   r0x1030
                                           ;   r0x1031
                                           ;; Starting pCode block
                                           _Uart_getsend_func	;Function start
                                           ; 2 exit points
                                           ;	.line	71; "MC32P7351.c"	void Uart_getsend_func(u8* data,u8 len)
                                           	MOVRA	r0x1027
                                           	MOVAR	STK00
                                           	MOVRA	r0x1028
                                           	MOVAR	STK01
                                           	MOVRA	r0x1029
                                           	MOVAR	STK02
                                           	MOVRA	r0x102A
                                           ;	.line	74; "MC32P7351.c"	if(UARTUser.Uart_ov)
                                           	MOVAR	(_UARTUser + 1)
                                           	MOVRA	r0x102B
                                           	MOVAI	0x00
                                           	ORAR	r0x102B
                                           	JBCLR	PFLAG,2
                                           	GOTO	_00132_DS_
                                           ;	.line	76; "MC32P7351.c"	if(UARTUser.Uart_send_F)
                                           	MOVAR	(_UARTUser + 2)
                                           	MOVRA	r0x102B
                                           	MOVAI	0x00
                                           	ORAR	r0x102B
                                           	JBCLR	PFLAG,2
                                           	GOTO	_00132_DS_
                                           ;	.line	78; "MC32P7351.c"	for ( i = 0; i < len; i++)
                                           	CLRR	r0x102B
                                           _00130_DS_
                                           	MOVAR	r0x102A
                                           	RSUBAR	r0x102B
                                           	JBCLR	PFLAG,0
                                           	GOTO	_00124_DS_
                                           ;;genSkipc:3291: created from rifx:013B5EFC
                                           ;	.line	80; "MC32P7351.c"	UARTUser.Uart_sendbuff[i] = data[i];
                                           	MOVAR	r0x102B
                                           	ADDAI	(_UARTUser + 4)
                                           	MOVRA	r0x102C
                                           	MOVAI	high (_UARTUser + 4)
                                           	JBCLR	PFLAG,0
                                           	ADDAI	0x01
                                           	MOVRA	r0x102D
                                           	MOVAR	r0x102B
                                           	ADDAR	r0x1029
                                           	MOVRA	r0x102E
                                           	MOVAR	r0x1028
                                           	JBCLR	PFLAG,0
                                           	ADDAI	0x01
                                           	MOVRA	r0x102F
                                           	MOVAR	r0x1027
                                           	JBCLR	PFLAG,0
                                           	ADDAI	0x01
                                           	MOVRA	r0x1030
                                           	MOVAR	r0x102E
                                           	MOVRA	STK01
                                           	MOVAR	r0x102F
                                           	MOVRA	STK00
                                           	MOVAR	r0x1030
                                           	CALL	__gptrget1
                                           	MOVRA	r0x1031
                                           	MOVAR	r0x102C
                                           	MOVRA	FSR0
                                           	MOVAR	r0x102D
                                           	MOVRA	FSR1
                                           	MOVAR	r0x1031
                                           	MOVRA	INDF2
                                           ;	.line	78; "MC32P7351.c"	for ( i = 0; i < len; i++)
                                           	INCR	r0x102B
                                           	GOTO	_00130_DS_
                                           ;;gen.c:6570: size=0, offset=0, AOP_TYPE(res)=8
                                           _00124_DS_
                                           ;	.line	82; "MC32P7351.c"	UARTUser.Uart_send_byteLen = len;
                                           	MOVAR	r0x102A
                                           	MOVRA	(_UARTUser + 3)
                                           ;;gen.c:6570: size=0, offset=0, AOP_TYPE(res)=8
                                           ;	.line	84; "MC32P7351.c"	UARTUser.Uart_bit_cnt = 0;
                                           	CLRR	(_UARTUser + 0)
                                           ;;gen.c:6570: size=0, offset=0, AOP_TYPE(res)=8
                                           ;	.line	85; "MC32P7351.c"	UARTUser.Uart_ov = 0;
                                           	CLRR	(_UARTUser + 1)
                                           ;	.line	86; "MC32P7351.c"	UARTSEND_PIN = 0;
                                           	BCLR	_IOP1bits,7
                                           ;	.line	87; "MC32P7351.c"	T0IF = 0;
                                           	BCLR	_INTFbits,0
                                           ;	.line	88; "MC32P7351.c"	T0IE = 1;
                                           	BSET	_INTEbits,0
                                           ;	.line	89; "MC32P7351.c"	T0CNT = 104 -1;
                                           	MOVAI	0x67
                                           	MOVRA	_T0CNT
                                           _00132_DS_
                                           ;	.line	92; "MC32P7351.c"	}
                                           	RETURN	
                                           ; exit point of _Uart_getsend_func
                                           
                                           ;***
                                           ;  pBlock Stats: dbName = C
                                           ;***
                                           ;entry:  _Uart_send_Function	;Function start
                                           ; 2 exit points
                                           ;has an exit
                                           ;5 compiler assigned registers:
                                           ;   r0x103A
                                           ;   r0x103B
                                           ;   r0x103C
                                           ;   r0x103D
                                           ;   r0x103E
                                           ;; Starting pCode block
                                           _Uart_send_Function	;Function start
                                           ; 2 exit points
                                           ;	.line	45; "MC32P7351.c"	UARTUser.Uart_bit_cnt++;
                                           	MOVAR	(_UARTUser + 0)
                                           	MOVRA	r0x103A
                                           	INCR	r0x103A
                                           ;;gen.c:6570: size=0, offset=0, AOP_TYPE(res)=8
                                           	MOVAR	r0x103A
                                           	MOVRA	(_UARTUser + 0)
                                           ;	.line	46; "MC32P7351.c"	if(UARTUser.Uart_bit_cnt <= UART_LEN)
                                           	MOVAR	(_UARTUser + 0)
                                           	MOVRA	r0x103B
                                           ;;swapping arguments (AOP_TYPEs 1/2)
                                           ;;unsigned compare: left >= lit(0x9=9), size=1
                                           	MOVAI	0x09
                                           	RSUBAR	r0x103A
                                           	JBCLR	PFLAG,0
                                           	GOTO	_00117_DS_
                                           ;;genSkipc:3291: created from rifx:013B5EFC
                                           ;	.line	48; "MC32P7351.c"	if(UARTUser.Uart_sendbuff[UARTUser.Uart_send_byteLen-1]&0x01)
                                           	MOVAR	(_UARTUser + 3)
                                           	MOVRA	r0x103C
                                           	MOVRA	r0x103A
                                           ;;109	MOVAR	r0x103A
                                           	DECAR	r0x103C
                                           	MOVRA	r0x103A
                                           	MOVAR	r0x103A
                                           	ADDAI	(_UARTUser + 4)
                                           	MOVRA	r0x103A
                                           	MOVAI	high (_UARTUser + 4)
                                           	JBCLR	PFLAG,0
                                           	ADDAI	0x01
                                           	MOVRA	r0x103C
                                           	MOVAR	r0x103A
                                           	MOVRA	FSR0
                                           	MOVAR	r0x103C
                                           	MOVRA	FSR1
                                           	MOVAR	INDF2
                                           	MOVRA	r0x103D
                                           	JBSET	r0x103D,0
                                           	GOTO	_00106_DS_
                                           ;	.line	49; "MC32P7351.c"	UARTSEND_PIN = 1;
                                           	BSET	_IOP1bits,7
                                           	GOTO	_00107_DS_
                                           _00106_DS_
                                           ;	.line	51; "MC32P7351.c"	UARTSEND_PIN = 0;
                                           	BCLR	_IOP1bits,7
                                           _00107_DS_
                                           ;	.line	52; "MC32P7351.c"	UARTUser.Uart_sendbuff[UARTUser.Uart_send_byteLen-1] >>= 1;
                                           	MOVAR	(_UARTUser + 3)
                                           	MOVRA	r0x103C
                                           	MOVRA	r0x103A
                                           ;;99	MOVAR	r0x103A
                                           	DECAR	r0x103C
                                           	MOVRA	r0x103A
                                           	MOVAR	r0x103A
                                           	ADDAI	(_UARTUser + 4)
                                           	MOVRA	r0x103A
                                           	MOVAI	high (_UARTUser + 4)
                                           	JBCLR	PFLAG,0
                                           	ADDAI	0x01
                                           	MOVRA	r0x103C
                                           	MOVAR	r0x103A
                                           	MOVRA	FSR0
                                           	MOVAR	r0x103C
                                           	MOVRA	FSR1
                                           	MOVAR	INDF2
                                           	MOVRA	r0x103D
                                           ;;shiftRight_Left2ResultLit:5339: shCount=1, size=1, sign=0, same=0, offr=0
                                           	BCLR	PFLAG,0
                                           	RRAR	r0x103D
                                           	MOVRA	r0x103E
                                           	MOVAR	r0x103A
                                           	MOVRA	FSR0
                                           	MOVAR	r0x103C
                                           	MOVRA	FSR1
                                           	MOVAR	r0x103E
                                           	MOVRA	INDF2
                                           	GOTO	_00119_DS_
                                           _00117_DS_
                                           ;	.line	54; "MC32P7351.c"	else if(UARTUser.Uart_bit_cnt == UART_LEN+1)
                                           	MOVAR	r0x103B
                                           	XORAI	0x09
                                           	JBSET	PFLAG,2
                                           	GOTO	_00114_DS_
                                           ;	.line	56; "MC32P7351.c"	UARTSEND_PIN = 1;
                                           	BSET	_IOP1bits,7
                                           	GOTO	_00119_DS_
                                           _00114_DS_
                                           ;	.line	58; "MC32P7351.c"	else if(UARTUser.Uart_bit_cnt == UART_LEN+2)
                                           	MOVAR	r0x103B
                                           	XORAI	0x0a
                                           	JBSET	PFLAG,2
                                           	GOTO	_00119_DS_
                                           ;;gen.c:6570: size=0, offset=0, AOP_TYPE(res)=8
                                           ;	.line	60; "MC32P7351.c"	UARTUser.Uart_bit_cnt = 0;
                                           	CLRR	(_UARTUser + 0)
                                           ;	.line	61; "MC32P7351.c"	UARTUser.Uart_send_byteLen--;
                                           	MOVAR	(_UARTUser + 3)
                                           	MOVRA	r0x103A
                                           	DECR	r0x103A
                                           ;;gen.c:6570: size=0, offset=0, AOP_TYPE(res)=8
                                           	MOVAR	r0x103A
                                           	MOVRA	(_UARTUser + 3)
                                           ;	.line	62; "MC32P7351.c"	if(UARTUser.Uart_send_byteLen == 0)
                                           	MOVAI	0x00
                                           	ORAR	r0x103A
                                           	JBSET	PFLAG,2
                                           	GOTO	_00109_DS_
                                           ;;gen.c:6570: size=0, offset=0, AOP_TYPE(res)=8
                                           ;	.line	64; "MC32P7351.c"	UARTUser.Uart_ov = 1;
                                           	MOVAI	0x01
                                           	MOVRA	(_UARTUser + 1)
                                           ;	.line	65; "MC32P7351.c"	T0IE = 0;
                                           	BCLR	_INTEbits,0
                                           ;	.line	66; "MC32P7351.c"	T0IF = 0;
                                           	BCLR	_INTFbits,0
                                           	GOTO	_00119_DS_
                                           _00109_DS_
                                           ;	.line	68; "MC32P7351.c"	else UARTSEND_PIN = 0;
                                           	BCLR	_IOP1bits,7
                                           _00119_DS_
                                           ;	.line	70; "MC32P7351.c"	}
                                           	RETURN	
                                           ; exit point of _Uart_send_Function
                                           
                                           
                                           ;	code size estimation:
                                           ;	  498+    0 =   498 instructions (  996 byte)
                                           
                                           	end


MEMORY USAGE MAP ('X' = Used,  '-' = Unused)

0000 : XXXXXXXXXXXXXX-- XXXXXXXXXXXXXXXX XXXXXXXXXXXXXXXX XXXXXXXXXXXXXXXX
0040 : XXXXXXXXXXXXXXXX XXXXXXXXXXXXXXXX XXXXXXXXXXXXXXXX XXXXXXXXXXXXXXXX
0080 : XXXXXXXXXXXXXXXX XXXXXXXXXXXXXXXX XXXXXXXXXXXXXXXX XXXXXXXXXXXXXXXX
00C0 : XXXXXXXXXXXXXXXX XXXXXXXXXXXXXXXX XXXXXXXXXXXXXXXX XXXXXXXXXXXXXXXX
0100 : XXXXXXXXXXXXXXXX XXXXXXXXXXXXXXXX XXXXXXXXXXXXXXXX XXXXXXXXXXXXXXXX
0140 : XXXXXXXXXXXXXXXX XXXXXXXXXXXXXXXX XXXXXXXXXXXXXXXX XXXXXXXXXXXXXXXX
0180 : XXXXXXXXXXXXXXXX XXXXXXXXXXXXXXXX XXXXXXXXXXXXXXXX XXXXXXXXXXXXXXXX
01C0 : XXXXXXXXXXXXXXXX XXXXXXXXXXXXXXXX XXXXXXXXXXXXXXXX XXXXXXXXXXXXXXXX
0200 : XXXXXXXXXXXXXXXX XXXXXXXXXXXXXXXX XXXXXXXXXXXXXXXX XXXXXXXXXXXXXXXX
0240 : XXXXXXXXXXXXXXXX XXXXXXXXXXXXXXXX XXXXXXXXXXXXXXXX XXXXXXXXXXXXXXXX
0280 : XXXXXXXXXXXXXXXX XXXXXXXXXXXXXXXX XXXXXXXXXXXXXXXX XXXXXXXXXXXXXXXX
02C0 : XXXXXXXXXXXXXXXX XXXXXXXXXXXXXXXX XXXXXXXXXXXXXXXX XXXXXXXXXXXXXXXX
0300 : XXXXXXXXXXXXXXXX XXXXXXXXXXXXXXXX XXXXXXXXXXXXXXXX XXXXXXXXXXXXXXXX
0340 : XXXXXXXXXXXXXXXX XXXXXXXXXXXXXXXX XXXXXXXXXXXXXXXX XXXXXXXXXXXXXXXX
0380 : XXXXXXXXXXXXXXXX XXXXXXXXXXXXXXXX XXXXXXXXXXXXXXXX XXXXXXXXXXXXXXXX
03C0 : XXXXXXXXXXXXXXXX XXXXXXXXXXXXXXXX XXXXXXXXXXXXXXXX XXXXXXXXXXXXXXXX
0400 : XXXXXXXXXXXXXXXX XXXXXXXXXXXXXXXX XXXXXXXXXXXXXXXX XXXXXXXXXXXXXXXX
0440 : XXXXXXXXXXXXXXXX XXXXXXXXXXXXXXXX XXXXXXXXXXXXXXXX XXXXXXXXXXXXXXXX
0480 : XXXXXXXXXXXXXXXX XXXXXXXXXXXXXXXX XXXXXXXXXXXXXXXX XXXXXXXXXXXXXXXX
04C0 : XXXXXXXXXXXXXXXX XXXXXXXXXXXXXXXX XXXXXXXXXXXXXXXX XXXXXXXXXXXXXXXX
0500 : XXXXXXXXXXXXXXXX XXXXXXXXXXXXXXXX XXXXXXXXXXXXXXXX XXXXXXXXXXXXXXXX
0540 : XXXXXXXXXXXXXXXX XXXXXXXXXXXXXXXX XXXXXXXXXXXXXXXX XXXXXXXXXXXXXXXX
0580 : XXXXXXXXXXXXXXXX XXXXXXXXXXXXXXXX XXXXXXXXXXXXXXXX XXXXXXXXXXXXXXXX
05C0 : XXXXXXXXXXXXXXXX XXXXXXXXXXXXXXXX XXXXXXXXXXXXXXXX XXXXXXXXXXXXXXXX
0600 : XXXXXXXXXXXXXXXX XXXXXXXXXXXXXXXX XXXXXXXXXXXXXXXX XXXXXXXXXXXXXXXX
0640 : XXXXXXXXXXXXXXXX XXXXXXXXXXXXXXXX XXXXXXXXXXXXXXXX XXXXXXXXXXXXXXXX
0680 : XXXXXXXXXXXXXXXX XXXXXXXXXXXXXXXX XXXXXXXXXXXXXXXX XXXXXXXXXXXXXXXX
06C0 : XXXXXXXXXXXXXXXX XXXXXXXXXXXXXXXX XXXXXXXXXXXXXXXX XXXXXXXXXXXXXXXX
0700 : XXXXXXXXXXXXXXXX XXXXXXXXXXXXXXXX XXXXXXXXXXXXXXXX XXXXXXXXXXXXXXXX
0740 : XXXXXXXXXXXXXXXX XXXXXXXXXXXXXXXX XXXXXXXXXXXXXXXX XXXXXXXXXXXXXXXX
0780 : XXXXXXXXXXXXXXXX XX-------------- ---------------- ----------------

All other memory blocks unused.

Program Memory Words Used:   968

