gplink-2.2.37 (Jan 22 2024)
Listing File Generated: 2024-7-23  17:05:20
 
 
Address  Value    Disassembly              Source
-------  -----    -----------              ------
                                           ;--------------------------------------------------------
                                           ; external declarations
                                           ;--------------------------------------------------------
                                           	extern	_ADC_Power_On_Stability
                                           	extern	_ADC_Zero_ADJ
                                           	extern	_INDF0bits
                                           	extern	_INDF1bits
                                           	extern	_INDF2bits
                                           	extern	_HIBYTEbits
                                           	extern	_FSR0bits
                                           	extern	_FSR1bits
                                           	extern	_PCLbits
                                           	extern	_PFLAGbits
                                           	extern	_MCRbits
                                           	extern	_INDF3bits
                                           	extern	_INTEbits
                                           	extern	_INTFbits
                                           	extern	_DRVCRbits
                                           	extern	_PFRCCRbits
                                           	extern	_P1KBCRbits
                                           	extern	_PFRCCALbits
                                           	extern	_IOP0bits
                                           	extern	_OEP0bits
                                           	extern	_PUP0bits
                                           	extern	_PDP0bits
                                           	extern	_IOP1bits
                                           	extern	_OEP1bits
                                           	extern	_PUP1bits
                                           	extern	_PDP1bits
                                           	extern	_T0CRbits
                                           	extern	_T0CNTbits
                                           	extern	_T0LOADbits
                                           	extern	_T0DATAbits
                                           	extern	_T1CRbits
                                           	extern	_T1CNTbits
                                           	extern	_T1LOADbits
                                           	extern	_T1DATAbits
                                           	extern	_T2CRbits
                                           	extern	_T2CNTbits
                                           	extern	_T2LOADbits
                                           	extern	_T2DATAbits
                                           	extern	_T3CRbits
                                           	extern	_T3CNTbits
                                           	extern	_T3LOADbits
                                           	extern	_PWM0DRbits
                                           	extern	_PWM1DRbits
                                           	extern	_PWM2DRbits
                                           	extern	_PWMCR0bits
                                           	extern	_PWMCR1bits
                                           	extern	_OSCMRbits
                                           	extern	_LVDCRbits
                                           	extern	_ADCR0bits
                                           	extern	_ADCR1bits
                                           	extern	_ADCR2bits
                                           	extern	_OSADJCRbits
                                           	extern	_ADRHbits
                                           	extern	_ADRLbits
                                           	extern	_ADIOS0bits
                                           	extern	_ADIOS1bits
                                           	extern	_PMODbits
                                           	extern	_PWMCR3bits
                                           	extern	_PWMCR2bits
                                           	extern	_PFRCAUXbits
                                           	extern	_HIRCCALbits
                                           	extern	_INDF0
                                           	extern	_INDF1
                                           	extern	_INDF2
                                           	extern	_HIBYTE
                                           	extern	_FSR0
                                           	extern	_FSR1
                                           	extern	_PCL
                                           	extern	_PFLAG
                                           	extern	_MCR
                                           	extern	_INDF3
                                           	extern	_INTE
                                           	extern	_INTF
                                           	extern	_DRVCR
                                           	extern	_PFRCCR
                                           	extern	_P1KBCR
                                           	extern	_PFRCCAL
                                           	extern	_IOP0
                                           	extern	_OEP0
                                           	extern	_PUP0
                                           	extern	_PDP0
                                           	extern	_IOP1
                                           	extern	_OEP1
                                           	extern	_PUP1
                                           	extern	_PDP1
                                           	extern	_T0CR
                                           	extern	_T0CNT
                                           	extern	_T0LOAD
                                           	extern	_T0DATA
                                           	extern	_T1CR
                                           	extern	_T1CNT
                                           	extern	_T1LOAD
                                           	extern	_T1DATA
                                           	extern	_T2CR
                                           	extern	_T2CNT
                                           	extern	_T2LOAD
                                           	extern	_T2DATA
                                           	extern	_T3CR
                                           	extern	_T3CNT
                                           	extern	_T3LOAD
                                           	extern	_PWM0DR
                                           	extern	_PWM1DR
                                           	extern	_PWM2DR
                                           	extern	_PWMCR0
                                           	extern	_PWMCR1
                                           	extern	_OSCMR
                                           	extern	_LVDCR
                                           	extern	_ADCR0
                                           	extern	_ADCR1
                                           	extern	_ADCR2
                                           	extern	_OSADJCR
                                           	extern	_ADRH
                                           	extern	_ADRL
                                           	extern	_ADIOS0
                                           	extern	_ADIOS1
                                           	extern	_PMOD
                                           	extern	_PWMCR3
                                           	extern	_PWMCR2
                                           	extern	_PFRCAUX
                                           	extern	_HIRCCAL
                                           ;--------------------------------------------------------
                                           ; global declarations
                                           ;--------------------------------------------------------
                                           	global	_RGB_Mode_Control
                                           	global	_Key_Function
                                           	global	_Sys_Init
                                           	global	_TIMER0_INT_Init
                                           	global	_ADC_Get_Value_Average
                                           	global	_ADC_mea
                                           	global	_ADC_Init
                                           	global	_IO_Init
                                           	global	_CLR_RAM
                                           	global	_delay
                                           	global	_delay_52us
                                           	global	_UART_send
                                           	global	_Uart_Send_Data
                                           	global	_LDR_Control
                                           	global	_main
                                           	global	_int_isr
                                           	global	_abuf
                                           	global	_statusbuf
                                           	global	_i
                                           	global	_g_adc_value0_temp
                                           	global	_g_tmpbuff
                                           	global	_num
                                           	global	_duty
                                           	global	_Key_Value
                                           	global	_Key_Value_Temp
                                           	global	_Color_Value
                                           	global	_Duty_Wait_Cnt
                                           	global	_Breath_Setp_Cnt
                                           	global	_Time_25us_Cnt
                                           	global	_AD_Judement_Cnt
                                           	global	_flag1
                                           	global	_adc_star
                                           	global	_g_temp_value
                                           	global	_g_channel
                                           	global	_g_adcsum
                                           	global	_g_adcmax
                                           	global	_g_adcmin
                                           	global	_adc_data
                                           	global	_bit_out
                                           	global	_data_bit
                                           	global	_send_data
                                           
                                           	global STK06
                                           	global STK05
                                           	global STK04
                                           	global STK03
                                           	global STK02
                                           	global STK01
                                           	global STK00
                                           
                                           sharebank udata_ovr 0x0000
                                           STK06	res 1
                                           STK05	res 1
                                           STK04	res 1
                                           STK03	res 1
                                           STK02	res 1
                                           STK01	res 1
                                           STK00	res 1
                                           
                                           ;--------------------------------------------------------
                                           ; global definitions
                                           ;--------------------------------------------------------
                                           UD_MC32P7351_0	udata
                                           _abuf	res	1
                                           
                                           UD_MC32P7351_1	udata
                                           _statusbuf	res	1
                                           
                                           UD_MC32P7351_2	udata
                                           _i	res	2
                                           
                                           UD_MC32P7351_3	udata
                                           _g_adc_value0_temp	res	2
                                           
                                           UD_MC32P7351_4	udata
                                           _g_tmpbuff	res	4
                                           
                                           UD_MC32P7351_5	udata
                                           _num	res	1
                                           
                                           UD_MC32P7351_6	udata
                                           _duty	res	1
                                           
                                           UD_MC32P7351_7	udata
                                           _Key_Value	res	1
                                           
                                           UD_MC32P7351_8	udata
                                           _Key_Value_Temp	res	1
                                           
                                           UD_MC32P7351_9	udata
                                           _Color_Value	res	1
                                           
                                           UD_MC32P7351_10	udata
                                           _Duty_Wait_Cnt	res	1
                                           
                                           UD_MC32P7351_11	udata
                                           _Breath_Setp_Cnt	res	1
                                           
                                           UD_MC32P7351_12	udata
                                           _Time_25us_Cnt	res	2
                                           
                                           UD_MC32P7351_13	udata
                                           _AD_Judement_Cnt	res	1
                                           
                                           UD_MC32P7351_14	udata
                                           _flag1	res	1
                                           
                                           UD_MC32P7351_15	udata
                                           _adc_star	res	1
                                           
                                           UD_MC32P7351_16	udata
                                           _g_temp_value	res	2
                                           
                                           UD_MC32P7351_17	udata
                                           _g_channel	res	1
                                           
                                           UD_MC32P7351_18	udata
                                           _g_adcsum	res	4
                                           
                                           UD_MC32P7351_19	udata
                                           _g_adcmax	res	2
                                           
                                           UD_MC32P7351_20	udata
                                           _g_adcmin	res	2
                                           
                                           UD_MC32P7351_21	udata
                                           _adc_data	res	2
                                           
                                           UD_MC32P7351_22	udata
                                           _bit_out	res	2
                                           
                                           UD_MC32P7351_23	udata
                                           _data_bit	res	2
                                           
                                           UD_MC32P7351_24	udata
                                           _send_data	res	2
                                           
                                           ;--------------------------------------------------------
                                           ; absolute symbol definitions
                                           ;--------------------------------------------------------
                                           ;--------------------------------------------------------
                                           ; compiler-defined variables
                                           ;--------------------------------------------------------
                                           UDL_MC32P7351_0	udata
                                           r0x103A	res	1
                                           r0x1039	res	1
                                           r0x1034	res	1
                                           r0x1033	res	1
                                           r0x1035	res	1
                                           r0x1036	res	1
                                           r0x1038	res	1
                                           r0x102C	res	1
                                           r0x102D	res	1
                                           r0x102E	res	1
                                           r0x102F	res	1
                                           r0x1030	res	1
                                           r0x1025	res	1
                                           r0x1024	res	1
                                           r0x1026	res	1
                                           r0x1027	res	1
                                           r0x102B	res	1
                                           r0x102A	res	1
                                           ;--------------------------------------------------------
                                           ; initialized data
                                           ;--------------------------------------------------------
                                           
                                           ;@Allocation info for local variables in function 'CLR_RAM'
                                           ;@CLR_RAM Sys_Init                  Allocated to registers ;size:2
                                           ;@CLR_RAM IO_Init                   Allocated to registers ;size:2
                                           ;@CLR_RAM ADC_Power_On_Stability    Allocated to registers ;size:2
                                           ;@CLR_RAM ADC_Zero_ADJ              Allocated to registers ;size:2
                                           ;@CLR_RAM ADC_Init                  Allocated to registers ;size:2
                                           ;@CLR_RAM TIMER0_INT_Init           Allocated to registers ;size:2
                                           ;@CLR_RAM ADC_mea                   Allocated to registers ;size:2
                                           ;@CLR_RAM Key_Function              Allocated to registers ;size:2
                                           ;@CLR_RAM RGB_Mode_Control          Allocated to registers ;size:2
                                           ;@CLR_RAM ADC_Get_Value_Average     Allocated to registers ;size:2
                                           ;@CLR_RAM INDF0bits                 Allocated to registers ;size:1
                                           ;@CLR_RAM INDF1bits                 Allocated to registers ;size:1
                                           ;@CLR_RAM INDF2bits                 Allocated to registers ;size:1
                                           ;@CLR_RAM HIBYTEbits                Allocated to registers ;size:1
                                           ;@CLR_RAM FSR0bits                  Allocated to registers ;size:1
                                           ;@CLR_RAM FSR1bits                  Allocated to registers ;size:1
                                           ;@CLR_RAM PCLbits                   Allocated to registers ;size:1
                                           ;@CLR_RAM PFLAGbits                 Allocated to registers ;size:1
                                           ;@CLR_RAM MCRbits                   Allocated to registers ;size:1
                                           ;@CLR_RAM INDF3bits                 Allocated to registers ;size:1
                                           ;@CLR_RAM INTEbits                  Allocated to registers ;size:1
                                           ;@CLR_RAM INTFbits                  Allocated to registers ;size:1
                                           ;@CLR_RAM DRVCRbits                 Allocated to registers ;size:1
                                           ;@CLR_RAM PFRCCRbits                Allocated to registers ;size:1
                                           ;@CLR_RAM P1KBCRbits                Allocated to registers ;size:1
                                           ;@CLR_RAM PFRCCALbits               Allocated to registers ;size:1
                                           ;@CLR_RAM IOP0bits                  Allocated to registers ;size:1
                                           ;@CLR_RAM OEP0bits                  Allocated to registers ;size:1
                                           ;@CLR_RAM PUP0bits                  Allocated to registers ;size:1
                                           ;@CLR_RAM PDP0bits                  Allocated to registers ;size:1
                                           ;@CLR_RAM IOP1bits                  Allocated to registers ;size:1
                                           ;@CLR_RAM OEP1bits                  Allocated to registers ;size:1
                                           ;@CLR_RAM PUP1bits                  Allocated to registers ;size:1
                                           ;@CLR_RAM PDP1bits                  Allocated to registers ;size:1
                                           ;@CLR_RAM T0CRbits                  Allocated to registers ;size:1
                                           ;@CLR_RAM T0CNTbits                 Allocated to registers ;size:1
                                           ;@CLR_RAM T0LOADbits                Allocated to registers ;size:1
                                           ;@CLR_RAM T0DATAbits                Allocated to registers ;size:1
                                           ;@CLR_RAM T1CRbits                  Allocated to registers ;size:1
                                           ;@CLR_RAM T1CNTbits                 Allocated to registers ;size:1
                                           ;@CLR_RAM T1LOADbits                Allocated to registers ;size:1
                                           ;@CLR_RAM T1DATAbits                Allocated to registers ;size:1
                                           ;@CLR_RAM T2CRbits                  Allocated to registers ;size:1
                                           ;@CLR_RAM T2CNTbits                 Allocated to registers ;size:1
                                           ;@CLR_RAM T2LOADbits                Allocated to registers ;size:1
                                           ;@CLR_RAM T2DATAbits                Allocated to registers ;size:1
                                           ;@CLR_RAM T3CRbits                  Allocated to registers ;size:1
                                           ;@CLR_RAM T3CNTbits                 Allocated to registers ;size:1
                                           ;@CLR_RAM T3LOADbits                Allocated to registers ;size:1
                                           ;@CLR_RAM PWM0DRbits                Allocated to registers ;size:1
                                           ;@CLR_RAM PWM1DRbits                Allocated to registers ;size:1
                                           ;@CLR_RAM PWM2DRbits                Allocated to registers ;size:1
                                           ;@CLR_RAM PWMCR0bits                Allocated to registers ;size:1
                                           ;@CLR_RAM PWMCR1bits                Allocated to registers ;size:1
                                           ;@CLR_RAM OSCMRbits                 Allocated to registers ;size:1
                                           ;@CLR_RAM LVDCRbits                 Allocated to registers ;size:1
                                           ;@CLR_RAM ADCR0bits                 Allocated to registers ;size:1
                                           ;@CLR_RAM ADCR1bits                 Allocated to registers ;size:1
                                           ;@CLR_RAM ADCR2bits                 Allocated to registers ;size:1
                                           ;@CLR_RAM OSADJCRbits               Allocated to registers ;size:1
                                           ;@CLR_RAM ADRHbits                  Allocated to registers ;size:1
                                           ;@CLR_RAM ADRLbits                  Allocated to registers ;size:1
                                           ;@CLR_RAM ADIOS0bits                Allocated to registers ;size:1
                                           ;@CLR_RAM ADIOS1bits                Allocated to registers ;size:1
                                           ;@CLR_RAM PMODbits                  Allocated to registers ;size:1
                                           ;@CLR_RAM PWMCR3bits                Allocated to registers ;size:1
                                           ;@CLR_RAM PWMCR2bits                Allocated to registers ;size:1
                                           ;@CLR_RAM PFRCAUXbits               Allocated to registers ;size:1
                                           ;@CLR_RAM HIRCCALbits               Allocated to registers ;size:1
                                           ;@CLR_RAM abuf                      Allocated to registers ;size:1
                                           ;@CLR_RAM statusbuf                 Allocated to registers ;size:1
                                           ;@CLR_RAM i                         Allocated to registers ;size:2
                                           ;@CLR_RAM g_adc_value0_temp         Allocated to registers ;size:2
                                           ;@CLR_RAM g_tmpbuff                 Allocated to registers ;size:4
                                           ;@CLR_RAM num                       Allocated to registers ;size:1
                                           ;@CLR_RAM duty                      Allocated to registers ;size:1
                                           ;@CLR_RAM Key_Value                 Allocated to registers ;size:1
                                           ;@CLR_RAM Key_Value_Temp            Allocated to registers ;size:1
                                           ;@CLR_RAM Color_Value               Allocated to registers ;size:1
                                           ;@CLR_RAM Duty_Wait_Cnt             Allocated to registers ;size:1
                                           ;@CLR_RAM Breath_Setp_Cnt           Allocated to registers ;size:1
                                           ;@CLR_RAM Time_25us_Cnt             Allocated to registers ;size:2
                                           ;@CLR_RAM AD_Judement_Cnt           Allocated to registers ;size:1
                                           ;@CLR_RAM flag1                     Allocated to registers ;size:1
                                           ;@CLR_RAM adc_star                  Allocated to registers ;size:1
                                           ;@CLR_RAM g_temp_value              Allocated to registers ;size:2
                                           ;@CLR_RAM g_channel                 Allocated to registers ;size:1
                                           ;@CLR_RAM g_adcsum                  Allocated to registers ;size:4
                                           ;@CLR_RAM g_adcmax                  Allocated to registers ;size:2
                                           ;@CLR_RAM g_adcmin                  Allocated to registers ;size:2
                                           ;@CLR_RAM adc_data                  Allocated to registers ;size:2
                                           ;@CLR_RAM INDF0                     Allocated to registers ;size:1
                                           ;@CLR_RAM INDF1                     Allocated to registers ;size:1
                                           ;@CLR_RAM INDF2                     Allocated to registers ;size:1
                                           ;@CLR_RAM HIBYTE                    Allocated to registers ;size:1
                                           ;@CLR_RAM FSR0                      Allocated to registers ;size:1
                                           ;@CLR_RAM FSR1                      Allocated to registers ;size:1
                                           ;@CLR_RAM PCL                       Allocated to registers ;size:1
                                           ;@CLR_RAM PFLAG                     Allocated to registers ;size:1
                                           ;@CLR_RAM MCR                       Allocated to registers ;size:1
                                           ;@CLR_RAM INDF3                     Allocated to registers ;size:1
                                           ;@CLR_RAM INTE                      Allocated to registers ;size:1
                                           ;@CLR_RAM INTF                      Allocated to registers ;size:1
                                           ;@CLR_RAM DRVCR                     Allocated to registers ;size:1
                                           ;@CLR_RAM PFRCCR                    Allocated to registers ;size:1
                                           ;@CLR_RAM P1KBCR                    Allocated to registers ;size:1
                                           ;@CLR_RAM PFRCCAL                   Allocated to registers ;size:1
                                           ;@CLR_RAM IOP0                      Allocated to registers ;size:1
                                           ;@CLR_RAM OEP0                      Allocated to registers ;size:1
                                           ;@CLR_RAM PUP0                      Allocated to registers ;size:1
                                           ;@CLR_RAM PDP0                      Allocated to registers ;size:1
                                           ;@CLR_RAM IOP1                      Allocated to registers ;size:1
                                           ;@CLR_RAM OEP1                      Allocated to registers ;size:1
                                           ;@CLR_RAM PUP1                      Allocated to registers ;size:1
                                           ;@CLR_RAM PDP1                      Allocated to registers ;size:1
                                           ;@CLR_RAM T0CR                      Allocated to registers ;size:1
                                           ;@CLR_RAM T0CNT                     Allocated to registers ;size:1
                                           ;@CLR_RAM T0LOAD                    Allocated to registers ;size:1
                                           ;@CLR_RAM T0DATA                    Allocated to registers ;size:1
                                           ;@CLR_RAM T1CR                      Allocated to registers ;size:1
                                           ;@CLR_RAM T1CNT                     Allocated to registers ;size:1
                                           ;@CLR_RAM T1LOAD                    Allocated to registers ;size:1
                                           ;@CLR_RAM T1DATA                    Allocated to registers ;size:1
                                           ;@CLR_RAM T2CR                      Allocated to registers ;size:1
                                           ;@CLR_RAM T2CNT                     Allocated to registers ;size:1
                                           ;@CLR_RAM T2LOAD                    Allocated to registers ;size:1
                                           ;@CLR_RAM T2DATA                    Allocated to registers ;size:1
                                           ;@CLR_RAM T3CR                      Allocated to registers ;size:1
                                           ;@CLR_RAM T3CNT                     Allocated to registers ;size:1
                                           ;@CLR_RAM T3LOAD                    Allocated to registers ;size:1
                                           ;@CLR_RAM PWM0DR                    Allocated to registers ;size:1
                                           ;@CLR_RAM PWM1DR                    Allocated to registers ;size:1
                                           ;@CLR_RAM PWM2DR                    Allocated to registers ;size:1
                                           ;@CLR_RAM PWMCR0                    Allocated to registers ;size:1
                                           ;@CLR_RAM PWMCR1                    Allocated to registers ;size:1
                                           ;@CLR_RAM OSCMR                     Allocated to registers ;size:1
                                           ;@CLR_RAM LVDCR                     Allocated to registers ;size:1
                                           ;@CLR_RAM ADCR0                     Allocated to registers ;size:1
                                           ;@CLR_RAM ADCR1                     Allocated to registers ;size:1
                                           ;@CLR_RAM ADCR2                     Allocated to registers ;size:1
                                           ;@CLR_RAM OSADJCR                   Allocated to registers ;size:1
                                           ;@CLR_RAM ADRH                      Allocated to registers ;size:1
                                           ;@CLR_RAM ADRL                      Allocated to registers ;size:1
                                           ;@CLR_RAM ADIOS0                    Allocated to registers ;size:1
                                           ;@CLR_RAM ADIOS1                    Allocated to registers ;size:1
                                           ;@CLR_RAM PMOD                      Allocated to registers ;size:1
                                           ;@CLR_RAM PWMCR3                    Allocated to registers ;size:1
                                           ;@CLR_RAM PWMCR2                    Allocated to registers ;size:1
                                           ;@CLR_RAM PFRCAUX                   Allocated to registers ;size:1
                                           ;@CLR_RAM HIRCCAL                   Allocated to registers ;size:1
                                           ;@end Allocation info for local variables in function 'CLR_RAM';
                                           ;@Allocation info for local variables in function 'delay'
                                           ;@delay num                       Allocated to registers r0x103A r0x1039 ;size:2
                                           ;@end Allocation info for local variables in function 'delay';
                                           ;@Allocation info for local variables in function 'delay_52us'
                                           ;@delay_52us us                        Allocated to registers ;size:2
                                           ;@end Allocation info for local variables in function 'delay_52us';
                                           ;@Allocation info for local variables in function 'UART_send'
                                           ;@UART_send send_cnt                  Allocated to registers r0x1035 r0x1036 ;size:2
                                           ;@end Allocation info for local variables in function 'UART_send';
                                           ;@Allocation info for local variables in function 'Uart_Send_Data'
                                           ;@end Allocation info for local variables in function 'Uart_Send_Data';
                                           ;@Allocation info for local variables in function 'IO_Init'
                                           ;@end Allocation info for local variables in function 'IO_Init';
                                           ;@Allocation info for local variables in function 'ADC_Init'
                                           ;@end Allocation info for local variables in function 'ADC_Init';
                                           ;@Allocation info for local variables in function 'ADC_mea'
                                           ;@ADC_mea Icnt                      Allocated to registers r0x102C ;size:1
                                           ;@end Allocation info for local variables in function 'ADC_mea';
                                           ;@Allocation info for local variables in function 'ADC_Get_Value_Average'
                                           ;@end Allocation info for local variables in function 'ADC_Get_Value_Average';
                                           ;@Allocation info for local variables in function 'TIMER0_INT_Init'
                                           ;@end Allocation info for local variables in function 'TIMER0_INT_Init';
                                           ;@Allocation info for local variables in function 'Sys_Init'
                                           ;@end Allocation info for local variables in function 'Sys_Init';
                                           ;@Allocation info for local variables in function 'Key_Function'
                                           ;@end Allocation info for local variables in function 'Key_Function';
                                           ;@Allocation info for local variables in function 'RGB_Mode_Control'
                                           ;@end Allocation info for local variables in function 'RGB_Mode_Control';
                                           ;@Allocation info for local variables in function 'LDR_Control'
                                           ;@end Allocation info for local variables in function 'LDR_Control';
                                           ;@Allocation info for local variables in function 'main'
                                           ;@end Allocation info for local variables in function 'main';
                                           ;@Allocation info for local variables in function 'int_isr'
                                           ;@end Allocation info for local variables in function 'int_isr';
                                           
                                           ;--------------------------------------------------------
                                           ; overlayable items in internal ram 
                                           ;--------------------------------------------------------
                                           ;	udata_ovr
                                           ;--------------------------------------------------------
                                           ; reset vector 
                                           ;--------------------------------------------------------
                                           STARTUP	code 0x0000
000000   a076     goto    0x76             	goto	_main
                                           ;--------------------------------------------------------
                                           ; interrupt and initialization code
                                           ;--------------------------------------------------------
                                           c_interrupt	code	0x8
                                           __sdcc_interrupt
                                           ;***
                                           ;  pBlock Stats: dbName = I
                                           ;***
                                           ;entry:  _int_isr	;Function start
                                           ; 0 exit points
                                           ;; Starting pCode block
                                           _int_isr	;Function start
                                           ; 0 exit points
                                           ;	.line	433; "MC32P7351.c"	__endasm;
000008   5635     movra   0x35             	movra	_abuf
000009   4587     swapar  0x187            	swapar	_PFLAG
00000a   5636     movra   0x36             	movra	_statusbuf
                                           ;	.line	435; "MC32P7351.c"	if (T0IF && T0IE)                                //25us
00000b   e18b     jbset   0x18b, 0         	JBSET	_INTFbits,0
00000c   a071     goto    0x71             	GOTO	_00343_DS_
00000d   e18a     jbset   0x18a, 0         	JBSET	_INTEbits,0
00000e   a071     goto    0x71             	GOTO	_00343_DS_
                                           ;	.line	437; "MC32P7351.c"	T0IF = 0;
00000f   d18b     bclr    0x18b, 0         	BCLR	_INTFbits,0
                                           ;	.line	439; "MC32P7351.c"	Time_25us_Cnt++;
000010   6625     incr    0x25             	INCR	_Time_25us_Cnt
000011   f587     jbclr   0x187, 0x2       	JBCLR	PFLAG,2
000012   6626     incr    0x26             	INCR	(_Time_25us_Cnt + 1)
                                           ;;unsigned compare: left < lit(0x190=400), size=2
                                           ;	.line	440; "MC32P7351.c"	if (Time_25us_Cnt >= 400)
000013   3c01     movai   0x1              	MOVAI	0x01
000014   4826     rsubar  0x26             	RSUBAR	(_Time_25us_Cnt + 1)
000015   e587     jbset   0x187, 0x2       	JBSET	PFLAG,2
000016   a019     goto    0x19             	GOTO	_00407_DS_
000017   3c90     movai   0x90             	MOVAI	0x90
000018   4825     rsubar  0x25             	RSUBAR	_Time_25us_Cnt
                                           _00407_DS_
000019   e187     jbset   0x187, 0         	JBSET	PFLAG,0
00001a   a01e     goto    0x1e             	GOTO	_00312_DS_
                                           ;;genSkipc:3291: created from rifx:013B5EFC
                                           ;	.line	442; "MC32P7351.c"	Time_25us_Cnt = 0;
00001b   7625     clrr    0x25             	CLRR	_Time_25us_Cnt
00001c   7626     clrr    0x26             	CLRR	(_Time_25us_Cnt + 1)
                                           ;	.line	444; "MC32P7351.c"	Timer_10ms_Flag = 1;
00001d   c63f     bset    0x3f, 0x3        	BSET	_flag1,3
                                           _00312_DS_
                                           ;	.line	447; "MC32P7351.c"	if (RGB_Breath_Flag)
00001e   e43f     jbset   0x3f, 0x2        	JBSET	_flag1,2
00001f   a071     goto    0x71             	GOTO	_00343_DS_
                                           ;	.line	449; "MC32P7351.c"	num++; 	   	   	//不断地增加阶数
000020   6637     incr    0x37             	INCR	_num
                                           ;;unsigned compare: left < lit(0xC8=200), size=1
                                           ;	.line	450; "MC32P7351.c"	if (num >= 200)    	//当阶数达到设定的值清零
000021   3cc8     movai   0xc8             	MOVAI	0xc8
000022   4837     rsubar  0x37             	RSUBAR	_num
000023   e187     jbset   0x187, 0         	JBSET	PFLAG,0
000024   a038     goto    0x38             	GOTO	_00320_DS_
                                           ;;genSkipc:3291: created from rifx:013B5EFC
                                           ;	.line	452; "MC32P7351.c"	num = 0;
000025   7637     clrr    0x37             	CLRR	_num
                                           ;	.line	454; "MC32P7351.c"	Duty_Wait_Cnt++;
000026   663c     incr    0x3c             	INCR	_Duty_Wait_Cnt
                                           ;;unsigned compare: left < lit(0x3=3), size=1
                                           ;	.line	456; "MC32P7351.c"	if (Duty_Wait_Cnt >= 3)
000027   3c03     movai   0x3              	MOVAI	0x03
000028   483c     rsubar  0x3c             	RSUBAR	_Duty_Wait_Cnt
000029   e187     jbset   0x187, 0         	JBSET	PFLAG,0
00002a   a02d     goto    0x2d             	GOTO	_00314_DS_
                                           ;;genSkipc:3291: created from rifx:013B5EFC
                                           ;	.line	458; "MC32P7351.c"	Duty_Wait_Cnt = 0;
00002b   763c     clrr    0x3c             	CLRR	_Duty_Wait_Cnt
                                           ;	.line	460; "MC32P7351.c"	duty++;
00002c   6638     incr    0x38             	INCR	_duty
                                           ;;swapping arguments (AOP_TYPEs 1/3)
                                           ;;unsigned compare: left >= lit(0xCC=204), size=1
                                           _00314_DS_
                                           ;	.line	463; "MC32P7351.c"	if (duty > 203)
00002d   3ccc     movai   0xcc             	MOVAI	0xcc
00002e   4838     rsubar  0x38             	RSUBAR	_duty
00002f   e187     jbset   0x187, 0         	JBSET	PFLAG,0
000030   a038     goto    0x38             	GOTO	_00320_DS_
                                           ;;genSkipc:3291: created from rifx:013B5EFC
                                           ;	.line	465; "MC32P7351.c"	duty = 0;
000031   7638     clrr    0x38             	CLRR	_duty
                                           ;	.line	467; "MC32P7351.c"	Breath_Setp_Cnt++;
000032   663d     incr    0x3d             	INCR	_Breath_Setp_Cnt
                                           ;;unsigned compare: left < lit(0x3=3), size=1
                                           ;	.line	469; "MC32P7351.c"	if (Breath_Setp_Cnt >= 3)
000033   3c03     movai   0x3              	MOVAI	0x03
000034   483d     rsubar  0x3d             	RSUBAR	_Breath_Setp_Cnt
000035   e187     jbset   0x187, 0         	JBSET	PFLAG,0
000036   a038     goto    0x38             	GOTO	_00320_DS_
                                           ;;genSkipc:3291: created from rifx:013B5EFC
                                           ;	.line	471; "MC32P7351.c"	Breath_Setp_Cnt = 0;
000037   763d     clrr    0x3d             	CLRR	_Breath_Setp_Cnt
                                           _00320_DS_
                                           ;	.line	477; "MC32P7351.c"	if (duty <= num)   	//占空比小于阶数时灭灯
000038   5838     movar   0x38             	MOVAR	_duty
000039   4837     rsubar  0x37             	RSUBAR	_num
00003a   e187     jbset   0x187, 0         	JBSET	PFLAG,0
00003b   a057     goto    0x57             	GOTO	_00338_DS_
                                           ;;genSkipc:3291: created from rifx:013B5EFC
                                           ;	.line	480; "MC32P7351.c"	if (Breath_Setp_Cnt == 0)
00003c   3c00     movai   0                	MOVAI	0x00
00003d   5c3d     orar    0x3d             	ORAR	_Breath_Setp_Cnt
00003e   e587     jbset   0x187, 0x2       	JBSET	PFLAG,2
00003f   a045     goto    0x45             	GOTO	_00327_DS_
                                           ;	.line	482; "MC32P7351.c"	Color_W = 0;
000040   d794     bclr    0x194, 0x3       	BCLR	_IOP1bits,3
                                           ;	.line	483; "MC32P7351.c"	Color_R = 1;
000041   cb94     bset    0x194, 0x5       	BSET	_IOP1bits,5
                                           ;	.line	484; "MC32P7351.c"	Color_G = 0;
000042   df94     bclr    0x194, 0x7       	BCLR	_IOP1bits,7
                                           ;	.line	485; "MC32P7351.c"	Color_B = 0;
000043   dd94     bclr    0x194, 0x6       	BCLR	_IOP1bits,6
000044   a071     goto    0x71             	GOTO	_00343_DS_
                                           _00327_DS_
                                           ;	.line	487; "MC32P7351.c"	else if (Breath_Setp_Cnt == 1)
000045   583d     movar   0x3d             	MOVAR	_Breath_Setp_Cnt
000046   3901     xorai   0x1              	XORAI	0x01
000047   e587     jbset   0x187, 0x2       	JBSET	PFLAG,2
000048   a04e     goto    0x4e             	GOTO	_00324_DS_
                                           ;	.line	489; "MC32P7351.c"	Color_W = 0;
000049   d794     bclr    0x194, 0x3       	BCLR	_IOP1bits,3
                                           ;	.line	490; "MC32P7351.c"	Color_R = 0;
00004a   db94     bclr    0x194, 0x5       	BCLR	_IOP1bits,5
                                           ;	.line	491; "MC32P7351.c"	Color_G = 0;
00004b   df94     bclr    0x194, 0x7       	BCLR	_IOP1bits,7
                                           ;	.line	492; "MC32P7351.c"	Color_B = 1;
00004c   cd94     bset    0x194, 0x6       	BSET	_IOP1bits,6
00004d   a071     goto    0x71             	GOTO	_00343_DS_
                                           _00324_DS_
                                           ;	.line	494; "MC32P7351.c"	else if (Breath_Setp_Cnt == 2)
00004e   583d     movar   0x3d             	MOVAR	_Breath_Setp_Cnt
00004f   3902     xorai   0x2              	XORAI	0x02
000050   e587     jbset   0x187, 0x2       	JBSET	PFLAG,2
000051   a071     goto    0x71             	GOTO	_00343_DS_
                                           ;	.line	496; "MC32P7351.c"	Color_W = 0;
000052   d794     bclr    0x194, 0x3       	BCLR	_IOP1bits,3
                                           ;	.line	497; "MC32P7351.c"	Color_R = 0;
000053   db94     bclr    0x194, 0x5       	BCLR	_IOP1bits,5
                                           ;	.line	498; "MC32P7351.c"	Color_G = 1;
000054   cf94     bset    0x194, 0x7       	BSET	_IOP1bits,7
                                           ;	.line	499; "MC32P7351.c"	Color_B = 0;
000055   dd94     bclr    0x194, 0x6       	BCLR	_IOP1bits,6
000056   a071     goto    0x71             	GOTO	_00343_DS_
                                           _00338_DS_
                                           ;	.line	506; "MC32P7351.c"	if (Breath_Setp_Cnt == 0)
000057   3c00     movai   0                	MOVAI	0x00
000058   5c3d     orar    0x3d             	ORAR	_Breath_Setp_Cnt
000059   e587     jbset   0x187, 0x2       	JBSET	PFLAG,2
00005a   a060     goto    0x60             	GOTO	_00335_DS_
                                           ;	.line	508; "MC32P7351.c"	Color_W = 0;
00005b   d794     bclr    0x194, 0x3       	BCLR	_IOP1bits,3
                                           ;	.line	509; "MC32P7351.c"	Color_R = 0;
00005c   db94     bclr    0x194, 0x5       	BCLR	_IOP1bits,5
                                           ;	.line	510; "MC32P7351.c"	Color_G = 0;
00005d   df94     bclr    0x194, 0x7       	BCLR	_IOP1bits,7
                                           ;	.line	511; "MC32P7351.c"	Color_B = 1;
00005e   cd94     bset    0x194, 0x6       	BSET	_IOP1bits,6
00005f   a071     goto    0x71             	GOTO	_00343_DS_
                                           _00335_DS_
                                           ;	.line	513; "MC32P7351.c"	else if (Breath_Setp_Cnt == 1)
000060   583d     movar   0x3d             	MOVAR	_Breath_Setp_Cnt
000061   3901     xorai   0x1              	XORAI	0x01
000062   e587     jbset   0x187, 0x2       	JBSET	PFLAG,2
000063   a069     goto    0x69             	GOTO	_00332_DS_
                                           ;	.line	515; "MC32P7351.c"	Color_W = 0;
000064   d794     bclr    0x194, 0x3       	BCLR	_IOP1bits,3
                                           ;	.line	516; "MC32P7351.c"	Color_R = 0;
000065   db94     bclr    0x194, 0x5       	BCLR	_IOP1bits,5
                                           ;	.line	517; "MC32P7351.c"	Color_G = 1;
000066   cf94     bset    0x194, 0x7       	BSET	_IOP1bits,7
                                           ;	.line	518; "MC32P7351.c"	Color_B = 0;
000067   dd94     bclr    0x194, 0x6       	BCLR	_IOP1bits,6
000068   a071     goto    0x71             	GOTO	_00343_DS_
                                           _00332_DS_
                                           ;	.line	520; "MC32P7351.c"	else if (Breath_Setp_Cnt == 2)
000069   583d     movar   0x3d             	MOVAR	_Breath_Setp_Cnt
00006a   3902     xorai   0x2              	XORAI	0x02
00006b   e587     jbset   0x187, 0x2       	JBSET	PFLAG,2
00006c   a071     goto    0x71             	GOTO	_00343_DS_
                                           ;	.line	522; "MC32P7351.c"	Color_W = 0;
00006d   d794     bclr    0x194, 0x3       	BCLR	_IOP1bits,3
                                           ;	.line	523; "MC32P7351.c"	Color_R = 1;
00006e   cb94     bset    0x194, 0x5       	BSET	_IOP1bits,5
                                           ;	.line	524; "MC32P7351.c"	Color_G = 0;
00006f   df94     bclr    0x194, 0x7       	BCLR	_IOP1bits,7
                                           ;	.line	525; "MC32P7351.c"	Color_B = 0;
000070   dd94     bclr    0x194, 0x6       	BCLR	_IOP1bits,6
                                           _00343_DS_
                                           ;	.line	537; "MC32P7351.c"	__endasm;
000071   4436     swapar  0x36             	swapar	_statusbuf
000072   5787     movra   0x187            	movra	_PFLAG
000073   4635     swapr   0x35             	swapr	_abuf
000074   4435     swapar  0x35             	swapar	_abuf
                                           END_OF_INTERRUPT
                                           ;	.line	538; "MC32P7351.c"	}
000075   000d     retie                    	RETIE	
                                           
                                           ;--------------------------------------------------------
                                           ; code
                                           ;--------------------------------------------------------
                                           code_MC32P7351	code
                                           ;***
                                           ;  pBlock Stats: dbName = M
                                           ;***
                                           ;entry:  _main	;Function start
                                           ; 2 exit points
                                           ;has an exit
                                           ;functions called:
                                           ;   _Sys_Init
                                           ;   _LDR_Control
                                           ;   _Key_Function
                                           ;   _RGB_Mode_Control
                                           ;   _Sys_Init
                                           ;   _LDR_Control
                                           ;   _Key_Function
                                           ;   _RGB_Mode_Control
                                           ;; Starting pCode block
                                           _main	;Function start
                                           ; 2 exit points
                                           ;	.line	384; "MC32P7351.c"	Sys_Init();
000076   810b     call    0x10b            	CALL	_Sys_Init
                                           ;	.line	387; "MC32P7351.c"	Switch_Swap_Flag = 0;
000077   d83f     bclr    0x3f, 0x4        	BCLR	_flag1,4
                                           ;	.line	389; "MC32P7351.c"	duty = 0;
000078   7638     clrr    0x38             	CLRR	_duty
                                           ;	.line	391; "MC32P7351.c"	Color_Value = 0x01;
000079   3c01     movai   0x1              	MOVAI	0x01
00007a   563b     movra   0x3b             	MOVRA	_Color_Value
                                           ;	.line	392; "MC32P7351.c"	Key_Value = 0;
00007b   7639     clrr    0x39             	CLRR	_Key_Value
                                           ;	.line	393; "MC32P7351.c"	Key_Value_Temp = 0;
00007c   763a     clrr    0x3a             	CLRR	_Key_Value_Temp
                                           ;	.line	395; "MC32P7351.c"	Key_Updata_Flag = 1;
00007d   c23f     bset    0x3f, 0x1        	BSET	_flag1,1
                                           _00306_DS_
                                           ;	.line	399; "MC32P7351.c"	if (Timer_10ms_Flag)
00007e   e63f     jbset   0x3f, 0x3        	JBSET	_flag1,3
00007f   a07e     goto    0x7e             	GOTO	_00306_DS_
                                           ;	.line	401; "MC32P7351.c"	Timer_10ms_Flag = 0;
000080   d63f     bclr    0x3f, 0x3        	BCLR	_flag1,3
                                           ;	.line	405; "MC32P7351.c"	LDR_Control();
000081   8088     call    0x88             	CALL	_LDR_Control
                                           ;	.line	407; "MC32P7351.c"	if (Switch_Swap_Flag == 0)
000082   f83f     jbclr   0x3f, 0x4        	JBCLR	_flag1,4
000083   a085     goto    0x85             	GOTO	_00302_DS_
                                           ;	.line	409; "MC32P7351.c"	Key_Function();
000084   80f3     call    0xf3             	CALL	_Key_Function
                                           _00302_DS_
                                           ;	.line	416; "MC32P7351.c"	RGB_Mode_Control();
000085   80b5     call    0xb5             	CALL	_RGB_Mode_Control
000086   a07e     goto    0x7e             	GOTO	_00306_DS_
                                           ;	.line	420; "MC32P7351.c"	}
000087   000c     return                   	RETURN	
                                           ; exit point of _main
                                           
                                           ;***
                                           ;  pBlock Stats: dbName = C
                                           ;***
                                           ;entry:  _LDR_Control	;Function start
                                           ; 2 exit points
                                           ;has an exit
                                           ;functions called:
                                           ;   _ADC_Get_Value_Average
                                           ;   _ADC_Get_Value_Average
                                           ;   _ADC_Get_Value_Average
                                           ;   _ADC_Get_Value_Average
                                           ;3 compiler assigned registers:
                                           ;   r0x102A
                                           ;   STK00
                                           ;   r0x102B
                                           ;; Starting pCode block
                                           _LDR_Control	;Function start
                                           ; 2 exit points
                                           ;	.line	347; "MC32P7351.c"	if (ADC_Get_Value_Average() >= 2048 && !Switch_Swap_Flag)//off   2.5V
000088   811a     call    0x11a            	CALL	_ADC_Get_Value_Average
000089   5618     movra   0x18             	MOVRA	r0x102A
00008a   5806     movar   0x6              	MOVAR	STK00
00008b   5617     movra   0x17             	MOVRA	r0x102B
                                           ;;unsigned compare: left < lit(0x800=2048), size=2
00008c   3c08     movai   0x8              	MOVAI	0x08
00008d   4818     rsubar  0x18             	RSUBAR	r0x102A
00008e   e587     jbset   0x187, 0x2       	JBSET	PFLAG,2
00008f   a092     goto    0x92             	GOTO	_00295_DS_
000090   3c00     movai   0                	MOVAI	0x00
000091   4817     rsubar  0x17             	RSUBAR	r0x102B
                                           _00295_DS_
000092   e187     jbset   0x187, 0         	JBSET	PFLAG,0
000093   a09c     goto    0x9c             	GOTO	_00270_DS_
                                           ;;genSkipc:3291: created from rifx:013B5EFC
000094   f83f     jbclr   0x3f, 0x4        	JBCLR	_flag1,4
000095   a09c     goto    0x9c             	GOTO	_00270_DS_
                                           ;	.line	349; "MC32P7351.c"	Switch_Swap_Flag = 1;
000096   c83f     bset    0x3f, 0x4        	BSET	_flag1,4
                                           ;	.line	351; "MC32P7351.c"	Key_Value = 5;
000097   3c05     movai   0x5              	MOVAI	0x05
000098   5639     movra   0x39             	MOVRA	_Key_Value
                                           ;	.line	353; "MC32P7351.c"	Key_Updata_Flag = 1;
000099   c23f     bset    0x3f, 0x1        	BSET	_flag1,1
                                           ;	.line	355; "MC32P7351.c"	AD_Judement_Cnt = 0;
00009a   763e     clrr    0x3e             	CLRR	_AD_Judement_Cnt
00009b   a0b4     goto    0xb4             	GOTO	_00273_DS_
                                           _00270_DS_
                                           ;	.line	357; "MC32P7351.c"	else if (ADC_Get_Value_Average() <= 1638 && Switch_Swap_Flag)//on   2V
00009c   811a     call    0x11a            	CALL	_ADC_Get_Value_Average
00009d   5618     movra   0x18             	MOVRA	r0x102A
00009e   5806     movar   0x6              	MOVAR	STK00
00009f   5617     movra   0x17             	MOVRA	r0x102B
                                           ;;swapping arguments (AOP_TYPEs 1/2)
                                           ;;unsigned compare: left >= lit(0x667=1639), size=2
0000a0   3c06     movai   0x6              	MOVAI	0x06
0000a1   4818     rsubar  0x18             	RSUBAR	r0x102A
0000a2   e587     jbset   0x187, 0x2       	JBSET	PFLAG,2
0000a3   a0a6     goto    0xa6             	GOTO	_00296_DS_
0000a4   3c67     movai   0x67             	MOVAI	0x67
0000a5   4817     rsubar  0x17             	RSUBAR	r0x102B
                                           _00296_DS_
0000a6   f187     jbclr   0x187, 0         	JBCLR	PFLAG,0
0000a7   a0b4     goto    0xb4             	GOTO	_00273_DS_
                                           ;;genSkipc:3291: created from rifx:013B5EFC
0000a8   e83f     jbset   0x3f, 0x4        	JBSET	_flag1,4
0000a9   a0b4     goto    0xb4             	GOTO	_00273_DS_
                                           ;	.line	359; "MC32P7351.c"	AD_Judement_Cnt++;
0000aa   663e     incr    0x3e             	INCR	_AD_Judement_Cnt
                                           ;;unsigned compare: left < lit(0x64=100), size=1
                                           ;	.line	361; "MC32P7351.c"	if (AD_Judement_Cnt >= 100)//1000ms
0000ab   3c64     movai   0x64             	MOVAI	0x64
0000ac   483e     rsubar  0x3e             	RSUBAR	_AD_Judement_Cnt
0000ad   e187     jbset   0x187, 0         	JBSET	PFLAG,0
0000ae   a0b4     goto    0xb4             	GOTO	_00273_DS_
                                           ;;genSkipc:3291: created from rifx:013B5EFC
                                           ;	.line	363; "MC32P7351.c"	Switch_Swap_Flag = 0;
0000af   d83f     bclr    0x3f, 0x4        	BCLR	_flag1,4
                                           ;	.line	365; "MC32P7351.c"	Key_Value = Key_Value_Temp;
0000b0   583a     movar   0x3a             	MOVAR	_Key_Value_Temp
0000b1   5639     movra   0x39             	MOVRA	_Key_Value
                                           ;	.line	367; "MC32P7351.c"	Key_Updata_Flag = 1;
0000b2   c23f     bset    0x3f, 0x1        	BSET	_flag1,1
                                           ;	.line	369; "MC32P7351.c"	AD_Judement_Cnt = 0;
0000b3   763e     clrr    0x3e             	CLRR	_AD_Judement_Cnt
                                           _00273_DS_
                                           ;	.line	374; "MC32P7351.c"	}
0000b4   000c     return                   	RETURN	
                                           ; exit point of _LDR_Control
                                           
                                           ;***
                                           ;  pBlock Stats: dbName = C
                                           ;***
                                           ;entry:  _RGB_Mode_Control	;Function start
                                           ; 2 exit points
                                           ;has an exit
                                           ;; Starting pCode block
                                           _RGB_Mode_Control	;Function start
                                           ; 2 exit points
                                           ;	.line	279; "MC32P7351.c"	if (Key_Updata_Flag)
0000b5   e23f     jbset   0x3f, 0x1        	JBSET	_flag1,1
0000b6   a0f2     goto    0xf2             	GOTO	_00259_DS_
                                           ;	.line	281; "MC32P7351.c"	Key_Updata_Flag = 0;
0000b7   d23f     bclr    0x3f, 0x1        	BCLR	_flag1,1
                                           ;	.line	283; "MC32P7351.c"	Duty_Wait_Cnt = 0;
0000b8   763c     clrr    0x3c             	CLRR	_Duty_Wait_Cnt
                                           ;	.line	284; "MC32P7351.c"	Breath_Setp_Cnt = 0;
0000b9   763d     clrr    0x3d             	CLRR	_Breath_Setp_Cnt
                                           ;	.line	285; "MC32P7351.c"	num = 0;
0000ba   7637     clrr    0x37             	CLRR	_num
                                           ;	.line	286; "MC32P7351.c"	duty = 0;
0000bb   7638     clrr    0x38             	CLRR	_duty
                                           ;	.line	288; "MC32P7351.c"	if (Key_Value == 4)
0000bc   5839     movar   0x39             	MOVAR	_Key_Value
0000bd   3904     xorai   0x4              	XORAI	0x04
0000be   e587     jbset   0x187, 0x2       	JBSET	PFLAG,2
0000bf   a0c2     goto    0xc2             	GOTO	_00242_DS_
                                           ;	.line	290; "MC32P7351.c"	RGB_Breath_Flag = 1;
0000c0   c43f     bset    0x3f, 0x2        	BSET	_flag1,2
0000c1   a0c3     goto    0xc3             	GOTO	_00243_DS_
                                           _00242_DS_
                                           ;	.line	294; "MC32P7351.c"	RGB_Breath_Flag = 0;
0000c2   d43f     bclr    0x3f, 0x2        	BCLR	_flag1,2
                                           _00243_DS_
                                           ;	.line	297; "MC32P7351.c"	if (Key_Value == 0)
0000c3   3c00     movai   0                	MOVAI	0x00
0000c4   5c39     orar    0x39             	ORAR	_Key_Value
0000c5   e587     jbset   0x187, 0x2       	JBSET	PFLAG,2
0000c6   a0cc     goto    0xcc             	GOTO	_00253_DS_
                                           ;	.line	299; "MC32P7351.c"	Color_W = 1;
0000c7   c794     bset    0x194, 0x3       	BSET	_IOP1bits,3
                                           ;	.line	300; "MC32P7351.c"	Color_R = 0;
0000c8   db94     bclr    0x194, 0x5       	BCLR	_IOP1bits,5
                                           ;	.line	301; "MC32P7351.c"	Color_G = 0;
0000c9   df94     bclr    0x194, 0x7       	BCLR	_IOP1bits,7
                                           ;	.line	302; "MC32P7351.c"	Color_B = 0;
0000ca   dd94     bclr    0x194, 0x6       	BCLR	_IOP1bits,6
0000cb   a0e6     goto    0xe6             	GOTO	_00254_DS_
                                           _00253_DS_
                                           ;	.line	305; "MC32P7351.c"	else if (Key_Value == 1)
0000cc   5839     movar   0x39             	MOVAR	_Key_Value
0000cd   3901     xorai   0x1              	XORAI	0x01
0000ce   e587     jbset   0x187, 0x2       	JBSET	PFLAG,2
0000cf   a0d5     goto    0xd5             	GOTO	_00250_DS_
                                           ;	.line	307; "MC32P7351.c"	Color_W = 0;
0000d0   d794     bclr    0x194, 0x3       	BCLR	_IOP1bits,3
                                           ;	.line	308; "MC32P7351.c"	Color_R = 1;
0000d1   cb94     bset    0x194, 0x5       	BSET	_IOP1bits,5
                                           ;	.line	309; "MC32P7351.c"	Color_G = 0;
0000d2   df94     bclr    0x194, 0x7       	BCLR	_IOP1bits,7
                                           ;	.line	310; "MC32P7351.c"	Color_B = 0;
0000d3   dd94     bclr    0x194, 0x6       	BCLR	_IOP1bits,6
0000d4   a0e6     goto    0xe6             	GOTO	_00254_DS_
                                           _00250_DS_
                                           ;	.line	313; "MC32P7351.c"	else if (Key_Value == 2)
0000d5   5839     movar   0x39             	MOVAR	_Key_Value
0000d6   3902     xorai   0x2              	XORAI	0x02
0000d7   e587     jbset   0x187, 0x2       	JBSET	PFLAG,2
0000d8   a0de     goto    0xde             	GOTO	_00247_DS_
                                           ;	.line	315; "MC32P7351.c"	Color_W = 0;
0000d9   d794     bclr    0x194, 0x3       	BCLR	_IOP1bits,3
                                           ;	.line	316; "MC32P7351.c"	Color_R = 0;
0000da   db94     bclr    0x194, 0x5       	BCLR	_IOP1bits,5
                                           ;	.line	317; "MC32P7351.c"	Color_G = 1;
0000db   cf94     bset    0x194, 0x7       	BSET	_IOP1bits,7
                                           ;	.line	318; "MC32P7351.c"	Color_B = 0;
0000dc   dd94     bclr    0x194, 0x6       	BCLR	_IOP1bits,6
0000dd   a0e6     goto    0xe6             	GOTO	_00254_DS_
                                           _00247_DS_
                                           ;	.line	321; "MC32P7351.c"	else if (Key_Value == 3)
0000de   5839     movar   0x39             	MOVAR	_Key_Value
0000df   3903     xorai   0x3              	XORAI	0x03
0000e0   e587     jbset   0x187, 0x2       	JBSET	PFLAG,2
0000e1   a0e6     goto    0xe6             	GOTO	_00254_DS_
                                           ;	.line	323; "MC32P7351.c"	Color_W = 0;
0000e2   d794     bclr    0x194, 0x3       	BCLR	_IOP1bits,3
                                           ;	.line	324; "MC32P7351.c"	Color_R = 0;
0000e3   db94     bclr    0x194, 0x5       	BCLR	_IOP1bits,5
                                           ;	.line	325; "MC32P7351.c"	Color_G = 0;
0000e4   df94     bclr    0x194, 0x7       	BCLR	_IOP1bits,7
                                           ;	.line	326; "MC32P7351.c"	Color_B = 1;
0000e5   cd94     bset    0x194, 0x6       	BSET	_IOP1bits,6
                                           _00254_DS_
                                           ;	.line	330; "MC32P7351.c"	if (Key_Value == 5)
0000e6   5839     movar   0x39             	MOVAR	_Key_Value
0000e7   3905     xorai   0x5              	XORAI	0x05
0000e8   e587     jbset   0x187, 0x2       	JBSET	PFLAG,2
0000e9   a0f2     goto    0xf2             	GOTO	_00259_DS_
                                           ;	.line	332; "MC32P7351.c"	Color_W = 0;
0000ea   d794     bclr    0x194, 0x3       	BCLR	_IOP1bits,3
                                           ;	.line	333; "MC32P7351.c"	Color_R = 0;
0000eb   db94     bclr    0x194, 0x5       	BCLR	_IOP1bits,5
                                           ;	.line	334; "MC32P7351.c"	Color_G = 0;
0000ec   df94     bclr    0x194, 0x7       	BCLR	_IOP1bits,7
                                           ;	.line	335; "MC32P7351.c"	Color_B = 0;
0000ed   dd94     bclr    0x194, 0x6       	BCLR	_IOP1bits,6
                                           ;	.line	337; "MC32P7351.c"	Duty_Wait_Cnt = 0;
0000ee   763c     clrr    0x3c             	CLRR	_Duty_Wait_Cnt
                                           ;	.line	338; "MC32P7351.c"	Breath_Setp_Cnt = 0;
0000ef   763d     clrr    0x3d             	CLRR	_Breath_Setp_Cnt
                                           ;	.line	339; "MC32P7351.c"	num = 0;
0000f0   7637     clrr    0x37             	CLRR	_num
                                           ;	.line	340; "MC32P7351.c"	duty = 0;
0000f1   7638     clrr    0x38             	CLRR	_duty
                                           _00259_DS_
                                           ;	.line	343; "MC32P7351.c"	}
0000f2   000c     return                   	RETURN	
                                           ; exit point of _RGB_Mode_Control
                                           
                                           ;***
                                           ;  pBlock Stats: dbName = C
                                           ;***
                                           ;entry:  _Key_Function	;Function start
                                           ; 2 exit points
                                           ;has an exit
                                           ;1 compiler assigned register :
                                           ;   r0x1024
                                           ;; Starting pCode block
                                           _Key_Function	;Function start
                                           ; 2 exit points
                                           ;	.line	258; "MC32P7351.c"	if (Key == 0 && Key_State == 0)
0000f3   f190     jbclr   0x190, 0         	JBCLR	_IOP0bits,0
0000f4   a102     goto    0x102            	GOTO	_00233_DS_
0000f5   f03f     jbclr   0x3f, 0          	JBCLR	_flag1,0
0000f6   a102     goto    0x102            	GOTO	_00233_DS_
                                           ;	.line	260; "MC32P7351.c"	Key_State = 1;
0000f7   c03f     bset    0x3f, 0          	BSET	_flag1,0
                                           ;	.line	262; "MC32P7351.c"	Key_Updata_Flag = 1;
0000f8   c23f     bset    0x3f, 0x1        	BSET	_flag1,1
                                           ;	.line	264; "MC32P7351.c"	Key_Value++;
0000f9   6639     incr    0x39             	INCR	_Key_Value
                                           ;;swapping arguments (AOP_TYPEs 1/3)
                                           ;;unsigned compare: left >= lit(0x5=5), size=1
                                           ;	.line	266; "MC32P7351.c"	if (Key_Value > 4)
0000fa   3c05     movai   0x5              	MOVAI	0x05
0000fb   4839     rsubar  0x39             	RSUBAR	_Key_Value
0000fc   e187     jbset   0x187, 0         	JBSET	PFLAG,0
0000fd   a0ff     goto    0xff             	GOTO	_00229_DS_
                                           ;;genSkipc:3291: created from rifx:013B5EFC
                                           ;	.line	267; "MC32P7351.c"	Key_Value = 0;
0000fe   7639     clrr    0x39             	CLRR	_Key_Value
                                           _00229_DS_
                                           ;	.line	269; "MC32P7351.c"	Key_Value_Temp = Key_Value;
0000ff   5839     movar   0x39             	MOVAR	_Key_Value
000100   563a     movra   0x3a             	MOVRA	_Key_Value_Temp
000101   a10a     goto    0x10a            	GOTO	_00236_DS_
                                           _00233_DS_
                                           ;	.line	271; "MC32P7351.c"	else if(Key == 1)
000102   7614     clrr    0x14             	CLRR	r0x1024
000103   f190     jbclr   0x190, 0         	JBCLR	_IOP0bits,0
000104   6614     incr    0x14             	INCR	r0x1024
000105   5814     movar   0x14             	MOVAR	r0x1024
000106   3901     xorai   0x1              	XORAI	0x01
000107   e587     jbset   0x187, 0x2       	JBSET	PFLAG,2
000108   a10a     goto    0x10a            	GOTO	_00236_DS_
                                           ;	.line	273; "MC32P7351.c"	Key_State = 0;
000109   d03f     bclr    0x3f, 0          	BCLR	_flag1,0
                                           _00236_DS_
                                           ;	.line	275; "MC32P7351.c"	}
00010a   000c     return                   	RETURN	
                                           ; exit point of _Key_Function
                                           
                                           ;***
                                           ;  pBlock Stats: dbName = C
                                           ;***
                                           ;entry:  _Sys_Init	;Function start
                                           ; 2 exit points
                                           ;has an exit
                                           ;functions called:
                                           ;   _CLR_RAM
                                           ;   _IO_Init
                                           ;   _ADC_Init
                                           ;   _TIMER0_INT_Init
                                           ;   _CLR_RAM
                                           ;   _IO_Init
                                           ;   _ADC_Init
                                           ;   _TIMER0_INT_Init
                                           ;; Starting pCode block
                                           _Sys_Init	;Function start
                                           ; 2 exit points
                                           ;	.line	246; "MC32P7351.c"	GIE = 0;
00010b   df88     bclr    0x188, 0x7       	BCLR	_MCRbits,7
                                           ;	.line	247; "MC32P7351.c"	CLR_RAM();
00010c   8282     call    0x282            	CALL	_CLR_RAM
                                           ;	.line	248; "MC32P7351.c"	IO_Init();
00010d   8214     call    0x214            	CALL	_IO_Init
                                           ;	.line	251; "MC32P7351.c"	ADC_Init();
00010e   820b     call    0x20b            	CALL	_ADC_Init
                                           ;	.line	252; "MC32P7351.c"	TIMER0_INT_Init();
00010f   8111     call    0x111            	CALL	_TIMER0_INT_Init
                                           ;	.line	254; "MC32P7351.c"	}
000110   000c     return                   	RETURN	
                                           ; exit point of _Sys_Init
                                           
                                           ;***
                                           ;  pBlock Stats: dbName = C
                                           ;***
                                           ;entry:  _TIMER0_INT_Init	;Function start
                                           ; 2 exit points
                                           ;has an exit
                                           ;; Starting pCode block
                                           _TIMER0_INT_Init	;Function start
                                           ; 2 exit points
                                           ;	.line	230; "MC32P7351.c"	T0CR = 0x00;                        //CPU = 32M/16 = 2M,1分频 = 2M
000111   7798     clrr    0x198            	CLRR	_T0CR
                                           ;	.line	231; "MC32P7351.c"	T0CNT = 50-1;
000112   3c31     movai   0x31             	MOVAI	0x31
000113   5799     movra   0x199            	MOVRA	_T0CNT
                                           ;	.line	232; "MC32P7351.c"	T0LOAD = 50-1;                               //25us
000114   3c31     movai   0x31             	MOVAI	0x31
000115   579a     movra   0x19a            	MOVRA	_T0LOAD
                                           ;	.line	233; "MC32P7351.c"	T0EN = 1;                                    //开启定时器
000116   cf98     bset    0x198, 0x7       	BSET	_T0CRbits,7
                                           ;	.line	234; "MC32P7351.c"	T0IE = 1;                                    //总中断标志
000117   c18a     bset    0x18a, 0         	BSET	_INTEbits,0
                                           ;	.line	236; "MC32P7351.c"	GIE = 1;                                     //中断总使能标志
000118   cf88     bset    0x188, 0x7       	BSET	_MCRbits,7
                                           ;	.line	237; "MC32P7351.c"	}
000119   000c     return                   	RETURN	
                                           ; exit point of _TIMER0_INT_Init
                                           
                                           ;***
                                           ;  pBlock Stats: dbName = C
                                           ;***
                                           ;entry:  _ADC_Get_Value_Average	;Function start
                                           ; 2 exit points
                                           ;has an exit
                                           ;7 compiler assigned registers:
                                           ;   r0x1024
                                           ;   r0x1025
                                           ;   r0x1026
                                           ;   r0x1027
                                           ;   r0x1028
                                           ;   r0x1029
                                           ;   STK00
                                           ;; Starting pCode block
                                           _ADC_Get_Value_Average	;Function start
                                           ; 2 exit points
                                           ;	.line	198; "MC32P7351.c"	g_adcsum = 0;
00011a   761d     clrr    0x1d             	CLRR	_g_adcsum
00011b   761e     clrr    0x1e             	CLRR	(_g_adcsum + 1)
00011c   761f     clrr    0x1f             	CLRR	(_g_adcsum + 2)
00011d   7620     clrr    0x20             	CLRR	(_g_adcsum + 3)
                                           ;	.line	199; "MC32P7351.c"	g_adcmax = 0;
00011e   7629     clrr    0x29             	CLRR	_g_adcmax
00011f   762a     clrr    0x2a             	CLRR	(_g_adcmax + 1)
                                           ;	.line	200; "MC32P7351.c"	g_adcmin = 0xffff;
000120   3cff     movai   0xff             	MOVAI	0xff
000121   562b     movra   0x2b             	MOVRA	_g_adcmin
000122   562c     movra   0x2c             	MOVRA	(_g_adcmin + 1)
                                           ;	.line	202; "MC32P7351.c"	for (g_channel = 0; g_channel < 20; g_channel ++)
000123   7641     clrr    0x41             	CLRR	_g_channel
                                           _00182_DS_
                                           ;	.line	204; "MC32P7351.c"	ADEOC = 0;
000124   d3b0     bclr    0x1b0, 0x1       	BCLR	_ADCR0bits,1
                                           _00171_DS_
                                           ;	.line	205; "MC32P7351.c"	while (!ADEOC);                         //等待转换完成
000125   e3b0     jbset   0x1b0, 0x1       	JBSET	_ADCR0bits,1
000126   a125     goto    0x125            	GOTO	_00171_DS_
                                           ;	.line	206; "MC32P7351.c"	g_temp_value = ADRH;
000127   59b4     movar   0x1b4            	MOVAR	_ADRH
000128   5627     movra   0x27             	MOVRA	_g_temp_value
000129   7628     clrr    0x28             	CLRR	(_g_temp_value + 1)
                                           ;	.line	207; "MC32P7351.c"	g_temp_value = g_temp_value << 4 | (ADRL & 0x0f);
00012a   4428     swapar  0x28             	SWAPAR	(_g_temp_value + 1)
00012b   3ef0     andai   0xf0             	ANDAI	0xf0
00012c   5614     movra   0x14             	MOVRA	r0x1024
00012d   4427     swapar  0x27             	SWAPAR	_g_temp_value
00012e   5613     movra   0x13             	MOVRA	r0x1025
00012f   3e0f     andai   0xf              	ANDAI	0x0f
000130   5e14     orra    0x14             	ORRA	r0x1024
000131   4213     xorra   0x13             	XORRA	r0x1025
000132   59b5     movar   0x1b5            	MOVAR	_ADRL
000133   5615     movra   0x15             	MOVRA	r0x1026
000134   7616     clrr    0x16             	CLRR	r0x1027
000135   3c0f     movai   0xf              	MOVAI	0x0f
000136   7a15     andra   0x15             	ANDRA	r0x1026
000137   7616     clrr    0x16             	CLRR	r0x1027
                                           ;;107	MOVAR	r0x1026
                                           ;;105	MOVRA	r0x1028
                                           ;;110	MOVAR	r0x1027
                                           ;;108	MOVRA	r0x1029
                                           ;;106	MOVAR	r0x1028
000138   5815     movar   0x15             	MOVAR	r0x1026
000139   5c13     orar    0x13             	ORAR	r0x1025
00013a   5627     movra   0x27             	MOVRA	_g_temp_value
                                           ;;109	MOVAR	r0x1029
00013b   3c00     movai   0                	MOVAI	0x00
00013c   5c14     orar    0x14             	ORAR	r0x1024
00013d   5628     movra   0x28             	MOVRA	(_g_temp_value + 1)
                                           ;;unsigned compare: left < lit(0x2=2), size=1
                                           ;	.line	208; "MC32P7351.c"	if (g_channel < 2)
00013e   3c02     movai   0x2              	MOVAI	0x02
00013f   4841     rsubar  0x41             	RSUBAR	_g_channel
000140   e187     jbset   0x187, 0         	JBSET	PFLAG,0
000141   a16e     goto    0x16e            	GOTO	_00180_DS_
                                           ;;genSkipc:3291: created from rifx:013B5EFC
                                           ;	.line	211; "MC32P7351.c"	if (g_temp_value > g_adcmax)
000142   5828     movar   0x28             	MOVAR	(_g_temp_value + 1)
000143   482a     rsubar  0x2a             	RSUBAR	(_g_adcmax + 1)
000144   e587     jbset   0x187, 0x2       	JBSET	PFLAG,2
000145   a148     goto    0x148            	GOTO	_00214_DS_
000146   5827     movar   0x27             	MOVAR	_g_temp_value
000147   4829     rsubar  0x29             	RSUBAR	_g_adcmax
                                           _00214_DS_
000148   f187     jbclr   0x187, 0         	JBCLR	PFLAG,0
000149   a14e     goto    0x14e            	GOTO	_00177_DS_
                                           ;;genSkipc:3291: created from rifx:013B5EFC
                                           ;	.line	212; "MC32P7351.c"	g_adcmax = g_temp_value;             //最大
00014a   5827     movar   0x27             	MOVAR	_g_temp_value
00014b   5629     movra   0x29             	MOVRA	_g_adcmax
00014c   5828     movar   0x28             	MOVAR	(_g_temp_value + 1)
00014d   562a     movra   0x2a             	MOVRA	(_g_adcmax + 1)
                                           _00177_DS_
                                           ;	.line	213; "MC32P7351.c"	if (g_temp_value < g_adcmin)
00014e   582c     movar   0x2c             	MOVAR	(_g_adcmin + 1)
00014f   4828     rsubar  0x28             	RSUBAR	(_g_temp_value + 1)
000150   e587     jbset   0x187, 0x2       	JBSET	PFLAG,2
000151   a154     goto    0x154            	GOTO	_00215_DS_
000152   582b     movar   0x2b             	MOVAR	_g_adcmin
000153   4827     rsubar  0x27             	RSUBAR	_g_temp_value
                                           _00215_DS_
000154   f187     jbclr   0x187, 0         	JBCLR	PFLAG,0
000155   a15a     goto    0x15a            	GOTO	_00179_DS_
                                           ;;genSkipc:3291: created from rifx:013B5EFC
                                           ;	.line	214; "MC32P7351.c"	g_adcmin = g_temp_value;             //最小
000156   5827     movar   0x27             	MOVAR	_g_temp_value
000157   562b     movra   0x2b             	MOVRA	_g_adcmin
000158   5828     movar   0x28             	MOVAR	(_g_temp_value + 1)
000159   562c     movra   0x2c             	MOVRA	(_g_adcmin + 1)
                                           _00179_DS_
                                           ;	.line	215; "MC32P7351.c"	g_adcsum += g_temp_value;  	   	
00015a   5827     movar   0x27             	MOVAR	_g_temp_value
00015b   5613     movra   0x13             	MOVRA	r0x1025
00015c   5828     movar   0x28             	MOVAR	(_g_temp_value + 1)
00015d   5614     movra   0x14             	MOVRA	r0x1024
00015e   7615     clrr    0x15             	CLRR	r0x1026
00015f   7616     clrr    0x16             	CLRR	r0x1027
000160   5813     movar   0x13             	MOVAR	r0x1025
000161   7e1d     addra   0x1d             	ADDRA	_g_adcsum
000162   5814     movar   0x14             	MOVAR	r0x1024
000163   f187     jbclr   0x187, 0         	JBCLR	PFLAG,0
000164   6014     jzar    0x14             	JZAR	r0x1024
000165   7e1e     addra   0x1e             	ADDRA	(_g_adcsum + 1)
000166   5815     movar   0x15             	MOVAR	r0x1026
000167   f187     jbclr   0x187, 0         	JBCLR	PFLAG,0
000168   6015     jzar    0x15             	JZAR	r0x1026
000169   7e1f     addra   0x1f             	ADDRA	(_g_adcsum + 2)
00016a   5816     movar   0x16             	MOVAR	r0x1027
00016b   f187     jbclr   0x187, 0         	JBCLR	PFLAG,0
00016c   6016     jzar    0x16             	JZAR	r0x1027
00016d   7e20     addra   0x20             	ADDRA	(_g_adcsum + 3)
                                           _00180_DS_
                                           ;	.line	202; "MC32P7351.c"	for (g_channel = 0; g_channel < 20; g_channel ++)
00016e   6641     incr    0x41             	INCR	_g_channel
                                           ;;unsigned compare: left < lit(0x14=20), size=1
00016f   3c14     movai   0x14             	MOVAI	0x14
000170   4841     rsubar  0x41             	RSUBAR	_g_channel
000171   e187     jbset   0x187, 0         	JBSET	PFLAG,0
000172   a124     goto    0x124            	GOTO	_00182_DS_
                                           ;;genSkipc:3291: created from rifx:013B5EFC
                                           ;	.line	217; "MC32P7351.c"	g_adcsum -= g_adcmax;                       //去掉一个最大
000173   5829     movar   0x29             	MOVAR	_g_adcmax
000174   5613     movra   0x13             	MOVRA	r0x1025
000175   582a     movar   0x2a             	MOVAR	(_g_adcmax + 1)
000176   5614     movra   0x14             	MOVRA	r0x1024
000177   7615     clrr    0x15             	CLRR	r0x1026
000178   7616     clrr    0x16             	CLRR	r0x1027
000179   5813     movar   0x13             	MOVAR	r0x1025
00017a   4a1d     rsubra  0x1d             	RSUBRA	_g_adcsum
00017b   5814     movar   0x14             	MOVAR	r0x1024
00017c   e187     jbset   0x187, 0         	JBSET	PFLAG,0
00017d   6014     jzar    0x14             	JZAR	r0x1024
00017e   4a1e     rsubra  0x1e             	RSUBRA	(_g_adcsum + 1)
00017f   5815     movar   0x15             	MOVAR	r0x1026
000180   e187     jbset   0x187, 0         	JBSET	PFLAG,0
000181   6015     jzar    0x15             	JZAR	r0x1026
000182   4a1f     rsubra  0x1f             	RSUBRA	(_g_adcsum + 2)
000183   5816     movar   0x16             	MOVAR	r0x1027
000184   e187     jbset   0x187, 0         	JBSET	PFLAG,0
000185   6016     jzar    0x16             	JZAR	r0x1027
000186   4a20     rsubra  0x20             	RSUBRA	(_g_adcsum + 3)
                                           ;	.line	218; "MC32P7351.c"	g_adcsum -= g_adcmin;                       //去掉一个最小
000187   582b     movar   0x2b             	MOVAR	_g_adcmin
000188   5613     movra   0x13             	MOVRA	r0x1025
000189   582c     movar   0x2c             	MOVAR	(_g_adcmin + 1)
00018a   5614     movra   0x14             	MOVRA	r0x1024
00018b   7615     clrr    0x15             	CLRR	r0x1026
00018c   7616     clrr    0x16             	CLRR	r0x1027
00018d   5813     movar   0x13             	MOVAR	r0x1025
00018e   4a1d     rsubra  0x1d             	RSUBRA	_g_adcsum
00018f   5814     movar   0x14             	MOVAR	r0x1024
000190   e187     jbset   0x187, 0         	JBSET	PFLAG,0
000191   6014     jzar    0x14             	JZAR	r0x1024
000192   4a1e     rsubra  0x1e             	RSUBRA	(_g_adcsum + 1)
000193   5815     movar   0x15             	MOVAR	r0x1026
000194   e187     jbset   0x187, 0         	JBSET	PFLAG,0
000195   6015     jzar    0x15             	JZAR	r0x1026
000196   4a1f     rsubra  0x1f             	RSUBRA	(_g_adcsum + 2)
000197   5816     movar   0x16             	MOVAR	r0x1027
000198   e187     jbset   0x187, 0         	JBSET	PFLAG,0
000199   6016     jzar    0x16             	JZAR	r0x1027
00019a   4a20     rsubra  0x20             	RSUBRA	(_g_adcsum + 3)
                                           ;	.line	219; "MC32P7351.c"	g_temp_value = (g_adcsum >> 4);             //除以16，取平均值
00019b   441d     swapar  0x1d             	SWAPAR	_g_adcsum
00019c   3e0f     andai   0xf              	ANDAI	0x0f
00019d   5613     movra   0x13             	MOVRA	r0x1025
00019e   441e     swapar  0x1e             	SWAPAR	(_g_adcsum + 1)
00019f   5614     movra   0x14             	MOVRA	r0x1024
0001a0   3ef0     andai   0xf0             	ANDAI	0xf0
0001a1   5e13     orra    0x13             	ORRA	r0x1025
0001a2   4214     xorra   0x14             	XORRA	r0x1024
0001a3   441f     swapar  0x1f             	SWAPAR	(_g_adcsum + 2)
0001a4   5615     movra   0x15             	MOVRA	r0x1026
0001a5   3ef0     andai   0xf0             	ANDAI	0xf0
0001a6   5e14     orra    0x14             	ORRA	r0x1024
0001a7   4215     xorra   0x15             	XORRA	r0x1026
0001a8   4420     swapar  0x20             	SWAPAR	(_g_adcsum + 3)
0001a9   5616     movra   0x16             	MOVRA	r0x1027
0001aa   3ef0     andai   0xf0             	ANDAI	0xf0
0001ab   5e15     orra    0x15             	ORRA	r0x1026
0001ac   4216     xorra   0x16             	XORRA	r0x1027
0001ad   5813     movar   0x13             	MOVAR	r0x1025
0001ae   5627     movra   0x27             	MOVRA	_g_temp_value
0001af   5814     movar   0x14             	MOVAR	r0x1024
0001b0   5628     movra   0x28             	MOVRA	(_g_temp_value + 1)
                                           ;	.line	220; "MC32P7351.c"	return g_temp_value;
0001b1   5827     movar   0x27             	MOVAR	_g_temp_value
0001b2   5606     movra   0x6              	MOVRA	STK00
0001b3   5828     movar   0x28             	MOVAR	(_g_temp_value + 1)
                                           ;	.line	221; "MC32P7351.c"	}
0001b4   000c     return                   	RETURN	
                                           ; exit point of _ADC_Get_Value_Average
                                           
                                           ;***
                                           ;  pBlock Stats: dbName = C
                                           ;***
                                           ;entry:  _ADC_mea	;Function start
                                           ; 2 exit points
                                           ;has an exit
                                           ;7 compiler assigned registers:
                                           ;   r0x102C
                                           ;   r0x102D
                                           ;   r0x102E
                                           ;   r0x102F
                                           ;   r0x1030
                                           ;   r0x1031
                                           ;   r0x1032
                                           ;; Starting pCode block
                                           _ADC_mea	;Function start
                                           ; 2 exit points
                                           ;	.line	175; "MC32P7351.c"	g_temp_value = 0;
0001b5   7627     clrr    0x27             	CLRR	_g_temp_value
0001b6   7628     clrr    0x28             	CLRR	(_g_temp_value + 1)
                                           ;	.line	176; "MC32P7351.c"	g_tmpbuff = 0;
0001b7   7619     clrr    0x19             	CLRR	_g_tmpbuff
0001b8   761a     clrr    0x1a             	CLRR	(_g_tmpbuff + 1)
0001b9   761b     clrr    0x1b             	CLRR	(_g_tmpbuff + 2)
0001ba   761c     clrr    0x1c             	CLRR	(_g_tmpbuff + 3)
                                           ;	.line	180; "MC32P7351.c"	while (Icnt--)
0001bb   3c10     movai   0x10             	MOVAI	0x10
0001bc   560e     movra   0xe              	MOVRA	r0x102C
                                           _00164_DS_
0001bd   580e     movar   0xe              	MOVAR	r0x102C
0001be   560f     movra   0xf              	MOVRA	r0x102D
0001bf   6e0e     decr    0xe              	DECR	r0x102C
0001c0   3c00     movai   0                	MOVAI	0x00
0001c1   5c0f     orar    0xf              	ORAR	r0x102D
0001c2   f587     jbclr   0x187, 0x2       	JBCLR	PFLAG,2
0001c3   a1f4     goto    0x1f4            	GOTO	_00166_DS_
                                           ;	.line	182; "MC32P7351.c"	ADEOC = 0; 	   	//开始ADC转换
0001c4   d3b0     bclr    0x1b0, 0x1       	BCLR	_ADCR0bits,1
                                           _00161_DS_
                                           ;	.line	183; "MC32P7351.c"	while (!ADEOC) 	   	//等待ADC转换结果
0001c5   f3b0     jbclr   0x1b0, 0x1       	JBCLR	_ADCR0bits,1
0001c6   a1cb     goto    0x1cb            	GOTO	_00163_DS_
                                           ;	.line	188; "MC32P7351.c"	g_temp_value = ADRH;
0001c7   59b4     movar   0x1b4            	MOVAR	_ADRH
0001c8   5627     movra   0x27             	MOVRA	_g_temp_value
0001c9   7628     clrr    0x28             	CLRR	(_g_temp_value + 1)
0001ca   a1c5     goto    0x1c5            	GOTO	_00161_DS_
                                           _00163_DS_
                                           ;	.line	189; "MC32P7351.c"	g_temp_value = g_temp_value << 4 | (ADRL & 0x0f);
0001cb   4428     swapar  0x28             	SWAPAR	(_g_temp_value + 1)
0001cc   3ef0     andai   0xf0             	ANDAI	0xf0
0001cd   5610     movra   0x10             	MOVRA	r0x102E
0001ce   4427     swapar  0x27             	SWAPAR	_g_temp_value
0001cf   560f     movra   0xf              	MOVRA	r0x102D
0001d0   3e0f     andai   0xf              	ANDAI	0x0f
0001d1   5e10     orra    0x10             	ORRA	r0x102E
0001d2   420f     xorra   0xf              	XORRA	r0x102D
0001d3   59b5     movar   0x1b5            	MOVAR	_ADRL
0001d4   5611     movra   0x11             	MOVRA	r0x102F
0001d5   7612     clrr    0x12             	CLRR	r0x1030
0001d6   3c0f     movai   0xf              	MOVAI	0x0f
0001d7   7a11     andra   0x11             	ANDRA	r0x102F
0001d8   7612     clrr    0x12             	CLRR	r0x1030
                                           ;;101	MOVAR	r0x102F
                                           ;;99	MOVRA	r0x1031
                                           ;;104	MOVAR	r0x1030
                                           ;;102	MOVRA	r0x1032
                                           ;;100	MOVAR	r0x1031
0001d9   5811     movar   0x11             	MOVAR	r0x102F
0001da   5c0f     orar    0xf              	ORAR	r0x102D
0001db   5627     movra   0x27             	MOVRA	_g_temp_value
                                           ;;103	MOVAR	r0x1032
0001dc   3c00     movai   0                	MOVAI	0x00
0001dd   5c10     orar    0x10             	ORAR	r0x102E
0001de   5628     movra   0x28             	MOVRA	(_g_temp_value + 1)
                                           ;	.line	190; "MC32P7351.c"	g_tmpbuff += g_temp_value;
0001df   5827     movar   0x27             	MOVAR	_g_temp_value
0001e0   560f     movra   0xf              	MOVRA	r0x102D
0001e1   5828     movar   0x28             	MOVAR	(_g_temp_value + 1)
0001e2   5610     movra   0x10             	MOVRA	r0x102E
0001e3   7611     clrr    0x11             	CLRR	r0x102F
0001e4   7612     clrr    0x12             	CLRR	r0x1030
0001e5   580f     movar   0xf              	MOVAR	r0x102D
0001e6   7e19     addra   0x19             	ADDRA	_g_tmpbuff
0001e7   5810     movar   0x10             	MOVAR	r0x102E
0001e8   f187     jbclr   0x187, 0         	JBCLR	PFLAG,0
0001e9   6010     jzar    0x10             	JZAR	r0x102E
0001ea   7e1a     addra   0x1a             	ADDRA	(_g_tmpbuff + 1)
0001eb   5811     movar   0x11             	MOVAR	r0x102F
0001ec   f187     jbclr   0x187, 0         	JBCLR	PFLAG,0
0001ed   6011     jzar    0x11             	JZAR	r0x102F
0001ee   7e1b     addra   0x1b             	ADDRA	(_g_tmpbuff + 2)
0001ef   5812     movar   0x12             	MOVAR	r0x1030
0001f0   f187     jbclr   0x187, 0         	JBCLR	PFLAG,0
0001f1   6012     jzar    0x12             	JZAR	r0x1030
0001f2   7e1c     addra   0x1c             	ADDRA	(_g_tmpbuff + 3)
0001f3   a1bd     goto    0x1bd            	GOTO	_00164_DS_
                                           _00166_DS_
                                           ;	.line	192; "MC32P7351.c"	g_adc_value0_temp = g_tmpbuff >> 4;//取平均值（2^4 = 16）
0001f4   4419     swapar  0x19             	SWAPAR	_g_tmpbuff
0001f5   3e0f     andai   0xf              	ANDAI	0x0f
0001f6   560e     movra   0xe              	MOVRA	r0x102C
0001f7   441a     swapar  0x1a             	SWAPAR	(_g_tmpbuff + 1)
0001f8   560f     movra   0xf              	MOVRA	r0x102D
0001f9   3ef0     andai   0xf0             	ANDAI	0xf0
0001fa   5e0e     orra    0xe              	ORRA	r0x102C
0001fb   420f     xorra   0xf              	XORRA	r0x102D
0001fc   441b     swapar  0x1b             	SWAPAR	(_g_tmpbuff + 2)
0001fd   5610     movra   0x10             	MOVRA	r0x102E
0001fe   3ef0     andai   0xf0             	ANDAI	0xf0
0001ff   5e0f     orra    0xf              	ORRA	r0x102D
000200   4210     xorra   0x10             	XORRA	r0x102E
000201   441c     swapar  0x1c             	SWAPAR	(_g_tmpbuff + 3)
000202   5611     movra   0x11             	MOVRA	r0x102F
000203   3ef0     andai   0xf0             	ANDAI	0xf0
000204   5e10     orra    0x10             	ORRA	r0x102E
000205   4211     xorra   0x11             	XORRA	r0x102F
000206   580e     movar   0xe              	MOVAR	r0x102C
000207   5623     movra   0x23             	MOVRA	_g_adc_value0_temp
000208   580f     movar   0xf              	MOVAR	r0x102D
000209   5624     movra   0x24             	MOVRA	(_g_adc_value0_temp + 1)
                                           ;	.line	193; "MC32P7351.c"	}
00020a   000c     return                   	RETURN	
                                           ; exit point of _ADC_mea
                                           
                                           ;***
                                           ;  pBlock Stats: dbName = C
                                           ;***
                                           ;entry:  _ADC_Init	;Function start
                                           ; 2 exit points
                                           ;has an exit
                                           ;; Starting pCode block
                                           _ADC_Init	;Function start
                                           ; 2 exit points
                                           ;	.line	159; "MC32P7351.c"	OEP0 &= 0xEF;                                //P04为输入口
00020b   d991     bclr    0x191, 0x4       	BCLR	_OEP0,4
                                           ;	.line	160; "MC32P7351.c"	ADIOS0 |= 0x08;                              //使能P04模拟功能
00020c   c7b6     bset    0x1b6, 0x3       	BSET	_ADIOS0,3
                                           ;	.line	161; "MC32P7351.c"	ADCR0 = 0x3f;                                //使能ADC、12位数据H8L4  P04 AN3
00020d   3c3f     movai   0x3f             	MOVAI	0x3f
00020e   57b0     movra   0x1b0            	MOVRA	_ADCR0
                                           ;	.line	162; "MC32P7351.c"	ADCR1 = 0x83;                                //32分频、VDD参考
00020f   3c83     movai   0x83             	MOVAI	0x83
000210   57b1     movra   0x1b1            	MOVRA	_ADCR1
                                           ;	.line	163; "MC32P7351.c"	ADCR2 = 0xff;                                //固定为15ADCLK 
000211   3cff     movai   0xff             	MOVAI	0xff
000212   57b2     movra   0x1b2            	MOVRA	_ADCR2
                                           ;	.line	164; "MC32P7351.c"	}
000213   000c     return                   	RETURN	
                                           ; exit point of _ADC_Init
                                           
                                           ;***
                                           ;  pBlock Stats: dbName = C
                                           ;***
                                           ;entry:  _IO_Init	;Function start
                                           ; 2 exit points
                                           ;has an exit
                                           ;; Starting pCode block
                                           _IO_Init	;Function start
                                           ; 2 exit points
                                           ;	.line	133; "MC32P7351.c"	IOP0 = 0x00;                       //io口数据位
000214   7790     clrr    0x190            	CLRR	_IOP0
                                           ;	.line	134; "MC32P7351.c"	OEP0 = 0xFE;                       //io口方向 1:out  0:in  P00输入
000215   3cfe     movai   0xfe             	MOVAI	0xfe
000216   5791     movra   0x191            	MOVRA	_OEP0
                                           ;	.line	135; "MC32P7351.c"	PUP0 = 0x01;                       //io口上拉电阻   1:enable  0:disable  P00上拉有效
000217   3c01     movai   0x1              	MOVAI	0x01
000218   5792     movra   0x192            	MOVRA	_PUP0
                                           ;	.line	136; "MC32P7351.c"	PDP0 = 0x00;                       //io口下拉电阻   1:enable  0:disable
000219   7793     clrr    0x193            	CLRR	_PDP0
                                           ;	.line	137; "MC32P7351.c"	ADIOS0 = 0x00;                     //io类型选择  1:模拟输入  0:通用io P00数字输入
00021a   77b6     clrr    0x1b6            	CLRR	_ADIOS0
                                           ;	.line	139; "MC32P7351.c"	IOP1 = 0x00;                       //io口数据位
00021b   7794     clrr    0x194            	CLRR	_IOP1
                                           ;	.line	140; "MC32P7351.c"	OEP1 = 0xFF;                       //io口方向 1:out  0:in
00021c   3cff     movai   0xff             	MOVAI	0xff
00021d   5795     movra   0x195            	MOVRA	_OEP1
                                           ;	.line	141; "MC32P7351.c"	PUP1 = 0x00;                       //io口上拉电阻   1:enable  0:disable
00021e   7796     clrr    0x196            	CLRR	_PUP1
                                           ;	.line	142; "MC32P7351.c"	PDP1 = 0x00;                       //io口下拉电阻   1:enable  0:disable
00021f   7797     clrr    0x197            	CLRR	_PDP1
                                           ;	.line	143; "MC32P7351.c"	ADIOS1 = 0x00;                     //io类型选择  1:模拟输入  0:通用io
000220   77b7     clrr    0x1b7            	CLRR	_ADIOS1
                                           ;	.line	145; "MC32P7351.c"	PMOD = 0x07;                       //bit7-bit5 P17、P13、P01 io类型选择 1:模拟输入  0:通用io 
000221   3c07     movai   0x7              	MOVAI	0x07
000222   57bc     movra   0x1bc            	MOVRA	_PMOD
                                           ;	.line	147; "MC32P7351.c"	DRVCR = 0x80;                      //普通驱动
000223   3c80     movai   0x80             	MOVAI	0x80
000224   578c     movra   0x18c            	MOVRA	_DRVCR
                                           ;	.line	148; "MC32P7351.c"	}
000225   000c     return                   	RETURN	
                                           ; exit point of _IO_Init
                                           
                                           ;***
                                           ;  pBlock Stats: dbName = C
                                           ;***
                                           ;entry:  _Uart_Send_Data	;Function start
                                           ; 2 exit points
                                           ;has an exit
                                           ;functions called:
                                           ;   _UART_send
                                           ;   _UART_send
                                           ;   _UART_send
                                           ;   _UART_send
                                           ;2 compiler assigned registers:
                                           ;   r0x1037
                                           ;   r0x1038
                                           ;; Starting pCode block
                                           _Uart_Send_Data	;Function start
                                           ; 2 exit points
                                           ;	.line	118; "MC32P7351.c"	send_data = g_adc_value0_temp & 0x00FF;
000226   5823     movar   0x23             	MOVAR	_g_adc_value0_temp
000227   5633     movra   0x33             	MOVRA	_send_data
000228   7634     clrr    0x34             	CLRR	(_send_data + 1)
                                           ;	.line	119; "MC32P7351.c"	UART_send();
000229   8231     call    0x231            	CALL	_UART_send
                                           ;;1	CLRR	r0x1037
                                           ;	.line	120; "MC32P7351.c"	send_data =  (g_adc_value0_temp & 0xff00) >> 8; 
00022a   5824     movar   0x24             	MOVAR	(_g_adc_value0_temp + 1)
00022b   560d     movra   0xd              	MOVRA	r0x1038
00022c   580d     movar   0xd              	MOVAR	r0x1038
00022d   5633     movra   0x33             	MOVRA	_send_data
00022e   7634     clrr    0x34             	CLRR	(_send_data + 1)
                                           ;	.line	121; "MC32P7351.c"	UART_send();
00022f   8231     call    0x231            	CALL	_UART_send
                                           ;	.line	122; "MC32P7351.c"	}
000230   000c     return                   	RETURN	
                                           ; exit point of _Uart_Send_Data
                                           
                                           ;***
                                           ;  pBlock Stats: dbName = C
                                           ;***
                                           ;entry:  _UART_send	;Function start
                                           ; 2 exit points
                                           ;has an exit
                                           ;functions called:
                                           ;   _delay_52us
                                           ;   _delay_52us
                                           ;   _delay_52us
                                           ;   _delay_52us
                                           ;   _delay_52us
                                           ;   _delay_52us
                                           ;   _delay_52us
                                           ;   _delay_52us
                                           ;3 compiler assigned registers:
                                           ;   STK00
                                           ;   r0x1035
                                           ;   r0x1036
                                           ;; Starting pCode block
                                           _UART_send	;Function start
                                           ; 2 exit points
                                           ;	.line	94; "MC32P7351.c"	bit_out = send_data;   	   	       	//赋值
000231   5833     movar   0x33             	MOVAR	_send_data
000232   562f     movra   0x2f             	MOVRA	_bit_out
000233   5834     movar   0x34             	MOVAR	(_send_data + 1)
000234   5630     movra   0x30             	MOVRA	(_bit_out + 1)
                                           ;	.line	96; "MC32P7351.c"	UART = 0;  	   	   	   	   	   	   	//开始发送
000235   db90     bclr    0x190, 0x5       	BCLR	_IOP0bits,5
                                           ;	.line	97; "MC32P7351.c"	delay_52us(17);        	   	       	   	//延时52us
000236   3c11     movai   0x11             	MOVAI	0x11
000237   5606     movra   0x6              	MOVRA	STK00
000238   3c00     movai   0                	MOVAI	0x00
000239   8262     call    0x262            	CALL	_delay_52us
                                           ;	.line	99; "MC32P7351.c"	while(send_cnt)    	   	   	   	   	//从左到右一位一位地发，循环8次
00023a   3c08     movai   0x8              	MOVAI	0x08
00023b   560b     movra   0xb              	MOVRA	r0x1035
00023c   760c     clrr    0xc              	CLRR	r0x1036
                                           _00142_DS_
00023d   580b     movar   0xb              	MOVAR	r0x1035
00023e   5c0c     orar    0xc              	ORAR	r0x1036
00023f   f587     jbclr   0x187, 0x2       	JBCLR	PFLAG,2
000240   a258     goto    0x258            	GOTO	_00144_DS_
                                           ;	.line	101; "MC32P7351.c"	send_cnt--;
000241   3cff     movai   0xff             	MOVAI	0xff
000242   7e0b     addra   0xb              	ADDRA	r0x1035
000243   e187     jbset   0x187, 0         	JBSET	PFLAG,0
000244   6e0c     decr    0xc              	DECR	r0x1036
                                           ;	.line	102; "MC32P7351.c"	data_bit = bit_out & 0x01;
000245   3c01     movai   0x1              	MOVAI	0x01
000246   782f     andar   0x2f             	ANDAR	_bit_out
000247   5631     movra   0x31             	MOVRA	_data_bit
000248   7632     clrr    0x32             	CLRR	(_data_bit + 1)
                                           ;	.line	103; "MC32P7351.c"	if(data_bit)
000249   5831     movar   0x31             	MOVAR	_data_bit
00024a   5c32     orar    0x32             	ORAR	(_data_bit + 1)
00024b   f587     jbclr   0x187, 0x2       	JBCLR	PFLAG,2
00024c   a24f     goto    0x24f            	GOTO	_00140_DS_
                                           ;	.line	105; "MC32P7351.c"	UART = 1;  	   	   	   	   	 //取移位值结果赋给P01,即移位为1时，P01 = 1,否则P01 = 0
00024d   cb90     bset    0x190, 0x5       	BSET	_IOP0bits,5
00024e   a250     goto    0x250            	GOTO	_00141_DS_
                                           _00140_DS_
                                           ;	.line	107; "MC32P7351.c"	else   	UART = 0;
00024f   db90     bclr    0x190, 0x5       	BCLR	_IOP0bits,5
                                           ;;shiftRight_Left2ResultLit:5339: shCount=1, size=2, sign=0, same=1, offr=0
                                           _00141_DS_
                                           ;	.line	108; "MC32P7351.c"	bit_out = bit_out >> 1;    	   	 //发完一位，右移一位赋值给下一个待发值
000250   d187     bclr    0x187, 0         	BCLR	PFLAG,0
000251   4e30     rrr     0x30             	RRR	(_bit_out + 1)
000252   4e2f     rrr     0x2f             	RRR	_bit_out
                                           ;	.line	109; "MC32P7351.c"	delay_52us(17);        	   	   	   	 //延时52us
000253   3c11     movai   0x11             	MOVAI	0x11
000254   5606     movra   0x6              	MOVRA	STK00
000255   3c00     movai   0                	MOVAI	0x00
000256   8262     call    0x262            	CALL	_delay_52us
000257   a23d     goto    0x23d            	GOTO	_00142_DS_
                                           _00144_DS_
                                           ;	.line	111; "MC32P7351.c"	UART = 1;  	   	   	   	   	   	   	 //停止发送
000258   cb90     bset    0x190, 0x5       	BSET	_IOP0bits,5
                                           ;	.line	112; "MC32P7351.c"	delay_52us(17);        	   	   	   	   	 //延时52us
000259   3c11     movai   0x11             	MOVAI	0x11
00025a   5606     movra   0x6              	MOVRA	STK00
00025b   3c00     movai   0                	MOVAI	0x00
00025c   8262     call    0x262            	CALL	_delay_52us
                                           ;	.line	113; "MC32P7351.c"	delay_52us(50);
00025d   3c32     movai   0x32             	MOVAI	0x32
00025e   5606     movra   0x6              	MOVRA	STK00
00025f   3c00     movai   0                	MOVAI	0x00
000260   8262     call    0x262            	CALL	_delay_52us
                                           ;	.line	114; "MC32P7351.c"	}
000261   000c     return                   	RETURN	
                                           ; exit point of _UART_send
                                           
                                           ;***
                                           ;  pBlock Stats: dbName = C
                                           ;***
                                           ;entry:  _delay_52us	;Function start
                                           ; 2 exit points
                                           ;has an exit
                                           ;3 compiler assigned registers:
                                           ;   r0x1033
                                           ;   STK00
                                           ;   r0x1034
                                           ;; Starting pCode block
                                           _delay_52us	;Function start
                                           ; 2 exit points
                                           ;	.line	71; "MC32P7351.c"	void delay_52us(uint   	us)
000262   560a     movra   0xa              	MOVRA	r0x1033
000263   5806     movar   0x6              	MOVAR	STK00
000264   5609     movra   0x9              	MOVRA	r0x1034
                                           _00131_DS_
                                           ;	.line	73; "MC32P7351.c"	while(us)
000265   5809     movar   0x9              	MOVAR	r0x1034
000266   5c0a     orar    0xa              	ORAR	r0x1033
000267   f587     jbclr   0x187, 0x2       	JBCLR	PFLAG,2
000268   a26e     goto    0x26e            	GOTO	_00134_DS_
                                           ;	.line	75; "MC32P7351.c"	us--;
000269   3cff     movai   0xff             	MOVAI	0xff
00026a   7e09     addra   0x9              	ADDRA	r0x1034
00026b   e187     jbset   0x187, 0         	JBSET	PFLAG,0
00026c   6e0a     decr    0xa              	DECR	r0x1033
00026d   a265     goto    0x265            	GOTO	_00131_DS_
                                           _00134_DS_
                                           ;	.line	77; "MC32P7351.c"	}
00026e   000c     return                   	RETURN	
                                           ; exit point of _delay_52us
                                           
                                           ;***
                                           ;  pBlock Stats: dbName = C
                                           ;***
                                           ;entry:  _delay	;Function start
                                           ; 2 exit points
                                           ;has an exit
                                           ;3 compiler assigned registers:
                                           ;   r0x1039
                                           ;   STK00
                                           ;   r0x103A
                                           ;; Starting pCode block
                                           _delay	;Function start
                                           ; 2 exit points
                                           ;	.line	59; "MC32P7351.c"	void delay(uint16_t num)
00026f   5608     movra   0x8              	MOVRA	r0x1039
000270   5806     movar   0x6              	MOVAR	STK00
000271   5607     movra   0x7              	MOVRA	r0x103A
                                           ;	.line	61; "MC32P7351.c"	for (i = 0; i < num; i ++)
000272   7621     clrr    0x21             	CLRR	_i
000273   7622     clrr    0x22             	CLRR	(_i + 1)
                                           _00114_DS_
000274   5808     movar   0x8              	MOVAR	r0x1039
000275   4822     rsubar  0x22             	RSUBAR	(_i + 1)
000276   e587     jbset   0x187, 0x2       	JBSET	PFLAG,2
000277   a27a     goto    0x27a            	GOTO	_00126_DS_
000278   5807     movar   0x7              	MOVAR	r0x103A
000279   4821     rsubar  0x21             	RSUBAR	_i
                                           _00126_DS_
00027a   f187     jbclr   0x187, 0         	JBCLR	PFLAG,0
00027b   a281     goto    0x281            	GOTO	_00116_DS_
                                           ;;genSkipc:3291: created from rifx:013B5EFC
                                           ;	.line	63; "MC32P7351.c"	Nop();
00027c   0000     nop                      	nop	
                                           ;	.line	61; "MC32P7351.c"	for (i = 0; i < num; i ++)
00027d   6621     incr    0x21             	INCR	_i
00027e   f587     jbclr   0x187, 0x2       	JBCLR	PFLAG,2
00027f   6622     incr    0x22             	INCR	(_i + 1)
000280   a274     goto    0x274            	GOTO	_00114_DS_
                                           _00116_DS_
                                           ;	.line	65; "MC32P7351.c"	}
000281   000c     return                   	RETURN	
                                           ; exit point of _delay
                                           
                                           ;***
                                           ;  pBlock Stats: dbName = C
                                           ;***
                                           ;entry:  _CLR_RAM	;Function start
                                           ; 2 exit points
                                           ;has an exit
                                           ;; Starting pCode block
                                           _CLR_RAM	;Function start
                                           ; 2 exit points
                                           ;	.line	46; "MC32P7351.c"	for (FSR0 = 0; FSR0 < 0xff; FSR0 ++)
000282   7784     clrr    0x184            	CLRR	_FSR0
                                           ;;unsigned compare: left < lit(0xFF=255), size=1
                                           _00107_DS_
000283   3cff     movai   0xff             	MOVAI	0xff
000284   4984     rsubar  0x184            	RSUBAR	_FSR0
000285   f187     jbclr   0x187, 0         	JBCLR	PFLAG,0
000286   a28a     goto    0x28a            	GOTO	_00105_DS_
                                           ;;genSkipc:3291: created from rifx:013B5EFC
                                           ;	.line	48; "MC32P7351.c"	INDF0 = 0x00;
000287   7780     clrr    0x180            	CLRR	_INDF0
                                           ;	.line	46; "MC32P7351.c"	for (FSR0 = 0; FSR0 < 0xff; FSR0 ++)
000288   6784     incr    0x184            	INCR	_FSR0
000289   a283     goto    0x283            	GOTO	_00107_DS_
                                           _00105_DS_
                                           ;	.line	50; "MC32P7351.c"	FSR0 = 0xFF;
00028a   3cff     movai   0xff             	MOVAI	0xff
00028b   5784     movra   0x184            	MOVRA	_FSR0
                                           ;	.line	51; "MC32P7351.c"	INDF0 = 0x00;
00028c   7780     clrr    0x180            	CLRR	_INDF0
                                           ;	.line	52; "MC32P7351.c"	}
00028d   000c     return                   	RETURN	
                                           ; exit point of _CLR_RAM
                                           
                                           
                                           ;	code size estimation:
                                           ;	  638+    0 =   638 instructions ( 1276 byte)
                                           
                                           	end
                                           ;--------------------------------------------------------
                                           ; File Created by SN-SDCC : SinoMCU ANSI-C Compiler
                                           ; Version 2.0.0 (Dec 11 2019) (MINGW32)
                                           ; This file was generated Tue Jul 23 17:05:19 2024
                                           ;--------------------------------------------------------
                                           ; MC32 port for the RISC core
                                           ;--------------------------------------------------------
                                           ;	.file	"MC32P7351.c"
                                           	list	p=7351
                                           	radix dec
                                           	include "7351.inc"
                                           ;--------------------------------------------------------
                                           ; external declarations
                                           ;--------------------------------------------------------
                                           	extern	_ADC_Power_On_Stability
                                           	extern	_ADC_Zero_ADJ
                                           	extern	_INDF0bits
                                           	extern	_INDF1bits
                                           	extern	_INDF2bits
                                           	extern	_HIBYTEbits
                                           	extern	_FSR0bits
                                           	extern	_FSR1bits
                                           	extern	_PCLbits
                                           	extern	_PFLAGbits
                                           	extern	_MCRbits
                                           	extern	_INDF3bits
                                           	extern	_INTEbits
                                           	extern	_INTFbits
                                           	extern	_DRVCRbits
                                           	extern	_PFRCCRbits
                                           	extern	_P1KBCRbits
                                           	extern	_PFRCCALbits
                                           	extern	_IOP0bits
                                           	extern	_OEP0bits
                                           	extern	_PUP0bits
                                           	extern	_PDP0bits
                                           	extern	_IOP1bits
                                           	extern	_OEP1bits
                                           	extern	_PUP1bits
                                           	extern	_PDP1bits
                                           	extern	_T0CRbits
                                           	extern	_T0CNTbits
                                           	extern	_T0LOADbits
                                           	extern	_T0DATAbits
                                           	extern	_T1CRbits
                                           	extern	_T1CNTbits
                                           	extern	_T1LOADbits
                                           	extern	_T1DATAbits
                                           	extern	_T2CRbits
                                           	extern	_T2CNTbits
                                           	extern	_T2LOADbits
                                           	extern	_T2DATAbits
                                           	extern	_T3CRbits
                                           	extern	_T3CNTbits
                                           	extern	_T3LOADbits
                                           	extern	_PWM0DRbits
                                           	extern	_PWM1DRbits
                                           	extern	_PWM2DRbits
                                           	extern	_PWMCR0bits
                                           	extern	_PWMCR1bits
                                           	extern	_OSCMRbits
                                           	extern	_LVDCRbits
                                           	extern	_ADCR0bits
                                           	extern	_ADCR1bits
                                           	extern	_ADCR2bits
                                           	extern	_OSADJCRbits
                                           	extern	_ADRHbits
                                           	extern	_ADRLbits
                                           	extern	_ADIOS0bits
                                           	extern	_ADIOS1bits
                                           	extern	_PMODbits
                                           	extern	_PWMCR3bits
                                           	extern	_PWMCR2bits
                                           	extern	_PFRCAUXbits
                                           	extern	_HIRCCALbits
                                           	extern	_INDF0
                                           	extern	_INDF1
                                           	extern	_INDF2
                                           	extern	_HIBYTE
                                           	extern	_FSR0
                                           	extern	_FSR1
                                           	extern	_PCL
                                           	extern	_PFLAG
                                           	extern	_MCR
                                           	extern	_INDF3
                                           	extern	_INTE
                                           	extern	_INTF
                                           	extern	_DRVCR
                                           	extern	_PFRCCR
                                           	extern	_P1KBCR
                                           	extern	_PFRCCAL
                                           	extern	_IOP0
                                           	extern	_OEP0
                                           	extern	_PUP0
                                           	extern	_PDP0
                                           	extern	_IOP1
                                           	extern	_OEP1
                                           	extern	_PUP1
                                           	extern	_PDP1
                                           	extern	_T0CR
                                           	extern	_T0CNT
                                           	extern	_T0LOAD
                                           	extern	_T0DATA
                                           	extern	_T1CR
                                           	extern	_T1CNT
                                           	extern	_T1LOAD
                                           	extern	_T1DATA
                                           	extern	_T2CR
                                           	extern	_T2CNT
                                           	extern	_T2LOAD
                                           	extern	_T2DATA
                                           	extern	_T3CR
                                           	extern	_T3CNT
                                           	extern	_T3LOAD
                                           	extern	_PWM0DR
                                           	extern	_PWM1DR
                                           	extern	_PWM2DR
                                           	extern	_PWMCR0
                                           	extern	_PWMCR1
                                           	extern	_OSCMR
                                           	extern	_LVDCR
                                           	extern	_ADCR0
                                           	extern	_ADCR1
                                           	extern	_ADCR2
                                           	extern	_OSADJCR
                                           	extern	_ADRH
                                           	extern	_ADRL
                                           	extern	_ADIOS0
                                           	extern	_ADIOS1
                                           	extern	_PMOD
                                           	extern	_PWMCR3
                                           	extern	_PWMCR2
                                           	extern	_PFRCAUX
                                           	extern	_HIRCCAL
                                           ;--------------------------------------------------------
                                           ; global declarations
                                           ;--------------------------------------------------------
                                           	global	_RGB_Mode_Control
                                           	global	_Key_Function
                                           	global	_Sys_Init
                                           	global	_TIMER0_INT_Init
                                           	global	_ADC_Get_Value_Average
                                           	global	_ADC_mea
                                           	global	_ADC_Init
                                           	global	_IO_Init
                                           	global	_CLR_RAM
                                           	global	_delay
                                           	global	_delay_52us
                                           	global	_UART_send
                                           	global	_Uart_Send_Data
                                           	global	_LDR_Control
                                           	global	_main
                                           	global	_int_isr
                                           	global	_abuf
                                           	global	_statusbuf
                                           	global	_i
                                           	global	_g_adc_value0_temp
                                           	global	_g_tmpbuff
                                           	global	_num
                                           	global	_duty
                                           	global	_Key_Value
                                           	global	_Key_Value_Temp
                                           	global	_Color_Value
                                           	global	_Duty_Wait_Cnt
                                           	global	_Breath_Setp_Cnt
                                           	global	_Time_25us_Cnt
                                           	global	_AD_Judement_Cnt
                                           	global	_flag1
                                           	global	_adc_star
                                           	global	_g_temp_value
                                           	global	_g_channel
                                           	global	_g_adcsum
                                           	global	_g_adcmax
                                           	global	_g_adcmin
                                           	global	_adc_data
                                           	global	_bit_out
                                           	global	_data_bit
                                           	global	_send_data
                                           
                                           	global STK06
                                           	global STK05
                                           	global STK04
                                           	global STK03
                                           	global STK02
                                           	global STK01
                                           	global STK00
                                           
                                           sharebank udata_ovr 0x0000
                                           STK06	res 1
                                           STK05	res 1
                                           STK04	res 1
                                           STK03	res 1
                                           STK02	res 1
                                           STK01	res 1
                                           STK00	res 1
                                           
                                           ;--------------------------------------------------------
                                           ; global definitions
                                           ;--------------------------------------------------------
                                           UD_MC32P7351_0	udata
                                           _abuf	res	1
                                           
                                           UD_MC32P7351_1	udata
                                           _statusbuf	res	1
                                           
                                           UD_MC32P7351_2	udata
                                           _i	res	2
                                           
                                           UD_MC32P7351_3	udata
                                           _g_adc_value0_temp	res	2
                                           
                                           UD_MC32P7351_4	udata
                                           _g_tmpbuff	res	4
                                           
                                           UD_MC32P7351_5	udata
                                           _num	res	1
                                           
                                           UD_MC32P7351_6	udata
                                           _duty	res	1
                                           
                                           UD_MC32P7351_7	udata
                                           _Key_Value	res	1
                                           
                                           UD_MC32P7351_8	udata
                                           _Key_Value_Temp	res	1
                                           
                                           UD_MC32P7351_9	udata
                                           _Color_Value	res	1
                                           
                                           UD_MC32P7351_10	udata
                                           _Duty_Wait_Cnt	res	1
                                           
                                           UD_MC32P7351_11	udata
                                           _Breath_Setp_Cnt	res	1
                                           
                                           UD_MC32P7351_12	udata
                                           _Time_25us_Cnt	res	2
                                           
                                           UD_MC32P7351_13	udata
                                           _AD_Judement_Cnt	res	1
                                           
                                           UD_MC32P7351_14	udata
                                           _flag1	res	1
                                           
                                           UD_MC32P7351_15	udata
                                           _adc_star	res	1
                                           
                                           UD_MC32P7351_16	udata
                                           _g_temp_value	res	2
                                           
                                           UD_MC32P7351_17	udata
                                           _g_channel	res	1
                                           
                                           UD_MC32P7351_18	udata
                                           _g_adcsum	res	4
                                           
                                           UD_MC32P7351_19	udata
                                           _g_adcmax	res	2
                                           
                                           UD_MC32P7351_20	udata
                                           _g_adcmin	res	2
                                           
                                           UD_MC32P7351_21	udata
                                           _adc_data	res	2
                                           
                                           UD_MC32P7351_22	udata
                                           _bit_out	res	2
                                           
                                           UD_MC32P7351_23	udata
                                           _data_bit	res	2
                                           
                                           UD_MC32P7351_24	udata
                                           _send_data	res	2
                                           
                                           ;--------------------------------------------------------
                                           ; absolute symbol definitions
                                           ;--------------------------------------------------------
                                           ;--------------------------------------------------------
                                           ; compiler-defined variables
                                           ;--------------------------------------------------------
                                           UDL_MC32P7351_0	udata
                                           r0x103A	res	1
                                           r0x1039	res	1
                                           r0x1034	res	1
                                           r0x1033	res	1
                                           r0x1035	res	1
                                           r0x1036	res	1
                                           r0x1038	res	1
                                           r0x102C	res	1
                                           r0x102D	res	1
                                           r0x102E	res	1
                                           r0x102F	res	1
                                           r0x1030	res	1
                                           r0x1025	res	1
                                           r0x1024	res	1
                                           r0x1026	res	1
                                           r0x1027	res	1
                                           r0x102B	res	1
                                           r0x102A	res	1
                                           ;--------------------------------------------------------
                                           ; initialized data
                                           ;--------------------------------------------------------
                                           
                                           ;@Allocation info for local variables in function 'CLR_RAM'
                                           ;@CLR_RAM Sys_Init                  Allocated to registers ;size:2
                                           ;@CLR_RAM IO_Init                   Allocated to registers ;size:2
                                           ;@CLR_RAM ADC_Power_On_Stability    Allocated to registers ;size:2
                                           ;@CLR_RAM ADC_Zero_ADJ              Allocated to registers ;size:2
                                           ;@CLR_RAM ADC_Init                  Allocated to registers ;size:2
                                           ;@CLR_RAM TIMER0_INT_Init           Allocated to registers ;size:2
                                           ;@CLR_RAM ADC_mea                   Allocated to registers ;size:2
                                           ;@CLR_RAM Key_Function              Allocated to registers ;size:2
                                           ;@CLR_RAM RGB_Mode_Control          Allocated to registers ;size:2
                                           ;@CLR_RAM ADC_Get_Value_Average     Allocated to registers ;size:2
                                           ;@CLR_RAM INDF0bits                 Allocated to registers ;size:1
                                           ;@CLR_RAM INDF1bits                 Allocated to registers ;size:1
                                           ;@CLR_RAM INDF2bits                 Allocated to registers ;size:1
                                           ;@CLR_RAM HIBYTEbits                Allocated to registers ;size:1
                                           ;@CLR_RAM FSR0bits                  Allocated to registers ;size:1
                                           ;@CLR_RAM FSR1bits                  Allocated to registers ;size:1
                                           ;@CLR_RAM PCLbits                   Allocated to registers ;size:1
                                           ;@CLR_RAM PFLAGbits                 Allocated to registers ;size:1
                                           ;@CLR_RAM MCRbits                   Allocated to registers ;size:1
                                           ;@CLR_RAM INDF3bits                 Allocated to registers ;size:1
                                           ;@CLR_RAM INTEbits                  Allocated to registers ;size:1
                                           ;@CLR_RAM INTFbits                  Allocated to registers ;size:1
                                           ;@CLR_RAM DRVCRbits                 Allocated to registers ;size:1
                                           ;@CLR_RAM PFRCCRbits                Allocated to registers ;size:1
                                           ;@CLR_RAM P1KBCRbits                Allocated to registers ;size:1
                                           ;@CLR_RAM PFRCCALbits               Allocated to registers ;size:1
                                           ;@CLR_RAM IOP0bits                  Allocated to registers ;size:1
                                           ;@CLR_RAM OEP0bits                  Allocated to registers ;size:1
                                           ;@CLR_RAM PUP0bits                  Allocated to registers ;size:1
                                           ;@CLR_RAM PDP0bits                  Allocated to registers ;size:1
                                           ;@CLR_RAM IOP1bits                  Allocated to registers ;size:1
                                           ;@CLR_RAM OEP1bits                  Allocated to registers ;size:1
                                           ;@CLR_RAM PUP1bits                  Allocated to registers ;size:1
                                           ;@CLR_RAM PDP1bits                  Allocated to registers ;size:1
                                           ;@CLR_RAM T0CRbits                  Allocated to registers ;size:1
                                           ;@CLR_RAM T0CNTbits                 Allocated to registers ;size:1
                                           ;@CLR_RAM T0LOADbits                Allocated to registers ;size:1
                                           ;@CLR_RAM T0DATAbits                Allocated to registers ;size:1
                                           ;@CLR_RAM T1CRbits                  Allocated to registers ;size:1
                                           ;@CLR_RAM T1CNTbits                 Allocated to registers ;size:1
                                           ;@CLR_RAM T1LOADbits                Allocated to registers ;size:1
                                           ;@CLR_RAM T1DATAbits                Allocated to registers ;size:1
                                           ;@CLR_RAM T2CRbits                  Allocated to registers ;size:1
                                           ;@CLR_RAM T2CNTbits                 Allocated to registers ;size:1
                                           ;@CLR_RAM T2LOADbits                Allocated to registers ;size:1
                                           ;@CLR_RAM T2DATAbits                Allocated to registers ;size:1
                                           ;@CLR_RAM T3CRbits                  Allocated to registers ;size:1
                                           ;@CLR_RAM T3CNTbits                 Allocated to registers ;size:1
                                           ;@CLR_RAM T3LOADbits                Allocated to registers ;size:1
                                           ;@CLR_RAM PWM0DRbits                Allocated to registers ;size:1
                                           ;@CLR_RAM PWM1DRbits                Allocated to registers ;size:1
                                           ;@CLR_RAM PWM2DRbits                Allocated to registers ;size:1
                                           ;@CLR_RAM PWMCR0bits                Allocated to registers ;size:1
                                           ;@CLR_RAM PWMCR1bits                Allocated to registers ;size:1
                                           ;@CLR_RAM OSCMRbits                 Allocated to registers ;size:1
                                           ;@CLR_RAM LVDCRbits                 Allocated to registers ;size:1
                                           ;@CLR_RAM ADCR0bits                 Allocated to registers ;size:1
                                           ;@CLR_RAM ADCR1bits                 Allocated to registers ;size:1
                                           ;@CLR_RAM ADCR2bits                 Allocated to registers ;size:1
                                           ;@CLR_RAM OSADJCRbits               Allocated to registers ;size:1
                                           ;@CLR_RAM ADRHbits                  Allocated to registers ;size:1
                                           ;@CLR_RAM ADRLbits                  Allocated to registers ;size:1
                                           ;@CLR_RAM ADIOS0bits                Allocated to registers ;size:1
                                           ;@CLR_RAM ADIOS1bits                Allocated to registers ;size:1
                                           ;@CLR_RAM PMODbits                  Allocated to registers ;size:1
                                           ;@CLR_RAM PWMCR3bits                Allocated to registers ;size:1
                                           ;@CLR_RAM PWMCR2bits                Allocated to registers ;size:1
                                           ;@CLR_RAM PFRCAUXbits               Allocated to registers ;size:1
                                           ;@CLR_RAM HIRCCALbits               Allocated to registers ;size:1
                                           ;@CLR_RAM abuf                      Allocated to registers ;size:1
                                           ;@CLR_RAM statusbuf                 Allocated to registers ;size:1
                                           ;@CLR_RAM i                         Allocated to registers ;size:2
                                           ;@CLR_RAM g_adc_value0_temp         Allocated to registers ;size:2
                                           ;@CLR_RAM g_tmpbuff                 Allocated to registers ;size:4
                                           ;@CLR_RAM num                       Allocated to registers ;size:1
                                           ;@CLR_RAM duty                      Allocated to registers ;size:1
                                           ;@CLR_RAM Key_Value                 Allocated to registers ;size:1
                                           ;@CLR_RAM Key_Value_Temp            Allocated to registers ;size:1
                                           ;@CLR_RAM Color_Value               Allocated to registers ;size:1
                                           ;@CLR_RAM Duty_Wait_Cnt             Allocated to registers ;size:1
                                           ;@CLR_RAM Breath_Setp_Cnt           Allocated to registers ;size:1
                                           ;@CLR_RAM Time_25us_Cnt             Allocated to registers ;size:2
                                           ;@CLR_RAM AD_Judement_Cnt           Allocated to registers ;size:1
                                           ;@CLR_RAM flag1                     Allocated to registers ;size:1
                                           ;@CLR_RAM adc_star                  Allocated to registers ;size:1
                                           ;@CLR_RAM g_temp_value              Allocated to registers ;size:2
                                           ;@CLR_RAM g_channel                 Allocated to registers ;size:1
                                           ;@CLR_RAM g_adcsum                  Allocated to registers ;size:4
                                           ;@CLR_RAM g_adcmax                  Allocated to registers ;size:2
                                           ;@CLR_RAM g_adcmin                  Allocated to registers ;size:2
                                           ;@CLR_RAM adc_data                  Allocated to registers ;size:2
                                           ;@CLR_RAM INDF0                     Allocated to registers ;size:1
                                           ;@CLR_RAM INDF1                     Allocated to registers ;size:1
                                           ;@CLR_RAM INDF2                     Allocated to registers ;size:1
                                           ;@CLR_RAM HIBYTE                    Allocated to registers ;size:1
                                           ;@CLR_RAM FSR0                      Allocated to registers ;size:1
                                           ;@CLR_RAM FSR1                      Allocated to registers ;size:1
                                           ;@CLR_RAM PCL                       Allocated to registers ;size:1
                                           ;@CLR_RAM PFLAG                     Allocated to registers ;size:1
                                           ;@CLR_RAM MCR                       Allocated to registers ;size:1
                                           ;@CLR_RAM INDF3                     Allocated to registers ;size:1
                                           ;@CLR_RAM INTE                      Allocated to registers ;size:1
                                           ;@CLR_RAM INTF                      Allocated to registers ;size:1
                                           ;@CLR_RAM DRVCR                     Allocated to registers ;size:1
                                           ;@CLR_RAM PFRCCR                    Allocated to registers ;size:1
                                           ;@CLR_RAM P1KBCR                    Allocated to registers ;size:1
                                           ;@CLR_RAM PFRCCAL                   Allocated to registers ;size:1
                                           ;@CLR_RAM IOP0                      Allocated to registers ;size:1
                                           ;@CLR_RAM OEP0                      Allocated to registers ;size:1
                                           ;@CLR_RAM PUP0                      Allocated to registers ;size:1
                                           ;@CLR_RAM PDP0                      Allocated to registers ;size:1
                                           ;@CLR_RAM IOP1                      Allocated to registers ;size:1
                                           ;@CLR_RAM OEP1                      Allocated to registers ;size:1
                                           ;@CLR_RAM PUP1                      Allocated to registers ;size:1
                                           ;@CLR_RAM PDP1                      Allocated to registers ;size:1
                                           ;@CLR_RAM T0CR                      Allocated to registers ;size:1
                                           ;@CLR_RAM T0CNT                     Allocated to registers ;size:1
                                           ;@CLR_RAM T0LOAD                    Allocated to registers ;size:1
                                           ;@CLR_RAM T0DATA                    Allocated to registers ;size:1
                                           ;@CLR_RAM T1CR                      Allocated to registers ;size:1
                                           ;@CLR_RAM T1CNT                     Allocated to registers ;size:1
                                           ;@CLR_RAM T1LOAD                    Allocated to registers ;size:1
                                           ;@CLR_RAM T1DATA                    Allocated to registers ;size:1
                                           ;@CLR_RAM T2CR                      Allocated to registers ;size:1
                                           ;@CLR_RAM T2CNT                     Allocated to registers ;size:1
                                           ;@CLR_RAM T2LOAD                    Allocated to registers ;size:1
                                           ;@CLR_RAM T2DATA                    Allocated to registers ;size:1
                                           ;@CLR_RAM T3CR                      Allocated to registers ;size:1
                                           ;@CLR_RAM T3CNT                     Allocated to registers ;size:1
                                           ;@CLR_RAM T3LOAD                    Allocated to registers ;size:1
                                           ;@CLR_RAM PWM0DR                    Allocated to registers ;size:1
                                           ;@CLR_RAM PWM1DR                    Allocated to registers ;size:1
                                           ;@CLR_RAM PWM2DR                    Allocated to registers ;size:1
                                           ;@CLR_RAM PWMCR0                    Allocated to registers ;size:1
                                           ;@CLR_RAM PWMCR1                    Allocated to registers ;size:1
                                           ;@CLR_RAM OSCMR                     Allocated to registers ;size:1
                                           ;@CLR_RAM LVDCR                     Allocated to registers ;size:1
                                           ;@CLR_RAM ADCR0                     Allocated to registers ;size:1
                                           ;@CLR_RAM ADCR1                     Allocated to registers ;size:1
                                           ;@CLR_RAM ADCR2                     Allocated to registers ;size:1
                                           ;@CLR_RAM OSADJCR                   Allocated to registers ;size:1
                                           ;@CLR_RAM ADRH                      Allocated to registers ;size:1
                                           ;@CLR_RAM ADRL                      Allocated to registers ;size:1
                                           ;@CLR_RAM ADIOS0                    Allocated to registers ;size:1
                                           ;@CLR_RAM ADIOS1                    Allocated to registers ;size:1
                                           ;@CLR_RAM PMOD                      Allocated to registers ;size:1
                                           ;@CLR_RAM PWMCR3                    Allocated to registers ;size:1
                                           ;@CLR_RAM PWMCR2                    Allocated to registers ;size:1
                                           ;@CLR_RAM PFRCAUX                   Allocated to registers ;size:1
                                           ;@CLR_RAM HIRCCAL                   Allocated to registers ;size:1
                                           ;@end Allocation info for local variables in function 'CLR_RAM';
                                           ;@Allocation info for local variables in function 'delay'
                                           ;@delay num                       Allocated to registers r0x103A r0x1039 ;size:2
                                           ;@end Allocation info for local variables in function 'delay';
                                           ;@Allocation info for local variables in function 'delay_52us'
                                           ;@delay_52us us                        Allocated to registers ;size:2
                                           ;@end Allocation info for local variables in function 'delay_52us';
                                           ;@Allocation info for local variables in function 'UART_send'
                                           ;@UART_send send_cnt                  Allocated to registers r0x1035 r0x1036 ;size:2
                                           ;@end Allocation info for local variables in function 'UART_send';
                                           ;@Allocation info for local variables in function 'Uart_Send_Data'
                                           ;@end Allocation info for local variables in function 'Uart_Send_Data';
                                           ;@Allocation info for local variables in function 'IO_Init'
                                           ;@end Allocation info for local variables in function 'IO_Init';
                                           ;@Allocation info for local variables in function 'ADC_Init'
                                           ;@end Allocation info for local variables in function 'ADC_Init';
                                           ;@Allocation info for local variables in function 'ADC_mea'
                                           ;@ADC_mea Icnt                      Allocated to registers r0x102C ;size:1
                                           ;@end Allocation info for local variables in function 'ADC_mea';
                                           ;@Allocation info for local variables in function 'ADC_Get_Value_Average'
                                           ;@end Allocation info for local variables in function 'ADC_Get_Value_Average';
                                           ;@Allocation info for local variables in function 'TIMER0_INT_Init'
                                           ;@end Allocation info for local variables in function 'TIMER0_INT_Init';
                                           ;@Allocation info for local variables in function 'Sys_Init'
                                           ;@end Allocation info for local variables in function 'Sys_Init';
                                           ;@Allocation info for local variables in function 'Key_Function'
                                           ;@end Allocation info for local variables in function 'Key_Function';
                                           ;@Allocation info for local variables in function 'RGB_Mode_Control'
                                           ;@end Allocation info for local variables in function 'RGB_Mode_Control';
                                           ;@Allocation info for local variables in function 'LDR_Control'
                                           ;@end Allocation info for local variables in function 'LDR_Control';
                                           ;@Allocation info for local variables in function 'main'
                                           ;@end Allocation info for local variables in function 'main';
                                           ;@Allocation info for local variables in function 'int_isr'
                                           ;@end Allocation info for local variables in function 'int_isr';
                                           
                                           ;--------------------------------------------------------
                                           ; overlayable items in internal ram 
                                           ;--------------------------------------------------------
                                           ;	udata_ovr
                                           ;--------------------------------------------------------
                                           ; reset vector 
                                           ;--------------------------------------------------------
                                           STARTUP	code 0x0000
                                           	goto	_main
                                           ;--------------------------------------------------------
                                           ; interrupt and initialization code
                                           ;--------------------------------------------------------
                                           c_interrupt	code	0x8
                                           __sdcc_interrupt
                                           ;***
                                           ;  pBlock Stats: dbName = I
                                           ;***
                                           ;entry:  _int_isr	;Function start
                                           ; 0 exit points
                                           ;; Starting pCode block
                                           _int_isr	;Function start
                                           ; 0 exit points
                                           ;	.line	433; "MC32P7351.c"	__endasm;
                                           	movra	_abuf
                                           	swapar	_PFLAG
                                           	movra	_statusbuf
                                           ;	.line	435; "MC32P7351.c"	if (T0IF && T0IE)                                //25us
                                           	JBSET	_INTFbits,0
                                           	GOTO	_00343_DS_
                                           	JBSET	_INTEbits,0
                                           	GOTO	_00343_DS_
                                           ;	.line	437; "MC32P7351.c"	T0IF = 0;
                                           	BCLR	_INTFbits,0
                                           ;	.line	439; "MC32P7351.c"	Time_25us_Cnt++;
                                           	INCR	_Time_25us_Cnt
                                           	JBCLR	PFLAG,2
                                           	INCR	(_Time_25us_Cnt + 1)
                                           ;;unsigned compare: left < lit(0x190=400), size=2
                                           ;	.line	440; "MC32P7351.c"	if (Time_25us_Cnt >= 400)
                                           	MOVAI	0x01
                                           	RSUBAR	(_Time_25us_Cnt + 1)
                                           	JBSET	PFLAG,2
                                           	GOTO	_00407_DS_
                                           	MOVAI	0x90
                                           	RSUBAR	_Time_25us_Cnt
                                           _00407_DS_
                                           	JBSET	PFLAG,0
                                           	GOTO	_00312_DS_
                                           ;;genSkipc:3291: created from rifx:013B5EFC
                                           ;	.line	442; "MC32P7351.c"	Time_25us_Cnt = 0;
                                           	CLRR	_Time_25us_Cnt
                                           	CLRR	(_Time_25us_Cnt + 1)
                                           ;	.line	444; "MC32P7351.c"	Timer_10ms_Flag = 1;
                                           	BSET	_flag1,3
                                           _00312_DS_
                                           ;	.line	447; "MC32P7351.c"	if (RGB_Breath_Flag)
                                           	JBSET	_flag1,2
                                           	GOTO	_00343_DS_
                                           ;	.line	449; "MC32P7351.c"	num++; 	   	   	//不断地增加阶数
                                           	INCR	_num
                                           ;;unsigned compare: left < lit(0xC8=200), size=1
                                           ;	.line	450; "MC32P7351.c"	if (num >= 200)    	//当阶数达到设定的值清零
                                           	MOVAI	0xc8
                                           	RSUBAR	_num
                                           	JBSET	PFLAG,0
                                           	GOTO	_00320_DS_
                                           ;;genSkipc:3291: created from rifx:013B5EFC
                                           ;	.line	452; "MC32P7351.c"	num = 0;
                                           	CLRR	_num
                                           ;	.line	454; "MC32P7351.c"	Duty_Wait_Cnt++;
                                           	INCR	_Duty_Wait_Cnt
                                           ;;unsigned compare: left < lit(0x3=3), size=1
                                           ;	.line	456; "MC32P7351.c"	if (Duty_Wait_Cnt >= 3)
                                           	MOVAI	0x03
                                           	RSUBAR	_Duty_Wait_Cnt
                                           	JBSET	PFLAG,0
                                           	GOTO	_00314_DS_
                                           ;;genSkipc:3291: created from rifx:013B5EFC
                                           ;	.line	458; "MC32P7351.c"	Duty_Wait_Cnt = 0;
                                           	CLRR	_Duty_Wait_Cnt
                                           ;	.line	460; "MC32P7351.c"	duty++;
                                           	INCR	_duty
                                           ;;swapping arguments (AOP_TYPEs 1/3)
                                           ;;unsigned compare: left >= lit(0xCC=204), size=1
                                           _00314_DS_
                                           ;	.line	463; "MC32P7351.c"	if (duty > 203)
                                           	MOVAI	0xcc
                                           	RSUBAR	_duty
                                           	JBSET	PFLAG,0
                                           	GOTO	_00320_DS_
                                           ;;genSkipc:3291: created from rifx:013B5EFC
                                           ;	.line	465; "MC32P7351.c"	duty = 0;
                                           	CLRR	_duty
                                           ;	.line	467; "MC32P7351.c"	Breath_Setp_Cnt++;
                                           	INCR	_Breath_Setp_Cnt
                                           ;;unsigned compare: left < lit(0x3=3), size=1
                                           ;	.line	469; "MC32P7351.c"	if (Breath_Setp_Cnt >= 3)
                                           	MOVAI	0x03
                                           	RSUBAR	_Breath_Setp_Cnt
                                           	JBSET	PFLAG,0
                                           	GOTO	_00320_DS_
                                           ;;genSkipc:3291: created from rifx:013B5EFC
                                           ;	.line	471; "MC32P7351.c"	Breath_Setp_Cnt = 0;
                                           	CLRR	_Breath_Setp_Cnt
                                           _00320_DS_
                                           ;	.line	477; "MC32P7351.c"	if (duty <= num)   	//占空比小于阶数时灭灯
                                           	MOVAR	_duty
                                           	RSUBAR	_num
                                           	JBSET	PFLAG,0
                                           	GOTO	_00338_DS_
                                           ;;genSkipc:3291: created from rifx:013B5EFC
                                           ;	.line	480; "MC32P7351.c"	if (Breath_Setp_Cnt == 0)
                                           	MOVAI	0x00
                                           	ORAR	_Breath_Setp_Cnt
                                           	JBSET	PFLAG,2
                                           	GOTO	_00327_DS_
                                           ;	.line	482; "MC32P7351.c"	Color_W = 0;
                                           	BCLR	_IOP1bits,3
                                           ;	.line	483; "MC32P7351.c"	Color_R = 1;
                                           	BSET	_IOP1bits,5
                                           ;	.line	484; "MC32P7351.c"	Color_G = 0;
                                           	BCLR	_IOP1bits,7
                                           ;	.line	485; "MC32P7351.c"	Color_B = 0;
                                           	BCLR	_IOP1bits,6
                                           	GOTO	_00343_DS_
                                           _00327_DS_
                                           ;	.line	487; "MC32P7351.c"	else if (Breath_Setp_Cnt == 1)
                                           	MOVAR	_Breath_Setp_Cnt
                                           	XORAI	0x01
                                           	JBSET	PFLAG,2
                                           	GOTO	_00324_DS_
                                           ;	.line	489; "MC32P7351.c"	Color_W = 0;
                                           	BCLR	_IOP1bits,3
                                           ;	.line	490; "MC32P7351.c"	Color_R = 0;
                                           	BCLR	_IOP1bits,5
                                           ;	.line	491; "MC32P7351.c"	Color_G = 0;
                                           	BCLR	_IOP1bits,7
                                           ;	.line	492; "MC32P7351.c"	Color_B = 1;
                                           	BSET	_IOP1bits,6
                                           	GOTO	_00343_DS_
                                           _00324_DS_
                                           ;	.line	494; "MC32P7351.c"	else if (Breath_Setp_Cnt == 2)
                                           	MOVAR	_Breath_Setp_Cnt
                                           	XORAI	0x02
                                           	JBSET	PFLAG,2
                                           	GOTO	_00343_DS_
                                           ;	.line	496; "MC32P7351.c"	Color_W = 0;
                                           	BCLR	_IOP1bits,3
                                           ;	.line	497; "MC32P7351.c"	Color_R = 0;
                                           	BCLR	_IOP1bits,5
                                           ;	.line	498; "MC32P7351.c"	Color_G = 1;
                                           	BSET	_IOP1bits,7
                                           ;	.line	499; "MC32P7351.c"	Color_B = 0;
                                           	BCLR	_IOP1bits,6
                                           	GOTO	_00343_DS_
                                           _00338_DS_
                                           ;	.line	506; "MC32P7351.c"	if (Breath_Setp_Cnt == 0)
                                           	MOVAI	0x00
                                           	ORAR	_Breath_Setp_Cnt
                                           	JBSET	PFLAG,2
                                           	GOTO	_00335_DS_
                                           ;	.line	508; "MC32P7351.c"	Color_W = 0;
                                           	BCLR	_IOP1bits,3
                                           ;	.line	509; "MC32P7351.c"	Color_R = 0;
                                           	BCLR	_IOP1bits,5
                                           ;	.line	510; "MC32P7351.c"	Color_G = 0;
                                           	BCLR	_IOP1bits,7
                                           ;	.line	511; "MC32P7351.c"	Color_B = 1;
                                           	BSET	_IOP1bits,6
                                           	GOTO	_00343_DS_
                                           _00335_DS_
                                           ;	.line	513; "MC32P7351.c"	else if (Breath_Setp_Cnt == 1)
                                           	MOVAR	_Breath_Setp_Cnt
                                           	XORAI	0x01
                                           	JBSET	PFLAG,2
                                           	GOTO	_00332_DS_
                                           ;	.line	515; "MC32P7351.c"	Color_W = 0;
                                           	BCLR	_IOP1bits,3
                                           ;	.line	516; "MC32P7351.c"	Color_R = 0;
                                           	BCLR	_IOP1bits,5
                                           ;	.line	517; "MC32P7351.c"	Color_G = 1;
                                           	BSET	_IOP1bits,7
                                           ;	.line	518; "MC32P7351.c"	Color_B = 0;
                                           	BCLR	_IOP1bits,6
                                           	GOTO	_00343_DS_
                                           _00332_DS_
                                           ;	.line	520; "MC32P7351.c"	else if (Breath_Setp_Cnt == 2)
                                           	MOVAR	_Breath_Setp_Cnt
                                           	XORAI	0x02
                                           	JBSET	PFLAG,2
                                           	GOTO	_00343_DS_
                                           ;	.line	522; "MC32P7351.c"	Color_W = 0;
                                           	BCLR	_IOP1bits,3
                                           ;	.line	523; "MC32P7351.c"	Color_R = 1;
                                           	BSET	_IOP1bits,5
                                           ;	.line	524; "MC32P7351.c"	Color_G = 0;
                                           	BCLR	_IOP1bits,7
                                           ;	.line	525; "MC32P7351.c"	Color_B = 0;
                                           	BCLR	_IOP1bits,6
                                           _00343_DS_
                                           ;	.line	537; "MC32P7351.c"	__endasm;
                                           	swapar	_statusbuf
                                           	movra	_PFLAG
                                           	swapr	_abuf
                                           	swapar	_abuf
                                           END_OF_INTERRUPT
                                           ;	.line	538; "MC32P7351.c"	}
                                           	RETIE	
                                           
                                           ;--------------------------------------------------------
                                           ; code
                                           ;--------------------------------------------------------
                                           code_MC32P7351	code
                                           ;***
                                           ;  pBlock Stats: dbName = M
                                           ;***
                                           ;entry:  _main	;Function start
                                           ; 2 exit points
                                           ;has an exit
                                           ;functions called:
                                           ;   _Sys_Init
                                           ;   _LDR_Control
                                           ;   _Key_Function
                                           ;   _RGB_Mode_Control
                                           ;   _Sys_Init
                                           ;   _LDR_Control
                                           ;   _Key_Function
                                           ;   _RGB_Mode_Control
                                           ;; Starting pCode block
                                           _main	;Function start
                                           ; 2 exit points
                                           ;	.line	384; "MC32P7351.c"	Sys_Init();
                                           	CALL	_Sys_Init
                                           ;	.line	387; "MC32P7351.c"	Switch_Swap_Flag = 0;
                                           	BCLR	_flag1,4
                                           ;	.line	389; "MC32P7351.c"	duty = 0;
                                           	CLRR	_duty
                                           ;	.line	391; "MC32P7351.c"	Color_Value = 0x01;
                                           	MOVAI	0x01
                                           	MOVRA	_Color_Value
                                           ;	.line	392; "MC32P7351.c"	Key_Value = 0;
                                           	CLRR	_Key_Value
                                           ;	.line	393; "MC32P7351.c"	Key_Value_Temp = 0;
                                           	CLRR	_Key_Value_Temp
                                           ;	.line	395; "MC32P7351.c"	Key_Updata_Flag = 1;
                                           	BSET	_flag1,1
                                           _00306_DS_
                                           ;	.line	399; "MC32P7351.c"	if (Timer_10ms_Flag)
                                           	JBSET	_flag1,3
                                           	GOTO	_00306_DS_
                                           ;	.line	401; "MC32P7351.c"	Timer_10ms_Flag = 0;
                                           	BCLR	_flag1,3
                                           ;	.line	405; "MC32P7351.c"	LDR_Control();
                                           	CALL	_LDR_Control
                                           ;	.line	407; "MC32P7351.c"	if (Switch_Swap_Flag == 0)
                                           	JBCLR	_flag1,4
                                           	GOTO	_00302_DS_
                                           ;	.line	409; "MC32P7351.c"	Key_Function();
                                           	CALL	_Key_Function
                                           _00302_DS_
                                           ;	.line	416; "MC32P7351.c"	RGB_Mode_Control();
                                           	CALL	_RGB_Mode_Control
                                           	GOTO	_00306_DS_
                                           ;	.line	420; "MC32P7351.c"	}
                                           	RETURN	
                                           ; exit point of _main
                                           
                                           ;***
                                           ;  pBlock Stats: dbName = C
                                           ;***
                                           ;entry:  _LDR_Control	;Function start
                                           ; 2 exit points
                                           ;has an exit
                                           ;functions called:
                                           ;   _ADC_Get_Value_Average
                                           ;   _ADC_Get_Value_Average
                                           ;   _ADC_Get_Value_Average
                                           ;   _ADC_Get_Value_Average
                                           ;3 compiler assigned registers:
                                           ;   r0x102A
                                           ;   STK00
                                           ;   r0x102B
                                           ;; Starting pCode block
                                           _LDR_Control	;Function start
                                           ; 2 exit points
                                           ;	.line	347; "MC32P7351.c"	if (ADC_Get_Value_Average() >= 2048 && !Switch_Swap_Flag)//off   2.5V
                                           	CALL	_ADC_Get_Value_Average
                                           	MOVRA	r0x102A
                                           	MOVAR	STK00
                                           	MOVRA	r0x102B
                                           ;;unsigned compare: left < lit(0x800=2048), size=2
                                           	MOVAI	0x08
                                           	RSUBAR	r0x102A
                                           	JBSET	PFLAG,2
                                           	GOTO	_00295_DS_
                                           	MOVAI	0x00
                                           	RSUBAR	r0x102B
                                           _00295_DS_
                                           	JBSET	PFLAG,0
                                           	GOTO	_00270_DS_
                                           ;;genSkipc:3291: created from rifx:013B5EFC
                                           	JBCLR	_flag1,4
                                           	GOTO	_00270_DS_
                                           ;	.line	349; "MC32P7351.c"	Switch_Swap_Flag = 1;
                                           	BSET	_flag1,4
                                           ;	.line	351; "MC32P7351.c"	Key_Value = 5;
                                           	MOVAI	0x05
                                           	MOVRA	_Key_Value
                                           ;	.line	353; "MC32P7351.c"	Key_Updata_Flag = 1;
                                           	BSET	_flag1,1
                                           ;	.line	355; "MC32P7351.c"	AD_Judement_Cnt = 0;
                                           	CLRR	_AD_Judement_Cnt
                                           	GOTO	_00273_DS_
                                           _00270_DS_
                                           ;	.line	357; "MC32P7351.c"	else if (ADC_Get_Value_Average() <= 1638 && Switch_Swap_Flag)//on   2V
                                           	CALL	_ADC_Get_Value_Average
                                           	MOVRA	r0x102A
                                           	MOVAR	STK00
                                           	MOVRA	r0x102B
                                           ;;swapping arguments (AOP_TYPEs 1/2)
                                           ;;unsigned compare: left >= lit(0x667=1639), size=2
                                           	MOVAI	0x06
                                           	RSUBAR	r0x102A
                                           	JBSET	PFLAG,2
                                           	GOTO	_00296_DS_
                                           	MOVAI	0x67
                                           	RSUBAR	r0x102B
                                           _00296_DS_
                                           	JBCLR	PFLAG,0
                                           	GOTO	_00273_DS_
                                           ;;genSkipc:3291: created from rifx:013B5EFC
                                           	JBSET	_flag1,4
                                           	GOTO	_00273_DS_
                                           ;	.line	359; "MC32P7351.c"	AD_Judement_Cnt++;
                                           	INCR	_AD_Judement_Cnt
                                           ;;unsigned compare: left < lit(0x64=100), size=1
                                           ;	.line	361; "MC32P7351.c"	if (AD_Judement_Cnt >= 100)//1000ms
                                           	MOVAI	0x64
                                           	RSUBAR	_AD_Judement_Cnt
                                           	JBSET	PFLAG,0
                                           	GOTO	_00273_DS_
                                           ;;genSkipc:3291: created from rifx:013B5EFC
                                           ;	.line	363; "MC32P7351.c"	Switch_Swap_Flag = 0;
                                           	BCLR	_flag1,4
                                           ;	.line	365; "MC32P7351.c"	Key_Value = Key_Value_Temp;
                                           	MOVAR	_Key_Value_Temp
                                           	MOVRA	_Key_Value
                                           ;	.line	367; "MC32P7351.c"	Key_Updata_Flag = 1;
                                           	BSET	_flag1,1
                                           ;	.line	369; "MC32P7351.c"	AD_Judement_Cnt = 0;
                                           	CLRR	_AD_Judement_Cnt
                                           _00273_DS_
                                           ;	.line	374; "MC32P7351.c"	}
                                           	RETURN	
                                           ; exit point of _LDR_Control
                                           
                                           ;***
                                           ;  pBlock Stats: dbName = C
                                           ;***
                                           ;entry:  _RGB_Mode_Control	;Function start
                                           ; 2 exit points
                                           ;has an exit
                                           ;; Starting pCode block
                                           _RGB_Mode_Control	;Function start
                                           ; 2 exit points
                                           ;	.line	279; "MC32P7351.c"	if (Key_Updata_Flag)
                                           	JBSET	_flag1,1
                                           	GOTO	_00259_DS_
                                           ;	.line	281; "MC32P7351.c"	Key_Updata_Flag = 0;
                                           	BCLR	_flag1,1
                                           ;	.line	283; "MC32P7351.c"	Duty_Wait_Cnt = 0;
                                           	CLRR	_Duty_Wait_Cnt
                                           ;	.line	284; "MC32P7351.c"	Breath_Setp_Cnt = 0;
                                           	CLRR	_Breath_Setp_Cnt
                                           ;	.line	285; "MC32P7351.c"	num = 0;
                                           	CLRR	_num
                                           ;	.line	286; "MC32P7351.c"	duty = 0;
                                           	CLRR	_duty
                                           ;	.line	288; "MC32P7351.c"	if (Key_Value == 4)
                                           	MOVAR	_Key_Value
                                           	XORAI	0x04
                                           	JBSET	PFLAG,2
                                           	GOTO	_00242_DS_
                                           ;	.line	290; "MC32P7351.c"	RGB_Breath_Flag = 1;
                                           	BSET	_flag1,2
                                           	GOTO	_00243_DS_
                                           _00242_DS_
                                           ;	.line	294; "MC32P7351.c"	RGB_Breath_Flag = 0;
                                           	BCLR	_flag1,2
                                           _00243_DS_
                                           ;	.line	297; "MC32P7351.c"	if (Key_Value == 0)
                                           	MOVAI	0x00
                                           	ORAR	_Key_Value
                                           	JBSET	PFLAG,2
                                           	GOTO	_00253_DS_
                                           ;	.line	299; "MC32P7351.c"	Color_W = 1;
                                           	BSET	_IOP1bits,3
                                           ;	.line	300; "MC32P7351.c"	Color_R = 0;
                                           	BCLR	_IOP1bits,5
                                           ;	.line	301; "MC32P7351.c"	Color_G = 0;
                                           	BCLR	_IOP1bits,7
                                           ;	.line	302; "MC32P7351.c"	Color_B = 0;
                                           	BCLR	_IOP1bits,6
                                           	GOTO	_00254_DS_
                                           _00253_DS_
                                           ;	.line	305; "MC32P7351.c"	else if (Key_Value == 1)
                                           	MOVAR	_Key_Value
                                           	XORAI	0x01
                                           	JBSET	PFLAG,2
                                           	GOTO	_00250_DS_
                                           ;	.line	307; "MC32P7351.c"	Color_W = 0;
                                           	BCLR	_IOP1bits,3
                                           ;	.line	308; "MC32P7351.c"	Color_R = 1;
                                           	BSET	_IOP1bits,5
                                           ;	.line	309; "MC32P7351.c"	Color_G = 0;
                                           	BCLR	_IOP1bits,7
                                           ;	.line	310; "MC32P7351.c"	Color_B = 0;
                                           	BCLR	_IOP1bits,6
                                           	GOTO	_00254_DS_
                                           _00250_DS_
                                           ;	.line	313; "MC32P7351.c"	else if (Key_Value == 2)
                                           	MOVAR	_Key_Value
                                           	XORAI	0x02
                                           	JBSET	PFLAG,2
                                           	GOTO	_00247_DS_
                                           ;	.line	315; "MC32P7351.c"	Color_W = 0;
                                           	BCLR	_IOP1bits,3
                                           ;	.line	316; "MC32P7351.c"	Color_R = 0;
                                           	BCLR	_IOP1bits,5
                                           ;	.line	317; "MC32P7351.c"	Color_G = 1;
                                           	BSET	_IOP1bits,7
                                           ;	.line	318; "MC32P7351.c"	Color_B = 0;
                                           	BCLR	_IOP1bits,6
                                           	GOTO	_00254_DS_
                                           _00247_DS_
                                           ;	.line	321; "MC32P7351.c"	else if (Key_Value == 3)
                                           	MOVAR	_Key_Value
                                           	XORAI	0x03
                                           	JBSET	PFLAG,2
                                           	GOTO	_00254_DS_
                                           ;	.line	323; "MC32P7351.c"	Color_W = 0;
                                           	BCLR	_IOP1bits,3
                                           ;	.line	324; "MC32P7351.c"	Color_R = 0;
                                           	BCLR	_IOP1bits,5
                                           ;	.line	325; "MC32P7351.c"	Color_G = 0;
                                           	BCLR	_IOP1bits,7
                                           ;	.line	326; "MC32P7351.c"	Color_B = 1;
                                           	BSET	_IOP1bits,6
                                           _00254_DS_
                                           ;	.line	330; "MC32P7351.c"	if (Key_Value == 5)
                                           	MOVAR	_Key_Value
                                           	XORAI	0x05
                                           	JBSET	PFLAG,2
                                           	GOTO	_00259_DS_
                                           ;	.line	332; "MC32P7351.c"	Color_W = 0;
                                           	BCLR	_IOP1bits,3
                                           ;	.line	333; "MC32P7351.c"	Color_R = 0;
                                           	BCLR	_IOP1bits,5
                                           ;	.line	334; "MC32P7351.c"	Color_G = 0;
                                           	BCLR	_IOP1bits,7
                                           ;	.line	335; "MC32P7351.c"	Color_B = 0;
                                           	BCLR	_IOP1bits,6
                                           ;	.line	337; "MC32P7351.c"	Duty_Wait_Cnt = 0;
                                           	CLRR	_Duty_Wait_Cnt
                                           ;	.line	338; "MC32P7351.c"	Breath_Setp_Cnt = 0;
                                           	CLRR	_Breath_Setp_Cnt
                                           ;	.line	339; "MC32P7351.c"	num = 0;
                                           	CLRR	_num
                                           ;	.line	340; "MC32P7351.c"	duty = 0;
                                           	CLRR	_duty
                                           _00259_DS_
                                           ;	.line	343; "MC32P7351.c"	}
                                           	RETURN	
                                           ; exit point of _RGB_Mode_Control
                                           
                                           ;***
                                           ;  pBlock Stats: dbName = C
                                           ;***
                                           ;entry:  _Key_Function	;Function start
                                           ; 2 exit points
                                           ;has an exit
                                           ;1 compiler assigned register :
                                           ;   r0x1024
                                           ;; Starting pCode block
                                           _Key_Function	;Function start
                                           ; 2 exit points
                                           ;	.line	258; "MC32P7351.c"	if (Key == 0 && Key_State == 0)
                                           	JBCLR	_IOP0bits,0
                                           	GOTO	_00233_DS_
                                           	JBCLR	_flag1,0
                                           	GOTO	_00233_DS_
                                           ;	.line	260; "MC32P7351.c"	Key_State = 1;
                                           	BSET	_flag1,0
                                           ;	.line	262; "MC32P7351.c"	Key_Updata_Flag = 1;
                                           	BSET	_flag1,1
                                           ;	.line	264; "MC32P7351.c"	Key_Value++;
                                           	INCR	_Key_Value
                                           ;;swapping arguments (AOP_TYPEs 1/3)
                                           ;;unsigned compare: left >= lit(0x5=5), size=1
                                           ;	.line	266; "MC32P7351.c"	if (Key_Value > 4)
                                           	MOVAI	0x05
                                           	RSUBAR	_Key_Value
                                           	JBSET	PFLAG,0
                                           	GOTO	_00229_DS_
                                           ;;genSkipc:3291: created from rifx:013B5EFC
                                           ;	.line	267; "MC32P7351.c"	Key_Value = 0;
                                           	CLRR	_Key_Value
                                           _00229_DS_
                                           ;	.line	269; "MC32P7351.c"	Key_Value_Temp = Key_Value;
                                           	MOVAR	_Key_Value
                                           	MOVRA	_Key_Value_Temp
                                           	GOTO	_00236_DS_
                                           _00233_DS_
                                           ;	.line	271; "MC32P7351.c"	else if(Key == 1)
                                           	CLRR	r0x1024
                                           	JBCLR	_IOP0bits,0
                                           	INCR	r0x1024
                                           	MOVAR	r0x1024
                                           	XORAI	0x01
                                           	JBSET	PFLAG,2
                                           	GOTO	_00236_DS_
                                           ;	.line	273; "MC32P7351.c"	Key_State = 0;
                                           	BCLR	_flag1,0
                                           _00236_DS_
                                           ;	.line	275; "MC32P7351.c"	}
                                           	RETURN	
                                           ; exit point of _Key_Function
                                           
                                           ;***
                                           ;  pBlock Stats: dbName = C
                                           ;***
                                           ;entry:  _Sys_Init	;Function start
                                           ; 2 exit points
                                           ;has an exit
                                           ;functions called:
                                           ;   _CLR_RAM
                                           ;   _IO_Init
                                           ;   _ADC_Init
                                           ;   _TIMER0_INT_Init
                                           ;   _CLR_RAM
                                           ;   _IO_Init
                                           ;   _ADC_Init
                                           ;   _TIMER0_INT_Init
                                           ;; Starting pCode block
                                           _Sys_Init	;Function start
                                           ; 2 exit points
                                           ;	.line	246; "MC32P7351.c"	GIE = 0;
                                           	BCLR	_MCRbits,7
                                           ;	.line	247; "MC32P7351.c"	CLR_RAM();
                                           	CALL	_CLR_RAM
                                           ;	.line	248; "MC32P7351.c"	IO_Init();
                                           	CALL	_IO_Init
                                           ;	.line	251; "MC32P7351.c"	ADC_Init();
                                           	CALL	_ADC_Init
                                           ;	.line	252; "MC32P7351.c"	TIMER0_INT_Init();
                                           	CALL	_TIMER0_INT_Init
                                           ;	.line	254; "MC32P7351.c"	}
                                           	RETURN	
                                           ; exit point of _Sys_Init
                                           
                                           ;***
                                           ;  pBlock Stats: dbName = C
                                           ;***
                                           ;entry:  _TIMER0_INT_Init	;Function start
                                           ; 2 exit points
                                           ;has an exit
                                           ;; Starting pCode block
                                           _TIMER0_INT_Init	;Function start
                                           ; 2 exit points
                                           ;	.line	230; "MC32P7351.c"	T0CR = 0x00;                        //CPU = 32M/16 = 2M,1分频 = 2M
                                           	CLRR	_T0CR
                                           ;	.line	231; "MC32P7351.c"	T0CNT = 50-1;
                                           	MOVAI	0x31
                                           	MOVRA	_T0CNT
                                           ;	.line	232; "MC32P7351.c"	T0LOAD = 50-1;                               //25us
                                           	MOVAI	0x31
                                           	MOVRA	_T0LOAD
                                           ;	.line	233; "MC32P7351.c"	T0EN = 1;                                    //开启定时器
                                           	BSET	_T0CRbits,7
                                           ;	.line	234; "MC32P7351.c"	T0IE = 1;                                    //总中断标志
                                           	BSET	_INTEbits,0
                                           ;	.line	236; "MC32P7351.c"	GIE = 1;                                     //中断总使能标志
                                           	BSET	_MCRbits,7
                                           ;	.line	237; "MC32P7351.c"	}
                                           	RETURN	
                                           ; exit point of _TIMER0_INT_Init
                                           
                                           ;***
                                           ;  pBlock Stats: dbName = C
                                           ;***
                                           ;entry:  _ADC_Get_Value_Average	;Function start
                                           ; 2 exit points
                                           ;has an exit
                                           ;7 compiler assigned registers:
                                           ;   r0x1024
                                           ;   r0x1025
                                           ;   r0x1026
                                           ;   r0x1027
                                           ;   r0x1028
                                           ;   r0x1029
                                           ;   STK00
                                           ;; Starting pCode block
                                           _ADC_Get_Value_Average	;Function start
                                           ; 2 exit points
                                           ;	.line	198; "MC32P7351.c"	g_adcsum = 0;
                                           	CLRR	_g_adcsum
                                           	CLRR	(_g_adcsum + 1)
                                           	CLRR	(_g_adcsum + 2)
                                           	CLRR	(_g_adcsum + 3)
                                           ;	.line	199; "MC32P7351.c"	g_adcmax = 0;
                                           	CLRR	_g_adcmax
                                           	CLRR	(_g_adcmax + 1)
                                           ;	.line	200; "MC32P7351.c"	g_adcmin = 0xffff;
                                           	MOVAI	0xff
                                           	MOVRA	_g_adcmin
                                           	MOVRA	(_g_adcmin + 1)
                                           ;	.line	202; "MC32P7351.c"	for (g_channel = 0; g_channel < 20; g_channel ++)
                                           	CLRR	_g_channel
                                           _00182_DS_
                                           ;	.line	204; "MC32P7351.c"	ADEOC = 0;
                                           	BCLR	_ADCR0bits,1
                                           _00171_DS_
                                           ;	.line	205; "MC32P7351.c"	while (!ADEOC);                         //等待转换完成
                                           	JBSET	_ADCR0bits,1
                                           	GOTO	_00171_DS_
                                           ;	.line	206; "MC32P7351.c"	g_temp_value = ADRH;
                                           	MOVAR	_ADRH
                                           	MOVRA	_g_temp_value
                                           	CLRR	(_g_temp_value + 1)
                                           ;	.line	207; "MC32P7351.c"	g_temp_value = g_temp_value << 4 | (ADRL & 0x0f);
                                           	SWAPAR	(_g_temp_value + 1)
                                           	ANDAI	0xf0
                                           	MOVRA	r0x1024
                                           	SWAPAR	_g_temp_value
                                           	MOVRA	r0x1025
                                           	ANDAI	0x0f
                                           	ORRA	r0x1024
                                           	XORRA	r0x1025
                                           	MOVAR	_ADRL
                                           	MOVRA	r0x1026
                                           	CLRR	r0x1027
                                           	MOVAI	0x0f
                                           	ANDRA	r0x1026
                                           	CLRR	r0x1027
                                           ;;107	MOVAR	r0x1026
                                           ;;105	MOVRA	r0x1028
                                           ;;110	MOVAR	r0x1027
                                           ;;108	MOVRA	r0x1029
                                           ;;106	MOVAR	r0x1028
                                           	MOVAR	r0x1026
                                           	ORAR	r0x1025
                                           	MOVRA	_g_temp_value
                                           ;;109	MOVAR	r0x1029
                                           	MOVAI	0x00
                                           	ORAR	r0x1024
                                           	MOVRA	(_g_temp_value + 1)
                                           ;;unsigned compare: left < lit(0x2=2), size=1
                                           ;	.line	208; "MC32P7351.c"	if (g_channel < 2)
                                           	MOVAI	0x02
                                           	RSUBAR	_g_channel
                                           	JBSET	PFLAG,0
                                           	GOTO	_00180_DS_
                                           ;;genSkipc:3291: created from rifx:013B5EFC
                                           ;	.line	211; "MC32P7351.c"	if (g_temp_value > g_adcmax)
                                           	MOVAR	(_g_temp_value + 1)
                                           	RSUBAR	(_g_adcmax + 1)
                                           	JBSET	PFLAG,2
                                           	GOTO	_00214_DS_
                                           	MOVAR	_g_temp_value
                                           	RSUBAR	_g_adcmax
                                           _00214_DS_
                                           	JBCLR	PFLAG,0
                                           	GOTO	_00177_DS_
                                           ;;genSkipc:3291: created from rifx:013B5EFC
                                           ;	.line	212; "MC32P7351.c"	g_adcmax = g_temp_value;             //最大
                                           	MOVAR	_g_temp_value
                                           	MOVRA	_g_adcmax
                                           	MOVAR	(_g_temp_value + 1)
                                           	MOVRA	(_g_adcmax + 1)
                                           _00177_DS_
                                           ;	.line	213; "MC32P7351.c"	if (g_temp_value < g_adcmin)
                                           	MOVAR	(_g_adcmin + 1)
                                           	RSUBAR	(_g_temp_value + 1)
                                           	JBSET	PFLAG,2
                                           	GOTO	_00215_DS_
                                           	MOVAR	_g_adcmin
                                           	RSUBAR	_g_temp_value
                                           _00215_DS_
                                           	JBCLR	PFLAG,0
                                           	GOTO	_00179_DS_
                                           ;;genSkipc:3291: created from rifx:013B5EFC
                                           ;	.line	214; "MC32P7351.c"	g_adcmin = g_temp_value;             //最小
                                           	MOVAR	_g_temp_value
                                           	MOVRA	_g_adcmin
                                           	MOVAR	(_g_temp_value + 1)
                                           	MOVRA	(_g_adcmin + 1)
                                           _00179_DS_
                                           ;	.line	215; "MC32P7351.c"	g_adcsum += g_temp_value;  	   	
                                           	MOVAR	_g_temp_value
                                           	MOVRA	r0x1025
                                           	MOVAR	(_g_temp_value + 1)
                                           	MOVRA	r0x1024
                                           	CLRR	r0x1026
                                           	CLRR	r0x1027
                                           	MOVAR	r0x1025
                                           	ADDRA	_g_adcsum
                                           	MOVAR	r0x1024
                                           	JBCLR	PFLAG,0
                                           	JZAR	r0x1024
                                           	ADDRA	(_g_adcsum + 1)
                                           	MOVAR	r0x1026
                                           	JBCLR	PFLAG,0
                                           	JZAR	r0x1026
                                           	ADDRA	(_g_adcsum + 2)
                                           	MOVAR	r0x1027
                                           	JBCLR	PFLAG,0
                                           	JZAR	r0x1027
                                           	ADDRA	(_g_adcsum + 3)
                                           _00180_DS_
                                           ;	.line	202; "MC32P7351.c"	for (g_channel = 0; g_channel < 20; g_channel ++)
                                           	INCR	_g_channel
                                           ;;unsigned compare: left < lit(0x14=20), size=1
                                           	MOVAI	0x14
                                           	RSUBAR	_g_channel
                                           	JBSET	PFLAG,0
                                           	GOTO	_00182_DS_
                                           ;;genSkipc:3291: created from rifx:013B5EFC
                                           ;	.line	217; "MC32P7351.c"	g_adcsum -= g_adcmax;                       //去掉一个最大
                                           	MOVAR	_g_adcmax
                                           	MOVRA	r0x1025
                                           	MOVAR	(_g_adcmax + 1)
                                           	MOVRA	r0x1024
                                           	CLRR	r0x1026
                                           	CLRR	r0x1027
                                           	MOVAR	r0x1025
                                           	RSUBRA	_g_adcsum
                                           	MOVAR	r0x1024
                                           	JBSET	PFLAG,0
                                           	JZAR	r0x1024
                                           	RSUBRA	(_g_adcsum + 1)
                                           	MOVAR	r0x1026
                                           	JBSET	PFLAG,0
                                           	JZAR	r0x1026
                                           	RSUBRA	(_g_adcsum + 2)
                                           	MOVAR	r0x1027
                                           	JBSET	PFLAG,0
                                           	JZAR	r0x1027
                                           	RSUBRA	(_g_adcsum + 3)
                                           ;	.line	218; "MC32P7351.c"	g_adcsum -= g_adcmin;                       //去掉一个最小
                                           	MOVAR	_g_adcmin
                                           	MOVRA	r0x1025
                                           	MOVAR	(_g_adcmin + 1)
                                           	MOVRA	r0x1024
                                           	CLRR	r0x1026
                                           	CLRR	r0x1027
                                           	MOVAR	r0x1025
                                           	RSUBRA	_g_adcsum
                                           	MOVAR	r0x1024
                                           	JBSET	PFLAG,0
                                           	JZAR	r0x1024
                                           	RSUBRA	(_g_adcsum + 1)
                                           	MOVAR	r0x1026
                                           	JBSET	PFLAG,0
                                           	JZAR	r0x1026
                                           	RSUBRA	(_g_adcsum + 2)
                                           	MOVAR	r0x1027
                                           	JBSET	PFLAG,0
                                           	JZAR	r0x1027
                                           	RSUBRA	(_g_adcsum + 3)
                                           ;	.line	219; "MC32P7351.c"	g_temp_value = (g_adcsum >> 4);             //除以16，取平均值
                                           	SWAPAR	_g_adcsum
                                           	ANDAI	0x0f
                                           	MOVRA	r0x1025
                                           	SWAPAR	(_g_adcsum + 1)
                                           	MOVRA	r0x1024
                                           	ANDAI	0xf0
                                           	ORRA	r0x1025
                                           	XORRA	r0x1024
                                           	SWAPAR	(_g_adcsum + 2)
                                           	MOVRA	r0x1026
                                           	ANDAI	0xf0
                                           	ORRA	r0x1024
                                           	XORRA	r0x1026
                                           	SWAPAR	(_g_adcsum + 3)
                                           	MOVRA	r0x1027
                                           	ANDAI	0xf0
                                           	ORRA	r0x1026
                                           	XORRA	r0x1027
                                           	MOVAR	r0x1025
                                           	MOVRA	_g_temp_value
                                           	MOVAR	r0x1024
                                           	MOVRA	(_g_temp_value + 1)
                                           ;	.line	220; "MC32P7351.c"	return g_temp_value;
                                           	MOVAR	_g_temp_value
                                           	MOVRA	STK00
                                           	MOVAR	(_g_temp_value + 1)
                                           ;	.line	221; "MC32P7351.c"	}
                                           	RETURN	
                                           ; exit point of _ADC_Get_Value_Average
                                           
                                           ;***
                                           ;  pBlock Stats: dbName = C
                                           ;***
                                           ;entry:  _ADC_mea	;Function start
                                           ; 2 exit points
                                           ;has an exit
                                           ;7 compiler assigned registers:
                                           ;   r0x102C
                                           ;   r0x102D
                                           ;   r0x102E
                                           ;   r0x102F
                                           ;   r0x1030
                                           ;   r0x1031
                                           ;   r0x1032
                                           ;; Starting pCode block
                                           _ADC_mea	;Function start
                                           ; 2 exit points
                                           ;	.line	175; "MC32P7351.c"	g_temp_value = 0;
                                           	CLRR	_g_temp_value
                                           	CLRR	(_g_temp_value + 1)
                                           ;	.line	176; "MC32P7351.c"	g_tmpbuff = 0;
                                           	CLRR	_g_tmpbuff
                                           	CLRR	(_g_tmpbuff + 1)
                                           	CLRR	(_g_tmpbuff + 2)
                                           	CLRR	(_g_tmpbuff + 3)
                                           ;	.line	180; "MC32P7351.c"	while (Icnt--)
                                           	MOVAI	0x10
                                           	MOVRA	r0x102C
                                           _00164_DS_
                                           	MOVAR	r0x102C
                                           	MOVRA	r0x102D
                                           	DECR	r0x102C
                                           	MOVAI	0x00
                                           	ORAR	r0x102D
                                           	JBCLR	PFLAG,2
                                           	GOTO	_00166_DS_
                                           ;	.line	182; "MC32P7351.c"	ADEOC = 0; 	   	//开始ADC转换
                                           	BCLR	_ADCR0bits,1
                                           _00161_DS_
                                           ;	.line	183; "MC32P7351.c"	while (!ADEOC) 	   	//等待ADC转换结果
                                           	JBCLR	_ADCR0bits,1
                                           	GOTO	_00163_DS_
                                           ;	.line	188; "MC32P7351.c"	g_temp_value = ADRH;
                                           	MOVAR	_ADRH
                                           	MOVRA	_g_temp_value
                                           	CLRR	(_g_temp_value + 1)
                                           	GOTO	_00161_DS_
                                           _00163_DS_
                                           ;	.line	189; "MC32P7351.c"	g_temp_value = g_temp_value << 4 | (ADRL & 0x0f);
                                           	SWAPAR	(_g_temp_value + 1)
                                           	ANDAI	0xf0
                                           	MOVRA	r0x102E
                                           	SWAPAR	_g_temp_value
                                           	MOVRA	r0x102D
                                           	ANDAI	0x0f
                                           	ORRA	r0x102E
                                           	XORRA	r0x102D
                                           	MOVAR	_ADRL
                                           	MOVRA	r0x102F
                                           	CLRR	r0x1030
                                           	MOVAI	0x0f
                                           	ANDRA	r0x102F
                                           	CLRR	r0x1030
                                           ;;101	MOVAR	r0x102F
                                           ;;99	MOVRA	r0x1031
                                           ;;104	MOVAR	r0x1030
                                           ;;102	MOVRA	r0x1032
                                           ;;100	MOVAR	r0x1031
                                           	MOVAR	r0x102F
                                           	ORAR	r0x102D
                                           	MOVRA	_g_temp_value
                                           ;;103	MOVAR	r0x1032
                                           	MOVAI	0x00
                                           	ORAR	r0x102E
                                           	MOVRA	(_g_temp_value + 1)
                                           ;	.line	190; "MC32P7351.c"	g_tmpbuff += g_temp_value;
                                           	MOVAR	_g_temp_value
                                           	MOVRA	r0x102D
                                           	MOVAR	(_g_temp_value + 1)
                                           	MOVRA	r0x102E
                                           	CLRR	r0x102F
                                           	CLRR	r0x1030
                                           	MOVAR	r0x102D
                                           	ADDRA	_g_tmpbuff
                                           	MOVAR	r0x102E
                                           	JBCLR	PFLAG,0
                                           	JZAR	r0x102E
                                           	ADDRA	(_g_tmpbuff + 1)
                                           	MOVAR	r0x102F
                                           	JBCLR	PFLAG,0
                                           	JZAR	r0x102F
                                           	ADDRA	(_g_tmpbuff + 2)
                                           	MOVAR	r0x1030
                                           	JBCLR	PFLAG,0
                                           	JZAR	r0x1030
                                           	ADDRA	(_g_tmpbuff + 3)
                                           	GOTO	_00164_DS_
                                           _00166_DS_
                                           ;	.line	192; "MC32P7351.c"	g_adc_value0_temp = g_tmpbuff >> 4;//取平均值（2^4 = 16）
                                           	SWAPAR	_g_tmpbuff
                                           	ANDAI	0x0f
                                           	MOVRA	r0x102C
                                           	SWAPAR	(_g_tmpbuff + 1)
                                           	MOVRA	r0x102D
                                           	ANDAI	0xf0
                                           	ORRA	r0x102C
                                           	XORRA	r0x102D
                                           	SWAPAR	(_g_tmpbuff + 2)
                                           	MOVRA	r0x102E
                                           	ANDAI	0xf0
                                           	ORRA	r0x102D
                                           	XORRA	r0x102E
                                           	SWAPAR	(_g_tmpbuff + 3)
                                           	MOVRA	r0x102F
                                           	ANDAI	0xf0
                                           	ORRA	r0x102E
                                           	XORRA	r0x102F
                                           	MOVAR	r0x102C
                                           	MOVRA	_g_adc_value0_temp
                                           	MOVAR	r0x102D
                                           	MOVRA	(_g_adc_value0_temp + 1)
                                           ;	.line	193; "MC32P7351.c"	}
                                           	RETURN	
                                           ; exit point of _ADC_mea
                                           
                                           ;***
                                           ;  pBlock Stats: dbName = C
                                           ;***
                                           ;entry:  _ADC_Init	;Function start
                                           ; 2 exit points
                                           ;has an exit
                                           ;; Starting pCode block
                                           _ADC_Init	;Function start
                                           ; 2 exit points
                                           ;	.line	159; "MC32P7351.c"	OEP0 &= 0xEF;                                //P04为输入口
                                           	BCLR	_OEP0,4
                                           ;	.line	160; "MC32P7351.c"	ADIOS0 |= 0x08;                              //使能P04模拟功能
                                           	BSET	_ADIOS0,3
                                           ;	.line	161; "MC32P7351.c"	ADCR0 = 0x3f;                                //使能ADC、12位数据H8L4  P04 AN3
                                           	MOVAI	0x3f
                                           	MOVRA	_ADCR0
                                           ;	.line	162; "MC32P7351.c"	ADCR1 = 0x83;                                //32分频、VDD参考
                                           	MOVAI	0x83
                                           	MOVRA	_ADCR1
                                           ;	.line	163; "MC32P7351.c"	ADCR2 = 0xff;                                //固定为15ADCLK 
                                           	MOVAI	0xff
                                           	MOVRA	_ADCR2
                                           ;	.line	164; "MC32P7351.c"	}
                                           	RETURN	
                                           ; exit point of _ADC_Init
                                           
                                           ;***
                                           ;  pBlock Stats: dbName = C
                                           ;***
                                           ;entry:  _IO_Init	;Function start
                                           ; 2 exit points
                                           ;has an exit
                                           ;; Starting pCode block
                                           _IO_Init	;Function start
                                           ; 2 exit points
                                           ;	.line	133; "MC32P7351.c"	IOP0 = 0x00;                       //io口数据位
                                           	CLRR	_IOP0
                                           ;	.line	134; "MC32P7351.c"	OEP0 = 0xFE;                       //io口方向 1:out  0:in  P00输入
                                           	MOVAI	0xfe
                                           	MOVRA	_OEP0
                                           ;	.line	135; "MC32P7351.c"	PUP0 = 0x01;                       //io口上拉电阻   1:enable  0:disable  P00上拉有效
                                           	MOVAI	0x01
                                           	MOVRA	_PUP0
                                           ;	.line	136; "MC32P7351.c"	PDP0 = 0x00;                       //io口下拉电阻   1:enable  0:disable
                                           	CLRR	_PDP0
                                           ;	.line	137; "MC32P7351.c"	ADIOS0 = 0x00;                     //io类型选择  1:模拟输入  0:通用io P00数字输入
                                           	CLRR	_ADIOS0
                                           ;	.line	139; "MC32P7351.c"	IOP1 = 0x00;                       //io口数据位
                                           	CLRR	_IOP1
                                           ;	.line	140; "MC32P7351.c"	OEP1 = 0xFF;                       //io口方向 1:out  0:in
                                           	MOVAI	0xff
                                           	MOVRA	_OEP1
                                           ;	.line	141; "MC32P7351.c"	PUP1 = 0x00;                       //io口上拉电阻   1:enable  0:disable
                                           	CLRR	_PUP1
                                           ;	.line	142; "MC32P7351.c"	PDP1 = 0x00;                       //io口下拉电阻   1:enable  0:disable
                                           	CLRR	_PDP1
                                           ;	.line	143; "MC32P7351.c"	ADIOS1 = 0x00;                     //io类型选择  1:模拟输入  0:通用io
                                           	CLRR	_ADIOS1
                                           ;	.line	145; "MC32P7351.c"	PMOD = 0x07;                       //bit7-bit5 P17、P13、P01 io类型选择 1:模拟输入  0:通用io 
                                           	MOVAI	0x07
                                           	MOVRA	_PMOD
                                           ;	.line	147; "MC32P7351.c"	DRVCR = 0x80;                      //普通驱动
                                           	MOVAI	0x80
                                           	MOVRA	_DRVCR
                                           ;	.line	148; "MC32P7351.c"	}
                                           	RETURN	
                                           ; exit point of _IO_Init
                                           
                                           ;***
                                           ;  pBlock Stats: dbName = C
                                           ;***
                                           ;entry:  _Uart_Send_Data	;Function start
                                           ; 2 exit points
                                           ;has an exit
                                           ;functions called:
                                           ;   _UART_send
                                           ;   _UART_send
                                           ;   _UART_send
                                           ;   _UART_send
                                           ;2 compiler assigned registers:
                                           ;   r0x1037
                                           ;   r0x1038
                                           ;; Starting pCode block
                                           _Uart_Send_Data	;Function start
                                           ; 2 exit points
                                           ;	.line	118; "MC32P7351.c"	send_data = g_adc_value0_temp & 0x00FF;
                                           	MOVAR	_g_adc_value0_temp
                                           	MOVRA	_send_data
                                           	CLRR	(_send_data + 1)
                                           ;	.line	119; "MC32P7351.c"	UART_send();
                                           	CALL	_UART_send
                                           ;;1	CLRR	r0x1037
                                           ;	.line	120; "MC32P7351.c"	send_data =  (g_adc_value0_temp & 0xff00) >> 8; 
                                           	MOVAR	(_g_adc_value0_temp + 1)
                                           	MOVRA	r0x1038
                                           	MOVAR	r0x1038
                                           	MOVRA	_send_data
                                           	CLRR	(_send_data + 1)
                                           ;	.line	121; "MC32P7351.c"	UART_send();
                                           	CALL	_UART_send
                                           ;	.line	122; "MC32P7351.c"	}
                                           	RETURN	
                                           ; exit point of _Uart_Send_Data
                                           
                                           ;***
                                           ;  pBlock Stats: dbName = C
                                           ;***
                                           ;entry:  _UART_send	;Function start
                                           ; 2 exit points
                                           ;has an exit
                                           ;functions called:
                                           ;   _delay_52us
                                           ;   _delay_52us
                                           ;   _delay_52us
                                           ;   _delay_52us
                                           ;   _delay_52us
                                           ;   _delay_52us
                                           ;   _delay_52us
                                           ;   _delay_52us
                                           ;3 compiler assigned registers:
                                           ;   STK00
                                           ;   r0x1035
                                           ;   r0x1036
                                           ;; Starting pCode block
                                           _UART_send	;Function start
                                           ; 2 exit points
                                           ;	.line	94; "MC32P7351.c"	bit_out = send_data;   	   	       	//赋值
                                           	MOVAR	_send_data
                                           	MOVRA	_bit_out
                                           	MOVAR	(_send_data + 1)
                                           	MOVRA	(_bit_out + 1)
                                           ;	.line	96; "MC32P7351.c"	UART = 0;  	   	   	   	   	   	   	//开始发送
                                           	BCLR	_IOP0bits,5
                                           ;	.line	97; "MC32P7351.c"	delay_52us(17);        	   	       	   	//延时52us
                                           	MOVAI	0x11
                                           	MOVRA	STK00
                                           	MOVAI	0x00
                                           	CALL	_delay_52us
                                           ;	.line	99; "MC32P7351.c"	while(send_cnt)    	   	   	   	   	//从左到右一位一位地发，循环8次
                                           	MOVAI	0x08
                                           	MOVRA	r0x1035
                                           	CLRR	r0x1036
                                           _00142_DS_
                                           	MOVAR	r0x1035
                                           	ORAR	r0x1036
                                           	JBCLR	PFLAG,2
                                           	GOTO	_00144_DS_
                                           ;	.line	101; "MC32P7351.c"	send_cnt--;
                                           	MOVAI	0xff
                                           	ADDRA	r0x1035
                                           	JBSET	PFLAG,0
                                           	DECR	r0x1036
                                           ;	.line	102; "MC32P7351.c"	data_bit = bit_out & 0x01;
                                           	MOVAI	0x01
                                           	ANDAR	_bit_out
                                           	MOVRA	_data_bit
                                           	CLRR	(_data_bit + 1)
                                           ;	.line	103; "MC32P7351.c"	if(data_bit)
                                           	MOVAR	_data_bit
                                           	ORAR	(_data_bit + 1)
                                           	JBCLR	PFLAG,2
                                           	GOTO	_00140_DS_
                                           ;	.line	105; "MC32P7351.c"	UART = 1;  	   	   	   	   	 //取移位值结果赋给P01,即移位为1时，P01 = 1,否则P01 = 0
                                           	BSET	_IOP0bits,5
                                           	GOTO	_00141_DS_
                                           _00140_DS_
                                           ;	.line	107; "MC32P7351.c"	else   	UART = 0;
                                           	BCLR	_IOP0bits,5
                                           ;;shiftRight_Left2ResultLit:5339: shCount=1, size=2, sign=0, same=1, offr=0
                                           _00141_DS_
                                           ;	.line	108; "MC32P7351.c"	bit_out = bit_out >> 1;    	   	 //发完一位，右移一位赋值给下一个待发值
                                           	BCLR	PFLAG,0
                                           	RRR	(_bit_out + 1)
                                           	RRR	_bit_out
                                           ;	.line	109; "MC32P7351.c"	delay_52us(17);        	   	   	   	 //延时52us
                                           	MOVAI	0x11
                                           	MOVRA	STK00
                                           	MOVAI	0x00
                                           	CALL	_delay_52us
                                           	GOTO	_00142_DS_
                                           _00144_DS_
                                           ;	.line	111; "MC32P7351.c"	UART = 1;  	   	   	   	   	   	   	 //停止发送
                                           	BSET	_IOP0bits,5
                                           ;	.line	112; "MC32P7351.c"	delay_52us(17);        	   	   	   	   	 //延时52us
                                           	MOVAI	0x11
                                           	MOVRA	STK00
                                           	MOVAI	0x00
                                           	CALL	_delay_52us
                                           ;	.line	113; "MC32P7351.c"	delay_52us(50);
                                           	MOVAI	0x32
                                           	MOVRA	STK00
                                           	MOVAI	0x00
                                           	CALL	_delay_52us
                                           ;	.line	114; "MC32P7351.c"	}
                                           	RETURN	
                                           ; exit point of _UART_send
                                           
                                           ;***
                                           ;  pBlock Stats: dbName = C
                                           ;***
                                           ;entry:  _delay_52us	;Function start
                                           ; 2 exit points
                                           ;has an exit
                                           ;3 compiler assigned registers:
                                           ;   r0x1033
                                           ;   STK00
                                           ;   r0x1034
                                           ;; Starting pCode block
                                           _delay_52us	;Function start
                                           ; 2 exit points
                                           ;	.line	71; "MC32P7351.c"	void delay_52us(uint   	us)
                                           	MOVRA	r0x1033
                                           	MOVAR	STK00
                                           	MOVRA	r0x1034
                                           _00131_DS_
                                           ;	.line	73; "MC32P7351.c"	while(us)
                                           	MOVAR	r0x1034
                                           	ORAR	r0x1033
                                           	JBCLR	PFLAG,2
                                           	GOTO	_00134_DS_
                                           ;	.line	75; "MC32P7351.c"	us--;
                                           	MOVAI	0xff
                                           	ADDRA	r0x1034
                                           	JBSET	PFLAG,0
                                           	DECR	r0x1033
                                           	GOTO	_00131_DS_
                                           _00134_DS_
                                           ;	.line	77; "MC32P7351.c"	}
                                           	RETURN	
                                           ; exit point of _delay_52us
                                           
                                           ;***
                                           ;  pBlock Stats: dbName = C
                                           ;***
                                           ;entry:  _delay	;Function start
                                           ; 2 exit points
                                           ;has an exit
                                           ;3 compiler assigned registers:
                                           ;   r0x1039
                                           ;   STK00
                                           ;   r0x103A
                                           ;; Starting pCode block
                                           _delay	;Function start
                                           ; 2 exit points
                                           ;	.line	59; "MC32P7351.c"	void delay(uint16_t num)
                                           	MOVRA	r0x1039
                                           	MOVAR	STK00
                                           	MOVRA	r0x103A
                                           ;	.line	61; "MC32P7351.c"	for (i = 0; i < num; i ++)
                                           	CLRR	_i
                                           	CLRR	(_i + 1)
                                           _00114_DS_
                                           	MOVAR	r0x1039
                                           	RSUBAR	(_i + 1)
                                           	JBSET	PFLAG,2
                                           	GOTO	_00126_DS_
                                           	MOVAR	r0x103A
                                           	RSUBAR	_i
                                           _00126_DS_
                                           	JBCLR	PFLAG,0
                                           	GOTO	_00116_DS_
                                           ;;genSkipc:3291: created from rifx:013B5EFC
                                           ;	.line	63; "MC32P7351.c"	Nop();
                                           	nop	
                                           ;	.line	61; "MC32P7351.c"	for (i = 0; i < num; i ++)
                                           	INCR	_i
                                           	JBCLR	PFLAG,2
                                           	INCR	(_i + 1)
                                           	GOTO	_00114_DS_
                                           _00116_DS_
                                           ;	.line	65; "MC32P7351.c"	}
                                           	RETURN	
                                           ; exit point of _delay
                                           
                                           ;***
                                           ;  pBlock Stats: dbName = C
                                           ;***
                                           ;entry:  _CLR_RAM	;Function start
                                           ; 2 exit points
                                           ;has an exit
                                           ;; Starting pCode block
                                           _CLR_RAM	;Function start
                                           ; 2 exit points
                                           ;	.line	46; "MC32P7351.c"	for (FSR0 = 0; FSR0 < 0xff; FSR0 ++)
                                           	CLRR	_FSR0
                                           ;;unsigned compare: left < lit(0xFF=255), size=1
                                           _00107_DS_
                                           	MOVAI	0xff
                                           	RSUBAR	_FSR0
                                           	JBCLR	PFLAG,0
                                           	GOTO	_00105_DS_
                                           ;;genSkipc:3291: created from rifx:013B5EFC
                                           ;	.line	48; "MC32P7351.c"	INDF0 = 0x00;
                                           	CLRR	_INDF0
                                           ;	.line	46; "MC32P7351.c"	for (FSR0 = 0; FSR0 < 0xff; FSR0 ++)
                                           	INCR	_FSR0
                                           	GOTO	_00107_DS_
                                           _00105_DS_
                                           ;	.line	50; "MC32P7351.c"	FSR0 = 0xFF;
                                           	MOVAI	0xff
                                           	MOVRA	_FSR0
                                           ;	.line	51; "MC32P7351.c"	INDF0 = 0x00;
                                           	CLRR	_INDF0
                                           ;	.line	52; "MC32P7351.c"	}
                                           	RETURN	
                                           ; exit point of _CLR_RAM
                                           
                                           
                                           ;	code size estimation:
                                           ;	  638+    0 =   638 instructions ( 1276 byte)
                                           
                                           	end


MEMORY USAGE MAP ('X' = Used,  '-' = Unused)

0000 : XX-------------- XXXXXXXXXXXXXXXX XXXXXXXXXXXXXXXX XXXXXXXXXXXXXXXX
0040 : XXXXXXXXXXXXXXXX XXXXXXXXXXXXXXXX XXXXXXXXXXXXXXXX XXXXXXXXXXXXXXXX
0080 : XXXXXXXXXXXXXXXX XXXXXXXXXXXXXXXX XXXXXXXXXXXXXXXX XXXXXXXXXXXXXXXX
00C0 : XXXXXXXXXXXXXXXX XXXXXXXXXXXXXXXX XXXXXXXXXXXXXXXX XXXXXXXXXXXXXXXX
0100 : XXXXXXXXXXXXXXXX XXXXXXXXXXXXXXXX XXXXXXXXXXXXXXXX XXXXXXXXXXXXXXXX
0140 : XXXXXXXXXXXXXXXX XXXXXXXXXXXXXXXX XXXXXXXXXXXXXXXX XXXXXXXXXXXXXXXX
0180 : XXXXXXXXXXXXXXXX XXXXXXXXXXXXXXXX XXXXXXXXXXXXXXXX XXXXXXXXXXXXXXXX
01C0 : XXXXXXXXXXXXXXXX XXXXXXXXXXXXXXXX XXXXXXXXXXXXXXXX XXXXXXXXXXXXXXXX
0200 : XXXXXXXXXXXXXXXX XXXXXXXXXXXXXXXX XXXXXXXXXXXXXXXX XXXXXXXXXXXXXXXX
0240 : XXXXXXXXXXXXXXXX XXXXXXXXXXXXXXXX XXXXXXXXXXXXXXXX XXXXXXXXXXXXXXXX
0280 : XXXXXXXXXXXXXXXX XXXXXXXXXXXXXXXX XXXXXXXXXXXXXXXX XXXXXXXXXXXXXXXX
02C0 : XXXXXXXXXXXXXXXX XXXXXXXXXXXXXXXX XXXXXXXXXXXXXXXX XXXXXXXXXXXXXXXX
0300 : XXXXXXXXXXXXXXXX XXXXXXXXXXXXXXXX XXXXXXXXXXXXXXXX XXXXXXXXXXXXXXXX
0340 : XXXXXXXXXXXXXXXX XXXXXXXXXXXXXXXX XXXXXXXXXXXXXXXX XXXXXXXXXXXXXXXX
0380 : XXXXXXXXXXXXXXXX XXXXXXXXXXXXXXXX XXXXXXXXXXXXXXXX XXXXXXXXXXXXXXXX
03C0 : XXXXXXXXXXXXXXXX XXXXXXXXXXXXXXXX XXXXXXXXXXXXXXXX XXXXXXXXXXXXXXXX
0400 : XXXXXXXXXXXXXXXX XXXXXXXXXXXXXXXX XXXXXXXXXXXXXXXX XXXXXXXXXXXXXXXX
0440 : XXXXXXXXXXXXXXXX XXXXXXXXXXXXXXXX XXXXXXXXXXXXXXXX XXXXXXXXXXXXXXXX
0480 : XXXXXXXXXXXXXXXX XXXXXXXXXXXXXXXX XXXXXXXXXXXXXXXX XXXXXXXXXXXXXXXX
04C0 : XXXXXXXXXXXXXXXX XXXXXXXXXXXXXXXX XXXXXXXXXXXXXXXX XXXXXXXXXXXXXXXX
0500 : XXXXXXXXXXXXXXXX XXXXXXXXXXXX---- ---------------- ----------------

All other memory blocks unused.

Program Memory Words Used:   647

