gplink-2.2.37 (Jan 22 2024)
Listing File Generated: 2024-7-23  16:58:11
 
 
Address  Value    Disassembly              Source
-------  -----    -----------              ------
                                           ;--------------------------------------------------------
                                           ; external declarations
                                           ;--------------------------------------------------------
                                           	extern	_INDF0bits
                                           	extern	_INDF1bits
                                           	extern	_INDF2bits
                                           	extern	_HIBYTEbits
                                           	extern	_FSR0bits
                                           	extern	_FSR1bits
                                           	extern	_PCLbits
                                           	extern	_PFLAGbits
                                           	extern	_MCRbits
                                           	extern	_INDF3bits
                                           	extern	_INTEbits
                                           	extern	_INTFbits
                                           	extern	_DRVCRbits
                                           	extern	_PFRCCRbits
                                           	extern	_P1KBCRbits
                                           	extern	_PFRCCALbits
                                           	extern	_IOP0bits
                                           	extern	_OEP0bits
                                           	extern	_PUP0bits
                                           	extern	_PDP0bits
                                           	extern	_IOP1bits
                                           	extern	_OEP1bits
                                           	extern	_PUP1bits
                                           	extern	_PDP1bits
                                           	extern	_T0CRbits
                                           	extern	_T0CNTbits
                                           	extern	_T0LOADbits
                                           	extern	_T0DATAbits
                                           	extern	_T1CRbits
                                           	extern	_T1CNTbits
                                           	extern	_T1LOADbits
                                           	extern	_T1DATAbits
                                           	extern	_T2CRbits
                                           	extern	_T2CNTbits
                                           	extern	_T2LOADbits
                                           	extern	_T2DATAbits
                                           	extern	_T3CRbits
                                           	extern	_T3CNTbits
                                           	extern	_T3LOADbits
                                           	extern	_PWM0DRbits
                                           	extern	_PWM1DRbits
                                           	extern	_PWM2DRbits
                                           	extern	_PWMCR0bits
                                           	extern	_PWMCR1bits
                                           	extern	_OSCMRbits
                                           	extern	_LVDCRbits
                                           	extern	_ADCR0bits
                                           	extern	_ADCR1bits
                                           	extern	_ADCR2bits
                                           	extern	_OSADJCRbits
                                           	extern	_ADRHbits
                                           	extern	_ADRLbits
                                           	extern	_ADIOS0bits
                                           	extern	_ADIOS1bits
                                           	extern	_PMODbits
                                           	extern	_PWMCR3bits
                                           	extern	_PWMCR2bits
                                           	extern	_PFRCAUXbits
                                           	extern	_HIRCCALbits
                                           	extern	_INDF0
                                           	extern	_INDF1
                                           	extern	_INDF2
                                           	extern	_HIBYTE
                                           	extern	_FSR0
                                           	extern	_FSR1
                                           	extern	_PCL
                                           	extern	_PFLAG
                                           	extern	_MCR
                                           	extern	_INDF3
                                           	extern	_INTE
                                           	extern	_INTF
                                           	extern	_DRVCR
                                           	extern	_PFRCCR
                                           	extern	_P1KBCR
                                           	extern	_PFRCCAL
                                           	extern	_IOP0
                                           	extern	_OEP0
                                           	extern	_PUP0
                                           	extern	_PDP0
                                           	extern	_IOP1
                                           	extern	_OEP1
                                           	extern	_PUP1
                                           	extern	_PDP1
                                           	extern	_T0CR
                                           	extern	_T0CNT
                                           	extern	_T0LOAD
                                           	extern	_T0DATA
                                           	extern	_T1CR
                                           	extern	_T1CNT
                                           	extern	_T1LOAD
                                           	extern	_T1DATA
                                           	extern	_T2CR
                                           	extern	_T2CNT
                                           	extern	_T2LOAD
                                           	extern	_T2DATA
                                           	extern	_T3CR
                                           	extern	_T3CNT
                                           	extern	_T3LOAD
                                           	extern	_PWM0DR
                                           	extern	_PWM1DR
                                           	extern	_PWM2DR
                                           	extern	_PWMCR0
                                           	extern	_PWMCR1
                                           	extern	_OSCMR
                                           	extern	_LVDCR
                                           	extern	_ADCR0
                                           	extern	_ADCR1
                                           	extern	_ADCR2
                                           	extern	_OSADJCR
                                           	extern	_ADRH
                                           	extern	_ADRL
                                           	extern	_ADIOS0
                                           	extern	_ADIOS1
                                           	extern	_PMOD
                                           	extern	_PWMCR3
                                           	extern	_PWMCR2
                                           	extern	_PFRCAUX
                                           	extern	_HIRCCAL
                                           ;--------------------------------------------------------
                                           ; global declarations
                                           ;--------------------------------------------------------
                                           	global	_Sys_Init
                                           	global	_TIMER3_INT_Init
                                           	global	_TIMER2_INT_Init
                                           	global	_TIMER1_INT_Init
                                           	global	_TIMER0_INT_Init
                                           	global	_IO_Init
                                           	global	_CLR_RAM
                                           	global	_main
                                           	global	_int_isr
                                           	global	_abuf
                                           	global	_statusbuf
                                           	global	_flag1
                                           
                                           	global STK06
                                           	global STK05
                                           	global STK04
                                           	global STK03
                                           	global STK02
                                           	global STK01
                                           	global STK00
                                           
                                           sharebank udata_ovr 0x0000
                                           STK06	res 1
                                           STK05	res 1
                                           STK04	res 1
                                           STK03	res 1
                                           STK02	res 1
                                           STK01	res 1
                                           STK00	res 1
                                           
                                           ;--------------------------------------------------------
                                           ; global definitions
                                           ;--------------------------------------------------------
                                           UD_MC32P7351_0	udata
                                           _abuf	res	1
                                           
                                           UD_MC32P7351_1	udata
                                           _statusbuf	res	1
                                           
                                           UD_MC32P7351_2	udata
                                           _flag1	res	1
                                           
                                           ;--------------------------------------------------------
                                           ; absolute symbol definitions
                                           ;--------------------------------------------------------
                                           ;--------------------------------------------------------
                                           ; compiler-defined variables
                                           ;--------------------------------------------------------
                                           UDL_MC32P7351_0	udata
                                           r0x1000	res	1
                                           r0x1001	res	1
                                           ;--------------------------------------------------------
                                           ; initialized data
                                           ;--------------------------------------------------------
                                           
                                           ;@Allocation info for local variables in function 'CLR_RAM'
                                           ;@CLR_RAM Sys_Init                  Allocated to registers ;size:2
                                           ;@CLR_RAM IO_Init                   Allocated to registers ;size:2
                                           ;@CLR_RAM TIMER0_INT_Init           Allocated to registers ;size:2
                                           ;@CLR_RAM TIMER1_INT_Init           Allocated to registers ;size:2
                                           ;@CLR_RAM TIMER2_INT_Init           Allocated to registers ;size:2
                                           ;@CLR_RAM TIMER3_INT_Init           Allocated to registers ;size:2
                                           ;@CLR_RAM INDF0bits                 Allocated to registers ;size:1
                                           ;@CLR_RAM INDF1bits                 Allocated to registers ;size:1
                                           ;@CLR_RAM INDF2bits                 Allocated to registers ;size:1
                                           ;@CLR_RAM HIBYTEbits                Allocated to registers ;size:1
                                           ;@CLR_RAM FSR0bits                  Allocated to registers ;size:1
                                           ;@CLR_RAM FSR1bits                  Allocated to registers ;size:1
                                           ;@CLR_RAM PCLbits                   Allocated to registers ;size:1
                                           ;@CLR_RAM PFLAGbits                 Allocated to registers ;size:1
                                           ;@CLR_RAM MCRbits                   Allocated to registers ;size:1
                                           ;@CLR_RAM INDF3bits                 Allocated to registers ;size:1
                                           ;@CLR_RAM INTEbits                  Allocated to registers ;size:1
                                           ;@CLR_RAM INTFbits                  Allocated to registers ;size:1
                                           ;@CLR_RAM DRVCRbits                 Allocated to registers ;size:1
                                           ;@CLR_RAM PFRCCRbits                Allocated to registers ;size:1
                                           ;@CLR_RAM P1KBCRbits                Allocated to registers ;size:1
                                           ;@CLR_RAM PFRCCALbits               Allocated to registers ;size:1
                                           ;@CLR_RAM IOP0bits                  Allocated to registers ;size:1
                                           ;@CLR_RAM OEP0bits                  Allocated to registers ;size:1
                                           ;@CLR_RAM PUP0bits                  Allocated to registers ;size:1
                                           ;@CLR_RAM PDP0bits                  Allocated to registers ;size:1
                                           ;@CLR_RAM IOP1bits                  Allocated to registers ;size:1
                                           ;@CLR_RAM OEP1bits                  Allocated to registers ;size:1
                                           ;@CLR_RAM PUP1bits                  Allocated to registers ;size:1
                                           ;@CLR_RAM PDP1bits                  Allocated to registers ;size:1
                                           ;@CLR_RAM T0CRbits                  Allocated to registers ;size:1
                                           ;@CLR_RAM T0CNTbits                 Allocated to registers ;size:1
                                           ;@CLR_RAM T0LOADbits                Allocated to registers ;size:1
                                           ;@CLR_RAM T0DATAbits                Allocated to registers ;size:1
                                           ;@CLR_RAM T1CRbits                  Allocated to registers ;size:1
                                           ;@CLR_RAM T1CNTbits                 Allocated to registers ;size:1
                                           ;@CLR_RAM T1LOADbits                Allocated to registers ;size:1
                                           ;@CLR_RAM T1DATAbits                Allocated to registers ;size:1
                                           ;@CLR_RAM T2CRbits                  Allocated to registers ;size:1
                                           ;@CLR_RAM T2CNTbits                 Allocated to registers ;size:1
                                           ;@CLR_RAM T2LOADbits                Allocated to registers ;size:1
                                           ;@CLR_RAM T2DATAbits                Allocated to registers ;size:1
                                           ;@CLR_RAM T3CRbits                  Allocated to registers ;size:1
                                           ;@CLR_RAM T3CNTbits                 Allocated to registers ;size:1
                                           ;@CLR_RAM T3LOADbits                Allocated to registers ;size:1
                                           ;@CLR_RAM PWM0DRbits                Allocated to registers ;size:1
                                           ;@CLR_RAM PWM1DRbits                Allocated to registers ;size:1
                                           ;@CLR_RAM PWM2DRbits                Allocated to registers ;size:1
                                           ;@CLR_RAM PWMCR0bits                Allocated to registers ;size:1
                                           ;@CLR_RAM PWMCR1bits                Allocated to registers ;size:1
                                           ;@CLR_RAM OSCMRbits                 Allocated to registers ;size:1
                                           ;@CLR_RAM LVDCRbits                 Allocated to registers ;size:1
                                           ;@CLR_RAM ADCR0bits                 Allocated to registers ;size:1
                                           ;@CLR_RAM ADCR1bits                 Allocated to registers ;size:1
                                           ;@CLR_RAM ADCR2bits                 Allocated to registers ;size:1
                                           ;@CLR_RAM OSADJCRbits               Allocated to registers ;size:1
                                           ;@CLR_RAM ADRHbits                  Allocated to registers ;size:1
                                           ;@CLR_RAM ADRLbits                  Allocated to registers ;size:1
                                           ;@CLR_RAM ADIOS0bits                Allocated to registers ;size:1
                                           ;@CLR_RAM ADIOS1bits                Allocated to registers ;size:1
                                           ;@CLR_RAM PMODbits                  Allocated to registers ;size:1
                                           ;@CLR_RAM PWMCR3bits                Allocated to registers ;size:1
                                           ;@CLR_RAM PWMCR2bits                Allocated to registers ;size:1
                                           ;@CLR_RAM PFRCAUXbits               Allocated to registers ;size:1
                                           ;@CLR_RAM HIRCCALbits               Allocated to registers ;size:1
                                           ;@CLR_RAM abuf                      Allocated to registers ;size:1
                                           ;@CLR_RAM statusbuf                 Allocated to registers ;size:1
                                           ;@CLR_RAM flag1                     Allocated to registers ;size:1
                                           ;@CLR_RAM INDF0                     Allocated to registers ;size:1
                                           ;@CLR_RAM INDF1                     Allocated to registers ;size:1
                                           ;@CLR_RAM INDF2                     Allocated to registers ;size:1
                                           ;@CLR_RAM HIBYTE                    Allocated to registers ;size:1
                                           ;@CLR_RAM FSR0                      Allocated to registers ;size:1
                                           ;@CLR_RAM FSR1                      Allocated to registers ;size:1
                                           ;@CLR_RAM PCL                       Allocated to registers ;size:1
                                           ;@CLR_RAM PFLAG                     Allocated to registers ;size:1
                                           ;@CLR_RAM MCR                       Allocated to registers ;size:1
                                           ;@CLR_RAM INDF3                     Allocated to registers ;size:1
                                           ;@CLR_RAM INTE                      Allocated to registers ;size:1
                                           ;@CLR_RAM INTF                      Allocated to registers ;size:1
                                           ;@CLR_RAM DRVCR                     Allocated to registers ;size:1
                                           ;@CLR_RAM PFRCCR                    Allocated to registers ;size:1
                                           ;@CLR_RAM P1KBCR                    Allocated to registers ;size:1
                                           ;@CLR_RAM PFRCCAL                   Allocated to registers ;size:1
                                           ;@CLR_RAM IOP0                      Allocated to registers ;size:1
                                           ;@CLR_RAM OEP0                      Allocated to registers ;size:1
                                           ;@CLR_RAM PUP0                      Allocated to registers ;size:1
                                           ;@CLR_RAM PDP0                      Allocated to registers ;size:1
                                           ;@CLR_RAM IOP1                      Allocated to registers ;size:1
                                           ;@CLR_RAM OEP1                      Allocated to registers ;size:1
                                           ;@CLR_RAM PUP1                      Allocated to registers ;size:1
                                           ;@CLR_RAM PDP1                      Allocated to registers ;size:1
                                           ;@CLR_RAM T0CR                      Allocated to registers ;size:1
                                           ;@CLR_RAM T0CNT                     Allocated to registers ;size:1
                                           ;@CLR_RAM T0LOAD                    Allocated to registers ;size:1
                                           ;@CLR_RAM T0DATA                    Allocated to registers ;size:1
                                           ;@CLR_RAM T1CR                      Allocated to registers ;size:1
                                           ;@CLR_RAM T1CNT                     Allocated to registers ;size:1
                                           ;@CLR_RAM T1LOAD                    Allocated to registers ;size:1
                                           ;@CLR_RAM T1DATA                    Allocated to registers ;size:1
                                           ;@CLR_RAM T2CR                      Allocated to registers ;size:1
                                           ;@CLR_RAM T2CNT                     Allocated to registers ;size:1
                                           ;@CLR_RAM T2LOAD                    Allocated to registers ;size:1
                                           ;@CLR_RAM T2DATA                    Allocated to registers ;size:1
                                           ;@CLR_RAM T3CR                      Allocated to registers ;size:1
                                           ;@CLR_RAM T3CNT                     Allocated to registers ;size:1
                                           ;@CLR_RAM T3LOAD                    Allocated to registers ;size:1
                                           ;@CLR_RAM PWM0DR                    Allocated to registers ;size:1
                                           ;@CLR_RAM PWM1DR                    Allocated to registers ;size:1
                                           ;@CLR_RAM PWM2DR                    Allocated to registers ;size:1
                                           ;@CLR_RAM PWMCR0                    Allocated to registers ;size:1
                                           ;@CLR_RAM PWMCR1                    Allocated to registers ;size:1
                                           ;@CLR_RAM OSCMR                     Allocated to registers ;size:1
                                           ;@CLR_RAM LVDCR                     Allocated to registers ;size:1
                                           ;@CLR_RAM ADCR0                     Allocated to registers ;size:1
                                           ;@CLR_RAM ADCR1                     Allocated to registers ;size:1
                                           ;@CLR_RAM ADCR2                     Allocated to registers ;size:1
                                           ;@CLR_RAM OSADJCR                   Allocated to registers ;size:1
                                           ;@CLR_RAM ADRH                      Allocated to registers ;size:1
                                           ;@CLR_RAM ADRL                      Allocated to registers ;size:1
                                           ;@CLR_RAM ADIOS0                    Allocated to registers ;size:1
                                           ;@CLR_RAM ADIOS1                    Allocated to registers ;size:1
                                           ;@CLR_RAM PMOD                      Allocated to registers ;size:1
                                           ;@CLR_RAM PWMCR3                    Allocated to registers ;size:1
                                           ;@CLR_RAM PWMCR2                    Allocated to registers ;size:1
                                           ;@CLR_RAM PFRCAUX                   Allocated to registers ;size:1
                                           ;@CLR_RAM HIRCCAL                   Allocated to registers ;size:1
                                           ;@end Allocation info for local variables in function 'CLR_RAM';
                                           ;@Allocation info for local variables in function 'IO_Init'
                                           ;@end Allocation info for local variables in function 'IO_Init';
                                           ;@Allocation info for local variables in function 'TIMER0_INT_Init'
                                           ;@end Allocation info for local variables in function 'TIMER0_INT_Init';
                                           ;@Allocation info for local variables in function 'TIMER1_INT_Init'
                                           ;@end Allocation info for local variables in function 'TIMER1_INT_Init';
                                           ;@Allocation info for local variables in function 'TIMER2_INT_Init'
                                           ;@end Allocation info for local variables in function 'TIMER2_INT_Init';
                                           ;@Allocation info for local variables in function 'TIMER3_INT_Init'
                                           ;@end Allocation info for local variables in function 'TIMER3_INT_Init';
                                           ;@Allocation info for local variables in function 'Sys_Init'
                                           ;@end Allocation info for local variables in function 'Sys_Init';
                                           ;@Allocation info for local variables in function 'main'
                                           ;@end Allocation info for local variables in function 'main';
                                           ;@Allocation info for local variables in function 'int_isr'
                                           ;@end Allocation info for local variables in function 'int_isr';
                                           
                                           ;--------------------------------------------------------
                                           ; overlayable items in internal ram 
                                           ;--------------------------------------------------------
                                           ;	udata_ovr
                                           ;--------------------------------------------------------
                                           ; reset vector 
                                           ;--------------------------------------------------------
                                           STARTUP	code 0x0000
000000   a07c     goto    0x7c             	goto	_main
                                           ;--------------------------------------------------------
                                           ; interrupt and initialization code
                                           ;--------------------------------------------------------
                                           c_interrupt	code	0x8
                                           __sdcc_interrupt
                                           ;***
                                           ;  pBlock Stats: dbName = I
                                           ;***
                                           ;entry:  _int_isr	;Function start
                                           ; 0 exit points
                                           ;2 compiler assigned registers:
                                           ;   r0x1000
                                           ;   r0x1001
                                           ;; Starting pCode block
                                           _int_isr	;Function start
                                           ; 0 exit points
                                           ;	.line	155; "MC32P7351.c"	__endasm;
000008   5609     movra   0x9              	movra	_abuf
000009   4587     swapar  0x187            	swapar	_PFLAG
00000a   560a     movra   0xa              	movra	_statusbuf
                                           ;	.line	157; "MC32P7351.c"	if (T0IF & T0IE)
00000b   7607     clrr    0x7              	CLRR	r0x1000
00000c   f18b     jbclr   0x18b, 0         	JBCLR	_INTFbits,0
00000d   6607     incr    0x7              	INCR	r0x1000
00000e   7608     clrr    0x8              	CLRR	r0x1001
00000f   f18a     jbclr   0x18a, 0         	JBCLR	_INTEbits,0
000010   6608     incr    0x8              	INCR	r0x1001
000011   5808     movar   0x8              	MOVAR	r0x1001
000012   7a07     andra   0x7              	ANDRA	r0x1000
000013   3c00     movai   0                	MOVAI	0x00
000014   5c07     orar    0x7              	ORAR	r0x1000
000015   f587     jbclr   0x187, 0x2       	JBCLR	PFLAG,2
000016   a026     goto    0x26             	GOTO	_00143_DS_
                                           ;	.line	159; "MC32P7351.c"	P10D = !P10D;
000017   7607     clrr    0x7              	CLRR	r0x1000
000018   f194     jbclr   0x194, 0         	JBCLR	_IOP1bits,0
000019   6607     incr    0x7              	INCR	r0x1000
00001a   5807     movar   0x7              	MOVAR	r0x1000
00001b   3c00     movai   0                	MOVAI	0x00
00001c   f587     jbclr   0x187, 0x2       	JBCLR	PFLAG,2
00001d   3c01     movai   0x1              	MOVAI	0x01
00001e   5607     movra   0x7              	MOVRA	r0x1000
00001f   5608     movra   0x8              	MOVRA	r0x1001
                                           ;;102	MOVAR	r0x1001
000020   4c07     rrar    0x7              	RRAR	r0x1000
000021   e187     jbset   0x187, 0         	JBSET	PFLAG,0
000022   d194     bclr    0x194, 0         	BCLR	_IOP1bits,0
000023   f187     jbclr   0x187, 0         	JBCLR	PFLAG,0
000024   c194     bset    0x194, 0         	BSET	_IOP1bits,0
                                           ;	.line	160; "MC32P7351.c"	T0IF = 0;
000025   d18b     bclr    0x18b, 0         	BCLR	_INTFbits,0
                                           _00143_DS_
                                           ;	.line	163; "MC32P7351.c"	if (T1IF & T1IE)
000026   7607     clrr    0x7              	CLRR	r0x1000
000027   f38b     jbclr   0x18b, 0x1       	JBCLR	_INTFbits,1
000028   6607     incr    0x7              	INCR	r0x1000
000029   7608     clrr    0x8              	CLRR	r0x1001
00002a   f38a     jbclr   0x18a, 0x1       	JBCLR	_INTEbits,1
00002b   6608     incr    0x8              	INCR	r0x1001
00002c   5808     movar   0x8              	MOVAR	r0x1001
00002d   7a07     andra   0x7              	ANDRA	r0x1000
00002e   3c00     movai   0                	MOVAI	0x00
00002f   5c07     orar    0x7              	ORAR	r0x1000
000030   f587     jbclr   0x187, 0x2       	JBCLR	PFLAG,2
000031   a041     goto    0x41             	GOTO	_00145_DS_
                                           ;	.line	165; "MC32P7351.c"	P11D = !P11D;
000032   7607     clrr    0x7              	CLRR	r0x1000
000033   f394     jbclr   0x194, 0x1       	JBCLR	_IOP1bits,1
000034   6607     incr    0x7              	INCR	r0x1000
000035   5807     movar   0x7              	MOVAR	r0x1000
000036   3c00     movai   0                	MOVAI	0x00
000037   f587     jbclr   0x187, 0x2       	JBCLR	PFLAG,2
000038   3c01     movai   0x1              	MOVAI	0x01
000039   5607     movra   0x7              	MOVRA	r0x1000
00003a   5608     movra   0x8              	MOVRA	r0x1001
                                           ;;101	MOVAR	r0x1001
00003b   4c07     rrar    0x7              	RRAR	r0x1000
00003c   e187     jbset   0x187, 0         	JBSET	PFLAG,0
00003d   d394     bclr    0x194, 0x1       	BCLR	_IOP1bits,1
00003e   f187     jbclr   0x187, 0         	JBCLR	PFLAG,0
00003f   c394     bset    0x194, 0x1       	BSET	_IOP1bits,1
                                           ;	.line	166; "MC32P7351.c"	T1IF = 0;
000040   d38b     bclr    0x18b, 0x1       	BCLR	_INTFbits,1
                                           _00145_DS_
                                           ;	.line	169; "MC32P7351.c"	if (T2IF & T2IE)
000041   7607     clrr    0x7              	CLRR	r0x1000
000042   fb8b     jbclr   0x18b, 0x5       	JBCLR	_INTFbits,5
000043   6607     incr    0x7              	INCR	r0x1000
000044   7608     clrr    0x8              	CLRR	r0x1001
000045   fb8a     jbclr   0x18a, 0x5       	JBCLR	_INTEbits,5
000046   6608     incr    0x8              	INCR	r0x1001
000047   5808     movar   0x8              	MOVAR	r0x1001
000048   7a07     andra   0x7              	ANDRA	r0x1000
000049   3c00     movai   0                	MOVAI	0x00
00004a   5c07     orar    0x7              	ORAR	r0x1000
00004b   f587     jbclr   0x187, 0x2       	JBCLR	PFLAG,2
00004c   a05c     goto    0x5c             	GOTO	_00147_DS_
                                           ;	.line	171; "MC32P7351.c"	P12D = !P12D;
00004d   7607     clrr    0x7              	CLRR	r0x1000
00004e   f594     jbclr   0x194, 0x2       	JBCLR	_IOP1bits,2
00004f   6607     incr    0x7              	INCR	r0x1000
000050   5807     movar   0x7              	MOVAR	r0x1000
000051   3c00     movai   0                	MOVAI	0x00
000052   f587     jbclr   0x187, 0x2       	JBCLR	PFLAG,2
000053   3c01     movai   0x1              	MOVAI	0x01
000054   5607     movra   0x7              	MOVRA	r0x1000
000055   5608     movra   0x8              	MOVRA	r0x1001
                                           ;;100	MOVAR	r0x1001
000056   4c07     rrar    0x7              	RRAR	r0x1000
000057   e187     jbset   0x187, 0         	JBSET	PFLAG,0
000058   d594     bclr    0x194, 0x2       	BCLR	_IOP1bits,2
000059   f187     jbclr   0x187, 0         	JBCLR	PFLAG,0
00005a   c594     bset    0x194, 0x2       	BSET	_IOP1bits,2
                                           ;	.line	172; "MC32P7351.c"	T2IF = 0;
00005b   db8b     bclr    0x18b, 0x5       	BCLR	_INTFbits,5
                                           _00147_DS_
                                           ;	.line	175; "MC32P7351.c"	if (T3IF & T3IE)
00005c   7607     clrr    0x7              	CLRR	r0x1000
00005d   ff8b     jbclr   0x18b, 0x7       	JBCLR	_INTFbits,7
00005e   6607     incr    0x7              	INCR	r0x1000
00005f   7608     clrr    0x8              	CLRR	r0x1001
000060   ff8a     jbclr   0x18a, 0x7       	JBCLR	_INTEbits,7
000061   6608     incr    0x8              	INCR	r0x1001
000062   5808     movar   0x8              	MOVAR	r0x1001
000063   7a07     andra   0x7              	ANDRA	r0x1000
000064   3c00     movai   0                	MOVAI	0x00
000065   5c07     orar    0x7              	ORAR	r0x1000
000066   f587     jbclr   0x187, 0x2       	JBCLR	PFLAG,2
000067   a077     goto    0x77             	GOTO	_00149_DS_
                                           ;	.line	177; "MC32P7351.c"	P14D = !P14D;
000068   7607     clrr    0x7              	CLRR	r0x1000
000069   f994     jbclr   0x194, 0x4       	JBCLR	_IOP1bits,4
00006a   6607     incr    0x7              	INCR	r0x1000
00006b   5807     movar   0x7              	MOVAR	r0x1000
00006c   3c00     movai   0                	MOVAI	0x00
00006d   f587     jbclr   0x187, 0x2       	JBCLR	PFLAG,2
00006e   3c01     movai   0x1              	MOVAI	0x01
00006f   5607     movra   0x7              	MOVRA	r0x1000
000070   5608     movra   0x8              	MOVRA	r0x1001
                                           ;;99	MOVAR	r0x1001
000071   4c07     rrar    0x7              	RRAR	r0x1000
000072   e187     jbset   0x187, 0         	JBSET	PFLAG,0
000073   d994     bclr    0x194, 0x4       	BCLR	_IOP1bits,4
000074   f187     jbclr   0x187, 0         	JBCLR	PFLAG,0
000075   c994     bset    0x194, 0x4       	BSET	_IOP1bits,4
                                           ;	.line	178; "MC32P7351.c"	T3IF = 0;
000076   df8b     bclr    0x18b, 0x7       	BCLR	_INTFbits,7
                                           _00149_DS_
                                           ;	.line	185; "MC32P7351.c"	__endasm;
000077   440a     swapar  0xa              	swapar	_statusbuf
000078   5787     movra   0x187            	movra	_PFLAG
000079   4609     swapr   0x9              	swapr	_abuf
00007a   4409     swapar  0x9              	swapar	_abuf
                                           END_OF_INTERRUPT
                                           ;	.line	186; "MC32P7351.c"	}
00007b   000d     retie                    	RETIE	
                                           
                                           ;--------------------------------------------------------
                                           ; code
                                           ;--------------------------------------------------------
                                           code_MC32P7351	code
                                           ;***
                                           ;  pBlock Stats: dbName = M
                                           ;***
                                           ;entry:  _main	;Function start
                                           ; 2 exit points
                                           ;has an exit
                                           ;functions called:
                                           ;   _Sys_Init
                                           ;   _Sys_Init
                                           ;; Starting pCode block
                                           _main	;Function start
                                           ; 2 exit points
                                           ;	.line	138; "MC32P7351.c"	Sys_Init();
00007c   807f     call    0x7f             	CALL	_Sys_Init
                                           _00137_DS_
                                           ;	.line	139; "MC32P7351.c"	while (1)
00007d   a07d     goto    0x7d             	GOTO	_00137_DS_
                                           ;	.line	142; "MC32P7351.c"	}
00007e   000c     return                   	RETURN	
                                           ; exit point of _main
                                           
                                           ;***
                                           ;  pBlock Stats: dbName = C
                                           ;***
                                           ;entry:  _Sys_Init	;Function start
                                           ; 2 exit points
                                           ;has an exit
                                           ;functions called:
                                           ;   _CLR_RAM
                                           ;   _IO_Init
                                           ;   _TIMER0_INT_Init
                                           ;   _TIMER1_INT_Init
                                           ;   _TIMER2_INT_Init
                                           ;   _TIMER3_INT_Init
                                           ;   _CLR_RAM
                                           ;   _IO_Init
                                           ;   _TIMER0_INT_Init
                                           ;   _TIMER1_INT_Init
                                           ;   _TIMER2_INT_Init
                                           ;   _TIMER3_INT_Init
                                           ;; Starting pCode block
                                           _Sys_Init	;Function start
                                           ; 2 exit points
                                           ;	.line	121; "MC32P7351.c"	GIE = 0;
00007f   df88     bclr    0x188, 0x7       	BCLR	_MCRbits,7
                                           ;	.line	122; "MC32P7351.c"	CLR_RAM();
000080   80bd     call    0xbd             	CALL	_CLR_RAM
                                           ;	.line	123; "MC32P7351.c"	IO_Init();
000081   80ac     call    0xac             	CALL	_IO_Init
                                           ;	.line	124; "MC32P7351.c"	TIMER0_INT_Init();
000082   80a3     call    0xa3             	CALL	_TIMER0_INT_Init
                                           ;	.line	125; "MC32P7351.c"	TIMER1_INT_Init();
000083   809a     call    0x9a             	CALL	_TIMER1_INT_Init
                                           ;	.line	126; "MC32P7351.c"	TIMER2_INT_Init();
000084   8091     call    0x91             	CALL	_TIMER2_INT_Init
                                           ;	.line	127; "MC32P7351.c"	TIMER3_INT_Init();
000085   8088     call    0x88             	CALL	_TIMER3_INT_Init
                                           ;	.line	128; "MC32P7351.c"	GIE = 1;
000086   cf88     bset    0x188, 0x7       	BSET	_MCRbits,7
                                           ;	.line	129; "MC32P7351.c"	}
000087   000c     return                   	RETURN	
                                           ; exit point of _Sys_Init
                                           
                                           ;***
                                           ;  pBlock Stats: dbName = C
                                           ;***
                                           ;entry:  _TIMER3_INT_Init	;Function start
                                           ; 2 exit points
                                           ;has an exit
                                           ;; Starting pCode block
                                           _TIMER3_INT_Init	;Function start
                                           ; 2 exit points
                                           ;	.line	107; "MC32P7351.c"	T3CR = DEF_SET_BIT1;               //CPU,4分频
000088   3c02     movai   0x2              	MOVAI	0x02
000089   57a4     movra   0x1a4            	MOVRA	_T3CR
                                           ;	.line	108; "MC32P7351.c"	T3CNT = 100 - 1;
00008a   3c63     movai   0x63             	MOVAI	0x63
00008b   57a5     movra   0x1a5            	MOVRA	_T3CNT
                                           ;	.line	109; "MC32P7351.c"	T3LOAD = 100 - 1;                  //50us
00008c   3c63     movai   0x63             	MOVAI	0x63
00008d   57a6     movra   0x1a6            	MOVRA	_T3LOAD
                                           ;	.line	110; "MC32P7351.c"	T3EN = 1; 
00008e   cfa4     bset    0x1a4, 0x7       	BSET	_T3CRbits,7
                                           ;	.line	111; "MC32P7351.c"	T3IE = 1;
00008f   cf8a     bset    0x18a, 0x7       	BSET	_INTEbits,7
                                           ;	.line	112; "MC32P7351.c"	}
000090   000c     return                   	RETURN	
                                           ; exit point of _TIMER3_INT_Init
                                           
                                           ;***
                                           ;  pBlock Stats: dbName = C
                                           ;***
                                           ;entry:  _TIMER2_INT_Init	;Function start
                                           ; 2 exit points
                                           ;has an exit
                                           ;; Starting pCode block
                                           _TIMER2_INT_Init	;Function start
                                           ; 2 exit points
                                           ;	.line	93; "MC32P7351.c"	T2CR = DEF_SET_BIT0 | DEF_SET_BIT1;//CPU,8分频
000091   3c03     movai   0x3              	MOVAI	0x03
000092   57a0     movra   0x1a0            	MOVRA	_T2CR
                                           ;	.line	94; "MC32P7351.c"	T2CNT = 100 - 1;
000093   3c63     movai   0x63             	MOVAI	0x63
000094   57a1     movra   0x1a1            	MOVRA	_T2CNT
                                           ;	.line	95; "MC32P7351.c"	T2LOAD = 100 - 1;                  //100us
000095   3c63     movai   0x63             	MOVAI	0x63
000096   57a2     movra   0x1a2            	MOVRA	_T2LOAD
                                           ;	.line	96; "MC32P7351.c"	T2EN = 1;
000097   cfa0     bset    0x1a0, 0x7       	BSET	_T2CRbits,7
                                           ;	.line	97; "MC32P7351.c"	T2IE = 1;
000098   cb8a     bset    0x18a, 0x5       	BSET	_INTEbits,5
                                           ;	.line	98; "MC32P7351.c"	}
000099   000c     return                   	RETURN	
                                           ; exit point of _TIMER2_INT_Init
                                           
                                           ;***
                                           ;  pBlock Stats: dbName = C
                                           ;***
                                           ;entry:  _TIMER1_INT_Init	;Function start
                                           ; 2 exit points
                                           ;has an exit
                                           ;; Starting pCode block
                                           _TIMER1_INT_Init	;Function start
                                           ; 2 exit points
                                           ;	.line	79; "MC32P7351.c"	T1CR = DEF_SET_BIT0 | DEF_SET_BIT2;//定时模式,CPU,32分频
00009a   3c05     movai   0x5              	MOVAI	0x05
00009b   579c     movra   0x19c            	MOVRA	_T1CR
                                           ;	.line	80; "MC32P7351.c"	T1CNT = 250 - 1;                   //1ms
00009c   3cf9     movai   0xf9             	MOVAI	0xf9
00009d   579d     movra   0x19d            	MOVRA	_T1CNT
                                           ;	.line	81; "MC32P7351.c"	T1LOAD = 250 - 1;
00009e   3cf9     movai   0xf9             	MOVAI	0xf9
00009f   579e     movra   0x19e            	MOVRA	_T1LOAD
                                           ;	.line	82; "MC32P7351.c"	T1EN = 1;
0000a0   cf9c     bset    0x19c, 0x7       	BSET	_T1CRbits,7
                                           ;	.line	83; "MC32P7351.c"	T1IE = 1;
0000a1   c38a     bset    0x18a, 0x1       	BSET	_INTEbits,1
                                           ;	.line	84; "MC32P7351.c"	}
0000a2   000c     return                   	RETURN	
                                           ; exit point of _TIMER1_INT_Init
                                           
                                           ;***
                                           ;  pBlock Stats: dbName = C
                                           ;***
                                           ;entry:  _TIMER0_INT_Init	;Function start
                                           ; 2 exit points
                                           ;has an exit
                                           ;; Starting pCode block
                                           _TIMER0_INT_Init	;Function start
                                           ; 2 exit points
                                           ;	.line	65; "MC32P7351.c"	T0CR = DEF_SET_BIT1 | DEF_SET_BIT2;//CPU,64分频
0000a3   3c06     movai   0x6              	MOVAI	0x06
0000a4   5798     movra   0x198            	MOVRA	_T0CR
                                           ;	.line	66; "MC32P7351.c"	T0CNT = 250-1;
0000a5   3cf9     movai   0xf9             	MOVAI	0xf9
0000a6   5799     movra   0x199            	MOVRA	_T0CNT
                                           ;	.line	67; "MC32P7351.c"	T0LOAD = 250-1;                    //2ms
0000a7   3cf9     movai   0xf9             	MOVAI	0xf9
0000a8   579a     movra   0x19a            	MOVRA	_T0LOAD
                                           ;	.line	68; "MC32P7351.c"	T0EN = 1;
0000a9   cf98     bset    0x198, 0x7       	BSET	_T0CRbits,7
                                           ;	.line	69; "MC32P7351.c"	T0IE = 1;
0000aa   c18a     bset    0x18a, 0         	BSET	_INTEbits,0
                                           ;	.line	70; "MC32P7351.c"	}
0000ab   000c     return                   	RETURN	
                                           ; exit point of _TIMER0_INT_Init
                                           
                                           ;***
                                           ;  pBlock Stats: dbName = C
                                           ;***
                                           ;entry:  _IO_Init	;Function start
                                           ; 2 exit points
                                           ;has an exit
                                           ;; Starting pCode block
                                           _IO_Init	;Function start
                                           ; 2 exit points
                                           ;	.line	41; "MC32P7351.c"	IOP0 = 0x00;                       //io口数据位
0000ac   7790     clrr    0x190            	CLRR	_IOP0
                                           ;	.line	42; "MC32P7351.c"	OEP0 = 0xff;                       //io口方向 1:out  0:in
0000ad   3cff     movai   0xff             	MOVAI	0xff
0000ae   5791     movra   0x191            	MOVRA	_OEP0
                                           ;	.line	43; "MC32P7351.c"	PUP0 = 0x00;                       //io口上拉电阻   1:enable  0:disable
0000af   7792     clrr    0x192            	CLRR	_PUP0
                                           ;	.line	44; "MC32P7351.c"	PDP0 = 0x00;                       //io口下拉电阻   1:enable  0:disable
0000b0   7793     clrr    0x193            	CLRR	_PDP0
                                           ;	.line	45; "MC32P7351.c"	ADIOS0 = 0x00;                     //io类型选择  1:模拟输入  0:通用io
0000b1   77b6     clrr    0x1b6            	CLRR	_ADIOS0
                                           ;	.line	47; "MC32P7351.c"	IOP1 = 0x00;                       //io口数据位
0000b2   7794     clrr    0x194            	CLRR	_IOP1
                                           ;	.line	48; "MC32P7351.c"	OEP1 = 0xFF;                       //io口方向 1:out  0:in
0000b3   3cff     movai   0xff             	MOVAI	0xff
0000b4   5795     movra   0x195            	MOVRA	_OEP1
                                           ;	.line	49; "MC32P7351.c"	PUP1 = 0x00;                       //io口上拉电阻   1:enable  0:disable
0000b5   7796     clrr    0x196            	CLRR	_PUP1
                                           ;	.line	50; "MC32P7351.c"	PDP1 = 0x00;                       //io口下拉电阻   1:enable  0:disable
0000b6   7797     clrr    0x197            	CLRR	_PDP1
                                           ;	.line	51; "MC32P7351.c"	ADIOS1 = 0x00;                     //io类型选择  1:模拟输入  0:通用io
0000b7   77b7     clrr    0x1b7            	CLRR	_ADIOS1
                                           ;	.line	53; "MC32P7351.c"	PMOD = 0x07;                       //bit7-bit5 P17、P13、P01 io类型选择 1:模拟输入  0:通用io 
0000b8   3c07     movai   0x7              	MOVAI	0x07
0000b9   57bc     movra   0x1bc            	MOVRA	_PMOD
                                           ;	.line	55; "MC32P7351.c"	DRVCR = 0x80;                      //普通驱动
0000ba   3c80     movai   0x80             	MOVAI	0x80
0000bb   578c     movra   0x18c            	MOVRA	_DRVCR
                                           ;	.line	56; "MC32P7351.c"	}
0000bc   000c     return                   	RETURN	
                                           ; exit point of _IO_Init
                                           
                                           ;***
                                           ;  pBlock Stats: dbName = C
                                           ;***
                                           ;entry:  _CLR_RAM	;Function start
                                           ; 2 exit points
                                           ;has an exit
                                           ;; Starting pCode block
                                           _CLR_RAM	;Function start
                                           ; 2 exit points
                                           ;	.line	26; "MC32P7351.c"	for (FSR0 = 0; FSR0 < 0xff; FSR0++)
0000bd   7784     clrr    0x184            	CLRR	_FSR0
                                           ;;unsigned compare: left < lit(0xFF=255), size=1
                                           _00107_DS_
0000be   3cff     movai   0xff             	MOVAI	0xff
0000bf   4984     rsubar  0x184            	RSUBAR	_FSR0
0000c0   f187     jbclr   0x187, 0         	JBCLR	PFLAG,0
0000c1   a0c5     goto    0xc5             	GOTO	_00105_DS_
                                           ;;genSkipc:3291: created from rifx:013B5EFC
                                           ;	.line	28; "MC32P7351.c"	INDF0 = 0x00;
0000c2   7780     clrr    0x180            	CLRR	_INDF0
                                           ;	.line	26; "MC32P7351.c"	for (FSR0 = 0; FSR0 < 0xff; FSR0++)
0000c3   6784     incr    0x184            	INCR	_FSR0
0000c4   a0be     goto    0xbe             	GOTO	_00107_DS_
                                           _00105_DS_
                                           ;	.line	30; "MC32P7351.c"	FSR0 = 0xFF;
0000c5   3cff     movai   0xff             	MOVAI	0xff
0000c6   5784     movra   0x184            	MOVRA	_FSR0
                                           ;	.line	31; "MC32P7351.c"	INDF0 = 0x00;
0000c7   7780     clrr    0x180            	CLRR	_INDF0
                                           ;	.line	32; "MC32P7351.c"	}
0000c8   000c     return                   	RETURN	
                                           ; exit point of _CLR_RAM
                                           
                                           
                                           ;	code size estimation:
                                           ;	  186+    0 =   186 instructions (  372 byte)
                                           
                                           	end
                                           ;--------------------------------------------------------
                                           ; File Created by SN-SDCC : SinoMCU ANSI-C Compiler
                                           ; Version 2.0.0 (Dec 11 2019) (MINGW32)
                                           ; This file was generated Tue Jul 23 16:58:11 2024
                                           ;--------------------------------------------------------
                                           ; MC32 port for the RISC core
                                           ;--------------------------------------------------------
                                           ;	.file	"MC32P7351.c"
                                           	list	p=7351
                                           	radix dec
                                           	include "7351.inc"
                                           ;--------------------------------------------------------
                                           ; external declarations
                                           ;--------------------------------------------------------
                                           	extern	_INDF0bits
                                           	extern	_INDF1bits
                                           	extern	_INDF2bits
                                           	extern	_HIBYTEbits
                                           	extern	_FSR0bits
                                           	extern	_FSR1bits
                                           	extern	_PCLbits
                                           	extern	_PFLAGbits
                                           	extern	_MCRbits
                                           	extern	_INDF3bits
                                           	extern	_INTEbits
                                           	extern	_INTFbits
                                           	extern	_DRVCRbits
                                           	extern	_PFRCCRbits
                                           	extern	_P1KBCRbits
                                           	extern	_PFRCCALbits
                                           	extern	_IOP0bits
                                           	extern	_OEP0bits
                                           	extern	_PUP0bits
                                           	extern	_PDP0bits
                                           	extern	_IOP1bits
                                           	extern	_OEP1bits
                                           	extern	_PUP1bits
                                           	extern	_PDP1bits
                                           	extern	_T0CRbits
                                           	extern	_T0CNTbits
                                           	extern	_T0LOADbits
                                           	extern	_T0DATAbits
                                           	extern	_T1CRbits
                                           	extern	_T1CNTbits
                                           	extern	_T1LOADbits
                                           	extern	_T1DATAbits
                                           	extern	_T2CRbits
                                           	extern	_T2CNTbits
                                           	extern	_T2LOADbits
                                           	extern	_T2DATAbits
                                           	extern	_T3CRbits
                                           	extern	_T3CNTbits
                                           	extern	_T3LOADbits
                                           	extern	_PWM0DRbits
                                           	extern	_PWM1DRbits
                                           	extern	_PWM2DRbits
                                           	extern	_PWMCR0bits
                                           	extern	_PWMCR1bits
                                           	extern	_OSCMRbits
                                           	extern	_LVDCRbits
                                           	extern	_ADCR0bits
                                           	extern	_ADCR1bits
                                           	extern	_ADCR2bits
                                           	extern	_OSADJCRbits
                                           	extern	_ADRHbits
                                           	extern	_ADRLbits
                                           	extern	_ADIOS0bits
                                           	extern	_ADIOS1bits
                                           	extern	_PMODbits
                                           	extern	_PWMCR3bits
                                           	extern	_PWMCR2bits
                                           	extern	_PFRCAUXbits
                                           	extern	_HIRCCALbits
                                           	extern	_INDF0
                                           	extern	_INDF1
                                           	extern	_INDF2
                                           	extern	_HIBYTE
                                           	extern	_FSR0
                                           	extern	_FSR1
                                           	extern	_PCL
                                           	extern	_PFLAG
                                           	extern	_MCR
                                           	extern	_INDF3
                                           	extern	_INTE
                                           	extern	_INTF
                                           	extern	_DRVCR
                                           	extern	_PFRCCR
                                           	extern	_P1KBCR
                                           	extern	_PFRCCAL
                                           	extern	_IOP0
                                           	extern	_OEP0
                                           	extern	_PUP0
                                           	extern	_PDP0
                                           	extern	_IOP1
                                           	extern	_OEP1
                                           	extern	_PUP1
                                           	extern	_PDP1
                                           	extern	_T0CR
                                           	extern	_T0CNT
                                           	extern	_T0LOAD
                                           	extern	_T0DATA
                                           	extern	_T1CR
                                           	extern	_T1CNT
                                           	extern	_T1LOAD
                                           	extern	_T1DATA
                                           	extern	_T2CR
                                           	extern	_T2CNT
                                           	extern	_T2LOAD
                                           	extern	_T2DATA
                                           	extern	_T3CR
                                           	extern	_T3CNT
                                           	extern	_T3LOAD
                                           	extern	_PWM0DR
                                           	extern	_PWM1DR
                                           	extern	_PWM2DR
                                           	extern	_PWMCR0
                                           	extern	_PWMCR1
                                           	extern	_OSCMR
                                           	extern	_LVDCR
                                           	extern	_ADCR0
                                           	extern	_ADCR1
                                           	extern	_ADCR2
                                           	extern	_OSADJCR
                                           	extern	_ADRH
                                           	extern	_ADRL
                                           	extern	_ADIOS0
                                           	extern	_ADIOS1
                                           	extern	_PMOD
                                           	extern	_PWMCR3
                                           	extern	_PWMCR2
                                           	extern	_PFRCAUX
                                           	extern	_HIRCCAL
                                           ;--------------------------------------------------------
                                           ; global declarations
                                           ;--------------------------------------------------------
                                           	global	_Sys_Init
                                           	global	_TIMER3_INT_Init
                                           	global	_TIMER2_INT_Init
                                           	global	_TIMER1_INT_Init
                                           	global	_TIMER0_INT_Init
                                           	global	_IO_Init
                                           	global	_CLR_RAM
                                           	global	_main
                                           	global	_int_isr
                                           	global	_abuf
                                           	global	_statusbuf
                                           	global	_flag1
                                           
                                           	global STK06
                                           	global STK05
                                           	global STK04
                                           	global STK03
                                           	global STK02
                                           	global STK01
                                           	global STK00
                                           
                                           sharebank udata_ovr 0x0000
                                           STK06	res 1
                                           STK05	res 1
                                           STK04	res 1
                                           STK03	res 1
                                           STK02	res 1
                                           STK01	res 1
                                           STK00	res 1
                                           
                                           ;--------------------------------------------------------
                                           ; global definitions
                                           ;--------------------------------------------------------
                                           UD_MC32P7351_0	udata
                                           _abuf	res	1
                                           
                                           UD_MC32P7351_1	udata
                                           _statusbuf	res	1
                                           
                                           UD_MC32P7351_2	udata
                                           _flag1	res	1
                                           
                                           ;--------------------------------------------------------
                                           ; absolute symbol definitions
                                           ;--------------------------------------------------------
                                           ;--------------------------------------------------------
                                           ; compiler-defined variables
                                           ;--------------------------------------------------------
                                           UDL_MC32P7351_0	udata
                                           r0x1000	res	1
                                           r0x1001	res	1
                                           ;--------------------------------------------------------
                                           ; initialized data
                                           ;--------------------------------------------------------
                                           
                                           ;@Allocation info for local variables in function 'CLR_RAM'
                                           ;@CLR_RAM Sys_Init                  Allocated to registers ;size:2
                                           ;@CLR_RAM IO_Init                   Allocated to registers ;size:2
                                           ;@CLR_RAM TIMER0_INT_Init           Allocated to registers ;size:2
                                           ;@CLR_RAM TIMER1_INT_Init           Allocated to registers ;size:2
                                           ;@CLR_RAM TIMER2_INT_Init           Allocated to registers ;size:2
                                           ;@CLR_RAM TIMER3_INT_Init           Allocated to registers ;size:2
                                           ;@CLR_RAM INDF0bits                 Allocated to registers ;size:1
                                           ;@CLR_RAM INDF1bits                 Allocated to registers ;size:1
                                           ;@CLR_RAM INDF2bits                 Allocated to registers ;size:1
                                           ;@CLR_RAM HIBYTEbits                Allocated to registers ;size:1
                                           ;@CLR_RAM FSR0bits                  Allocated to registers ;size:1
                                           ;@CLR_RAM FSR1bits                  Allocated to registers ;size:1
                                           ;@CLR_RAM PCLbits                   Allocated to registers ;size:1
                                           ;@CLR_RAM PFLAGbits                 Allocated to registers ;size:1
                                           ;@CLR_RAM MCRbits                   Allocated to registers ;size:1
                                           ;@CLR_RAM INDF3bits                 Allocated to registers ;size:1
                                           ;@CLR_RAM INTEbits                  Allocated to registers ;size:1
                                           ;@CLR_RAM INTFbits                  Allocated to registers ;size:1
                                           ;@CLR_RAM DRVCRbits                 Allocated to registers ;size:1
                                           ;@CLR_RAM PFRCCRbits                Allocated to registers ;size:1
                                           ;@CLR_RAM P1KBCRbits                Allocated to registers ;size:1
                                           ;@CLR_RAM PFRCCALbits               Allocated to registers ;size:1
                                           ;@CLR_RAM IOP0bits                  Allocated to registers ;size:1
                                           ;@CLR_RAM OEP0bits                  Allocated to registers ;size:1
                                           ;@CLR_RAM PUP0bits                  Allocated to registers ;size:1
                                           ;@CLR_RAM PDP0bits                  Allocated to registers ;size:1
                                           ;@CLR_RAM IOP1bits                  Allocated to registers ;size:1
                                           ;@CLR_RAM OEP1bits                  Allocated to registers ;size:1
                                           ;@CLR_RAM PUP1bits                  Allocated to registers ;size:1
                                           ;@CLR_RAM PDP1bits                  Allocated to registers ;size:1
                                           ;@CLR_RAM T0CRbits                  Allocated to registers ;size:1
                                           ;@CLR_RAM T0CNTbits                 Allocated to registers ;size:1
                                           ;@CLR_RAM T0LOADbits                Allocated to registers ;size:1
                                           ;@CLR_RAM T0DATAbits                Allocated to registers ;size:1
                                           ;@CLR_RAM T1CRbits                  Allocated to registers ;size:1
                                           ;@CLR_RAM T1CNTbits                 Allocated to registers ;size:1
                                           ;@CLR_RAM T1LOADbits                Allocated to registers ;size:1
                                           ;@CLR_RAM T1DATAbits                Allocated to registers ;size:1
                                           ;@CLR_RAM T2CRbits                  Allocated to registers ;size:1
                                           ;@CLR_RAM T2CNTbits                 Allocated to registers ;size:1
                                           ;@CLR_RAM T2LOADbits                Allocated to registers ;size:1
                                           ;@CLR_RAM T2DATAbits                Allocated to registers ;size:1
                                           ;@CLR_RAM T3CRbits                  Allocated to registers ;size:1
                                           ;@CLR_RAM T3CNTbits                 Allocated to registers ;size:1
                                           ;@CLR_RAM T3LOADbits                Allocated to registers ;size:1
                                           ;@CLR_RAM PWM0DRbits                Allocated to registers ;size:1
                                           ;@CLR_RAM PWM1DRbits                Allocated to registers ;size:1
                                           ;@CLR_RAM PWM2DRbits                Allocated to registers ;size:1
                                           ;@CLR_RAM PWMCR0bits                Allocated to registers ;size:1
                                           ;@CLR_RAM PWMCR1bits                Allocated to registers ;size:1
                                           ;@CLR_RAM OSCMRbits                 Allocated to registers ;size:1
                                           ;@CLR_RAM LVDCRbits                 Allocated to registers ;size:1
                                           ;@CLR_RAM ADCR0bits                 Allocated to registers ;size:1
                                           ;@CLR_RAM ADCR1bits                 Allocated to registers ;size:1
                                           ;@CLR_RAM ADCR2bits                 Allocated to registers ;size:1
                                           ;@CLR_RAM OSADJCRbits               Allocated to registers ;size:1
                                           ;@CLR_RAM ADRHbits                  Allocated to registers ;size:1
                                           ;@CLR_RAM ADRLbits                  Allocated to registers ;size:1
                                           ;@CLR_RAM ADIOS0bits                Allocated to registers ;size:1
                                           ;@CLR_RAM ADIOS1bits                Allocated to registers ;size:1
                                           ;@CLR_RAM PMODbits                  Allocated to registers ;size:1
                                           ;@CLR_RAM PWMCR3bits                Allocated to registers ;size:1
                                           ;@CLR_RAM PWMCR2bits                Allocated to registers ;size:1
                                           ;@CLR_RAM PFRCAUXbits               Allocated to registers ;size:1
                                           ;@CLR_RAM HIRCCALbits               Allocated to registers ;size:1
                                           ;@CLR_RAM abuf                      Allocated to registers ;size:1
                                           ;@CLR_RAM statusbuf                 Allocated to registers ;size:1
                                           ;@CLR_RAM flag1                     Allocated to registers ;size:1
                                           ;@CLR_RAM INDF0                     Allocated to registers ;size:1
                                           ;@CLR_RAM INDF1                     Allocated to registers ;size:1
                                           ;@CLR_RAM INDF2                     Allocated to registers ;size:1
                                           ;@CLR_RAM HIBYTE                    Allocated to registers ;size:1
                                           ;@CLR_RAM FSR0                      Allocated to registers ;size:1
                                           ;@CLR_RAM FSR1                      Allocated to registers ;size:1
                                           ;@CLR_RAM PCL                       Allocated to registers ;size:1
                                           ;@CLR_RAM PFLAG                     Allocated to registers ;size:1
                                           ;@CLR_RAM MCR                       Allocated to registers ;size:1
                                           ;@CLR_RAM INDF3                     Allocated to registers ;size:1
                                           ;@CLR_RAM INTE                      Allocated to registers ;size:1
                                           ;@CLR_RAM INTF                      Allocated to registers ;size:1
                                           ;@CLR_RAM DRVCR                     Allocated to registers ;size:1
                                           ;@CLR_RAM PFRCCR                    Allocated to registers ;size:1
                                           ;@CLR_RAM P1KBCR                    Allocated to registers ;size:1
                                           ;@CLR_RAM PFRCCAL                   Allocated to registers ;size:1
                                           ;@CLR_RAM IOP0                      Allocated to registers ;size:1
                                           ;@CLR_RAM OEP0                      Allocated to registers ;size:1
                                           ;@CLR_RAM PUP0                      Allocated to registers ;size:1
                                           ;@CLR_RAM PDP0                      Allocated to registers ;size:1
                                           ;@CLR_RAM IOP1                      Allocated to registers ;size:1
                                           ;@CLR_RAM OEP1                      Allocated to registers ;size:1
                                           ;@CLR_RAM PUP1                      Allocated to registers ;size:1
                                           ;@CLR_RAM PDP1                      Allocated to registers ;size:1
                                           ;@CLR_RAM T0CR                      Allocated to registers ;size:1
                                           ;@CLR_RAM T0CNT                     Allocated to registers ;size:1
                                           ;@CLR_RAM T0LOAD                    Allocated to registers ;size:1
                                           ;@CLR_RAM T0DATA                    Allocated to registers ;size:1
                                           ;@CLR_RAM T1CR                      Allocated to registers ;size:1
                                           ;@CLR_RAM T1CNT                     Allocated to registers ;size:1
                                           ;@CLR_RAM T1LOAD                    Allocated to registers ;size:1
                                           ;@CLR_RAM T1DATA                    Allocated to registers ;size:1
                                           ;@CLR_RAM T2CR                      Allocated to registers ;size:1
                                           ;@CLR_RAM T2CNT                     Allocated to registers ;size:1
                                           ;@CLR_RAM T2LOAD                    Allocated to registers ;size:1
                                           ;@CLR_RAM T2DATA                    Allocated to registers ;size:1
                                           ;@CLR_RAM T3CR                      Allocated to registers ;size:1
                                           ;@CLR_RAM T3CNT                     Allocated to registers ;size:1
                                           ;@CLR_RAM T3LOAD                    Allocated to registers ;size:1
                                           ;@CLR_RAM PWM0DR                    Allocated to registers ;size:1
                                           ;@CLR_RAM PWM1DR                    Allocated to registers ;size:1
                                           ;@CLR_RAM PWM2DR                    Allocated to registers ;size:1
                                           ;@CLR_RAM PWMCR0                    Allocated to registers ;size:1
                                           ;@CLR_RAM PWMCR1                    Allocated to registers ;size:1
                                           ;@CLR_RAM OSCMR                     Allocated to registers ;size:1
                                           ;@CLR_RAM LVDCR                     Allocated to registers ;size:1
                                           ;@CLR_RAM ADCR0                     Allocated to registers ;size:1
                                           ;@CLR_RAM ADCR1                     Allocated to registers ;size:1
                                           ;@CLR_RAM ADCR2                     Allocated to registers ;size:1
                                           ;@CLR_RAM OSADJCR                   Allocated to registers ;size:1
                                           ;@CLR_RAM ADRH                      Allocated to registers ;size:1
                                           ;@CLR_RAM ADRL                      Allocated to registers ;size:1
                                           ;@CLR_RAM ADIOS0                    Allocated to registers ;size:1
                                           ;@CLR_RAM ADIOS1                    Allocated to registers ;size:1
                                           ;@CLR_RAM PMOD                      Allocated to registers ;size:1
                                           ;@CLR_RAM PWMCR3                    Allocated to registers ;size:1
                                           ;@CLR_RAM PWMCR2                    Allocated to registers ;size:1
                                           ;@CLR_RAM PFRCAUX                   Allocated to registers ;size:1
                                           ;@CLR_RAM HIRCCAL                   Allocated to registers ;size:1
                                           ;@end Allocation info for local variables in function 'CLR_RAM';
                                           ;@Allocation info for local variables in function 'IO_Init'
                                           ;@end Allocation info for local variables in function 'IO_Init';
                                           ;@Allocation info for local variables in function 'TIMER0_INT_Init'
                                           ;@end Allocation info for local variables in function 'TIMER0_INT_Init';
                                           ;@Allocation info for local variables in function 'TIMER1_INT_Init'
                                           ;@end Allocation info for local variables in function 'TIMER1_INT_Init';
                                           ;@Allocation info for local variables in function 'TIMER2_INT_Init'
                                           ;@end Allocation info for local variables in function 'TIMER2_INT_Init';
                                           ;@Allocation info for local variables in function 'TIMER3_INT_Init'
                                           ;@end Allocation info for local variables in function 'TIMER3_INT_Init';
                                           ;@Allocation info for local variables in function 'Sys_Init'
                                           ;@end Allocation info for local variables in function 'Sys_Init';
                                           ;@Allocation info for local variables in function 'main'
                                           ;@end Allocation info for local variables in function 'main';
                                           ;@Allocation info for local variables in function 'int_isr'
                                           ;@end Allocation info for local variables in function 'int_isr';
                                           
                                           ;--------------------------------------------------------
                                           ; overlayable items in internal ram 
                                           ;--------------------------------------------------------
                                           ;	udata_ovr
                                           ;--------------------------------------------------------
                                           ; reset vector 
                                           ;--------------------------------------------------------
                                           STARTUP	code 0x0000
                                           	goto	_main
                                           ;--------------------------------------------------------
                                           ; interrupt and initialization code
                                           ;--------------------------------------------------------
                                           c_interrupt	code	0x8
                                           __sdcc_interrupt
                                           ;***
                                           ;  pBlock Stats: dbName = I
                                           ;***
                                           ;entry:  _int_isr	;Function start
                                           ; 0 exit points
                                           ;2 compiler assigned registers:
                                           ;   r0x1000
                                           ;   r0x1001
                                           ;; Starting pCode block
                                           _int_isr	;Function start
                                           ; 0 exit points
                                           ;	.line	155; "MC32P7351.c"	__endasm;
                                           	movra	_abuf
                                           	swapar	_PFLAG
                                           	movra	_statusbuf
                                           ;	.line	157; "MC32P7351.c"	if (T0IF & T0IE)
                                           	CLRR	r0x1000
                                           	JBCLR	_INTFbits,0
                                           	INCR	r0x1000
                                           	CLRR	r0x1001
                                           	JBCLR	_INTEbits,0
                                           	INCR	r0x1001
                                           	MOVAR	r0x1001
                                           	ANDRA	r0x1000
                                           	MOVAI	0x00
                                           	ORAR	r0x1000
                                           	JBCLR	PFLAG,2
                                           	GOTO	_00143_DS_
                                           ;	.line	159; "MC32P7351.c"	P10D = !P10D;
                                           	CLRR	r0x1000
                                           	JBCLR	_IOP1bits,0
                                           	INCR	r0x1000
                                           	MOVAR	r0x1000
                                           	MOVAI	0x00
                                           	JBCLR	PFLAG,2
                                           	MOVAI	0x01
                                           	MOVRA	r0x1000
                                           	MOVRA	r0x1001
                                           ;;102	MOVAR	r0x1001
                                           	RRAR	r0x1000
                                           	JBSET	PFLAG,0
                                           	BCLR	_IOP1bits,0
                                           	JBCLR	PFLAG,0
                                           	BSET	_IOP1bits,0
                                           ;	.line	160; "MC32P7351.c"	T0IF = 0;
                                           	BCLR	_INTFbits,0
                                           _00143_DS_
                                           ;	.line	163; "MC32P7351.c"	if (T1IF & T1IE)
                                           	CLRR	r0x1000
                                           	JBCLR	_INTFbits,1
                                           	INCR	r0x1000
                                           	CLRR	r0x1001
                                           	JBCLR	_INTEbits,1
                                           	INCR	r0x1001
                                           	MOVAR	r0x1001
                                           	ANDRA	r0x1000
                                           	MOVAI	0x00
                                           	ORAR	r0x1000
                                           	JBCLR	PFLAG,2
                                           	GOTO	_00145_DS_
                                           ;	.line	165; "MC32P7351.c"	P11D = !P11D;
                                           	CLRR	r0x1000
                                           	JBCLR	_IOP1bits,1
                                           	INCR	r0x1000
                                           	MOVAR	r0x1000
                                           	MOVAI	0x00
                                           	JBCLR	PFLAG,2
                                           	MOVAI	0x01
                                           	MOVRA	r0x1000
                                           	MOVRA	r0x1001
                                           ;;101	MOVAR	r0x1001
                                           	RRAR	r0x1000
                                           	JBSET	PFLAG,0
                                           	BCLR	_IOP1bits,1
                                           	JBCLR	PFLAG,0
                                           	BSET	_IOP1bits,1
                                           ;	.line	166; "MC32P7351.c"	T1IF = 0;
                                           	BCLR	_INTFbits,1
                                           _00145_DS_
                                           ;	.line	169; "MC32P7351.c"	if (T2IF & T2IE)
                                           	CLRR	r0x1000
                                           	JBCLR	_INTFbits,5
                                           	INCR	r0x1000
                                           	CLRR	r0x1001
                                           	JBCLR	_INTEbits,5
                                           	INCR	r0x1001
                                           	MOVAR	r0x1001
                                           	ANDRA	r0x1000
                                           	MOVAI	0x00
                                           	ORAR	r0x1000
                                           	JBCLR	PFLAG,2
                                           	GOTO	_00147_DS_
                                           ;	.line	171; "MC32P7351.c"	P12D = !P12D;
                                           	CLRR	r0x1000
                                           	JBCLR	_IOP1bits,2
                                           	INCR	r0x1000
                                           	MOVAR	r0x1000
                                           	MOVAI	0x00
                                           	JBCLR	PFLAG,2
                                           	MOVAI	0x01
                                           	MOVRA	r0x1000
                                           	MOVRA	r0x1001
                                           ;;100	MOVAR	r0x1001
                                           	RRAR	r0x1000
                                           	JBSET	PFLAG,0
                                           	BCLR	_IOP1bits,2
                                           	JBCLR	PFLAG,0
                                           	BSET	_IOP1bits,2
                                           ;	.line	172; "MC32P7351.c"	T2IF = 0;
                                           	BCLR	_INTFbits,5
                                           _00147_DS_
                                           ;	.line	175; "MC32P7351.c"	if (T3IF & T3IE)
                                           	CLRR	r0x1000
                                           	JBCLR	_INTFbits,7
                                           	INCR	r0x1000
                                           	CLRR	r0x1001
                                           	JBCLR	_INTEbits,7
                                           	INCR	r0x1001
                                           	MOVAR	r0x1001
                                           	ANDRA	r0x1000
                                           	MOVAI	0x00
                                           	ORAR	r0x1000
                                           	JBCLR	PFLAG,2
                                           	GOTO	_00149_DS_
                                           ;	.line	177; "MC32P7351.c"	P14D = !P14D;
                                           	CLRR	r0x1000
                                           	JBCLR	_IOP1bits,4
                                           	INCR	r0x1000
                                           	MOVAR	r0x1000
                                           	MOVAI	0x00
                                           	JBCLR	PFLAG,2
                                           	MOVAI	0x01
                                           	MOVRA	r0x1000
                                           	MOVRA	r0x1001
                                           ;;99	MOVAR	r0x1001
                                           	RRAR	r0x1000
                                           	JBSET	PFLAG,0
                                           	BCLR	_IOP1bits,4
                                           	JBCLR	PFLAG,0
                                           	BSET	_IOP1bits,4
                                           ;	.line	178; "MC32P7351.c"	T3IF = 0;
                                           	BCLR	_INTFbits,7
                                           _00149_DS_
                                           ;	.line	185; "MC32P7351.c"	__endasm;
                                           	swapar	_statusbuf
                                           	movra	_PFLAG
                                           	swapr	_abuf
                                           	swapar	_abuf
                                           END_OF_INTERRUPT
                                           ;	.line	186; "MC32P7351.c"	}
                                           	RETIE	
                                           
                                           ;--------------------------------------------------------
                                           ; code
                                           ;--------------------------------------------------------
                                           code_MC32P7351	code
                                           ;***
                                           ;  pBlock Stats: dbName = M
                                           ;***
                                           ;entry:  _main	;Function start
                                           ; 2 exit points
                                           ;has an exit
                                           ;functions called:
                                           ;   _Sys_Init
                                           ;   _Sys_Init
                                           ;; Starting pCode block
                                           _main	;Function start
                                           ; 2 exit points
                                           ;	.line	138; "MC32P7351.c"	Sys_Init();
                                           	CALL	_Sys_Init
                                           _00137_DS_
                                           ;	.line	139; "MC32P7351.c"	while (1)
                                           	GOTO	_00137_DS_
                                           ;	.line	142; "MC32P7351.c"	}
                                           	RETURN	
                                           ; exit point of _main
                                           
                                           ;***
                                           ;  pBlock Stats: dbName = C
                                           ;***
                                           ;entry:  _Sys_Init	;Function start
                                           ; 2 exit points
                                           ;has an exit
                                           ;functions called:
                                           ;   _CLR_RAM
                                           ;   _IO_Init
                                           ;   _TIMER0_INT_Init
                                           ;   _TIMER1_INT_Init
                                           ;   _TIMER2_INT_Init
                                           ;   _TIMER3_INT_Init
                                           ;   _CLR_RAM
                                           ;   _IO_Init
                                           ;   _TIMER0_INT_Init
                                           ;   _TIMER1_INT_Init
                                           ;   _TIMER2_INT_Init
                                           ;   _TIMER3_INT_Init
                                           ;; Starting pCode block
                                           _Sys_Init	;Function start
                                           ; 2 exit points
                                           ;	.line	121; "MC32P7351.c"	GIE = 0;
                                           	BCLR	_MCRbits,7
                                           ;	.line	122; "MC32P7351.c"	CLR_RAM();
                                           	CALL	_CLR_RAM
                                           ;	.line	123; "MC32P7351.c"	IO_Init();
                                           	CALL	_IO_Init
                                           ;	.line	124; "MC32P7351.c"	TIMER0_INT_Init();
                                           	CALL	_TIMER0_INT_Init
                                           ;	.line	125; "MC32P7351.c"	TIMER1_INT_Init();
                                           	CALL	_TIMER1_INT_Init
                                           ;	.line	126; "MC32P7351.c"	TIMER2_INT_Init();
                                           	CALL	_TIMER2_INT_Init
                                           ;	.line	127; "MC32P7351.c"	TIMER3_INT_Init();
                                           	CALL	_TIMER3_INT_Init
                                           ;	.line	128; "MC32P7351.c"	GIE = 1;
                                           	BSET	_MCRbits,7
                                           ;	.line	129; "MC32P7351.c"	}
                                           	RETURN	
                                           ; exit point of _Sys_Init
                                           
                                           ;***
                                           ;  pBlock Stats: dbName = C
                                           ;***
                                           ;entry:  _TIMER3_INT_Init	;Function start
                                           ; 2 exit points
                                           ;has an exit
                                           ;; Starting pCode block
                                           _TIMER3_INT_Init	;Function start
                                           ; 2 exit points
                                           ;	.line	107; "MC32P7351.c"	T3CR = DEF_SET_BIT1;               //CPU,4分频
                                           	MOVAI	0x02
                                           	MOVRA	_T3CR
                                           ;	.line	108; "MC32P7351.c"	T3CNT = 100 - 1;
                                           	MOVAI	0x63
                                           	MOVRA	_T3CNT
                                           ;	.line	109; "MC32P7351.c"	T3LOAD = 100 - 1;                  //50us
                                           	MOVAI	0x63
                                           	MOVRA	_T3LOAD
                                           ;	.line	110; "MC32P7351.c"	T3EN = 1; 
                                           	BSET	_T3CRbits,7
                                           ;	.line	111; "MC32P7351.c"	T3IE = 1;
                                           	BSET	_INTEbits,7
                                           ;	.line	112; "MC32P7351.c"	}
                                           	RETURN	
                                           ; exit point of _TIMER3_INT_Init
                                           
                                           ;***
                                           ;  pBlock Stats: dbName = C
                                           ;***
                                           ;entry:  _TIMER2_INT_Init	;Function start
                                           ; 2 exit points
                                           ;has an exit
                                           ;; Starting pCode block
                                           _TIMER2_INT_Init	;Function start
                                           ; 2 exit points
                                           ;	.line	93; "MC32P7351.c"	T2CR = DEF_SET_BIT0 | DEF_SET_BIT1;//CPU,8分频
                                           	MOVAI	0x03
                                           	MOVRA	_T2CR
                                           ;	.line	94; "MC32P7351.c"	T2CNT = 100 - 1;
                                           	MOVAI	0x63
                                           	MOVRA	_T2CNT
                                           ;	.line	95; "MC32P7351.c"	T2LOAD = 100 - 1;                  //100us
                                           	MOVAI	0x63
                                           	MOVRA	_T2LOAD
                                           ;	.line	96; "MC32P7351.c"	T2EN = 1;
                                           	BSET	_T2CRbits,7
                                           ;	.line	97; "MC32P7351.c"	T2IE = 1;
                                           	BSET	_INTEbits,5
                                           ;	.line	98; "MC32P7351.c"	}
                                           	RETURN	
                                           ; exit point of _TIMER2_INT_Init
                                           
                                           ;***
                                           ;  pBlock Stats: dbName = C
                                           ;***
                                           ;entry:  _TIMER1_INT_Init	;Function start
                                           ; 2 exit points
                                           ;has an exit
                                           ;; Starting pCode block
                                           _TIMER1_INT_Init	;Function start
                                           ; 2 exit points
                                           ;	.line	79; "MC32P7351.c"	T1CR = DEF_SET_BIT0 | DEF_SET_BIT2;//定时模式,CPU,32分频
                                           	MOVAI	0x05
                                           	MOVRA	_T1CR
                                           ;	.line	80; "MC32P7351.c"	T1CNT = 250 - 1;                   //1ms
                                           	MOVAI	0xf9
                                           	MOVRA	_T1CNT
                                           ;	.line	81; "MC32P7351.c"	T1LOAD = 250 - 1;
                                           	MOVAI	0xf9
                                           	MOVRA	_T1LOAD
                                           ;	.line	82; "MC32P7351.c"	T1EN = 1;
                                           	BSET	_T1CRbits,7
                                           ;	.line	83; "MC32P7351.c"	T1IE = 1;
                                           	BSET	_INTEbits,1
                                           ;	.line	84; "MC32P7351.c"	}
                                           	RETURN	
                                           ; exit point of _TIMER1_INT_Init
                                           
                                           ;***
                                           ;  pBlock Stats: dbName = C
                                           ;***
                                           ;entry:  _TIMER0_INT_Init	;Function start
                                           ; 2 exit points
                                           ;has an exit
                                           ;; Starting pCode block
                                           _TIMER0_INT_Init	;Function start
                                           ; 2 exit points
                                           ;	.line	65; "MC32P7351.c"	T0CR = DEF_SET_BIT1 | DEF_SET_BIT2;//CPU,64分频
                                           	MOVAI	0x06
                                           	MOVRA	_T0CR
                                           ;	.line	66; "MC32P7351.c"	T0CNT = 250-1;
                                           	MOVAI	0xf9
                                           	MOVRA	_T0CNT
                                           ;	.line	67; "MC32P7351.c"	T0LOAD = 250-1;                    //2ms
                                           	MOVAI	0xf9
                                           	MOVRA	_T0LOAD
                                           ;	.line	68; "MC32P7351.c"	T0EN = 1;
                                           	BSET	_T0CRbits,7
                                           ;	.line	69; "MC32P7351.c"	T0IE = 1;
                                           	BSET	_INTEbits,0
                                           ;	.line	70; "MC32P7351.c"	}
                                           	RETURN	
                                           ; exit point of _TIMER0_INT_Init
                                           
                                           ;***
                                           ;  pBlock Stats: dbName = C
                                           ;***
                                           ;entry:  _IO_Init	;Function start
                                           ; 2 exit points
                                           ;has an exit
                                           ;; Starting pCode block
                                           _IO_Init	;Function start
                                           ; 2 exit points
                                           ;	.line	41; "MC32P7351.c"	IOP0 = 0x00;                       //io口数据位
                                           	CLRR	_IOP0
                                           ;	.line	42; "MC32P7351.c"	OEP0 = 0xff;                       //io口方向 1:out  0:in
                                           	MOVAI	0xff
                                           	MOVRA	_OEP0
                                           ;	.line	43; "MC32P7351.c"	PUP0 = 0x00;                       //io口上拉电阻   1:enable  0:disable
                                           	CLRR	_PUP0
                                           ;	.line	44; "MC32P7351.c"	PDP0 = 0x00;                       //io口下拉电阻   1:enable  0:disable
                                           	CLRR	_PDP0
                                           ;	.line	45; "MC32P7351.c"	ADIOS0 = 0x00;                     //io类型选择  1:模拟输入  0:通用io
                                           	CLRR	_ADIOS0
                                           ;	.line	47; "MC32P7351.c"	IOP1 = 0x00;                       //io口数据位
                                           	CLRR	_IOP1
                                           ;	.line	48; "MC32P7351.c"	OEP1 = 0xFF;                       //io口方向 1:out  0:in
                                           	MOVAI	0xff
                                           	MOVRA	_OEP1
                                           ;	.line	49; "MC32P7351.c"	PUP1 = 0x00;                       //io口上拉电阻   1:enable  0:disable
                                           	CLRR	_PUP1
                                           ;	.line	50; "MC32P7351.c"	PDP1 = 0x00;                       //io口下拉电阻   1:enable  0:disable
                                           	CLRR	_PDP1
                                           ;	.line	51; "MC32P7351.c"	ADIOS1 = 0x00;                     //io类型选择  1:模拟输入  0:通用io
                                           	CLRR	_ADIOS1
                                           ;	.line	53; "MC32P7351.c"	PMOD = 0x07;                       //bit7-bit5 P17、P13、P01 io类型选择 1:模拟输入  0:通用io 
                                           	MOVAI	0x07
                                           	MOVRA	_PMOD
                                           ;	.line	55; "MC32P7351.c"	DRVCR = 0x80;                      //普通驱动
                                           	MOVAI	0x80
                                           	MOVRA	_DRVCR
                                           ;	.line	56; "MC32P7351.c"	}
                                           	RETURN	
                                           ; exit point of _IO_Init
                                           
                                           ;***
                                           ;  pBlock Stats: dbName = C
                                           ;***
                                           ;entry:  _CLR_RAM	;Function start
                                           ; 2 exit points
                                           ;has an exit
                                           ;; Starting pCode block
                                           _CLR_RAM	;Function start
                                           ; 2 exit points
                                           ;	.line	26; "MC32P7351.c"	for (FSR0 = 0; FSR0 < 0xff; FSR0++)
                                           	CLRR	_FSR0
                                           ;;unsigned compare: left < lit(0xFF=255), size=1
                                           _00107_DS_
                                           	MOVAI	0xff
                                           	RSUBAR	_FSR0
                                           	JBCLR	PFLAG,0
                                           	GOTO	_00105_DS_
                                           ;;genSkipc:3291: created from rifx:013B5EFC
                                           ;	.line	28; "MC32P7351.c"	INDF0 = 0x00;
                                           	CLRR	_INDF0
                                           ;	.line	26; "MC32P7351.c"	for (FSR0 = 0; FSR0 < 0xff; FSR0++)
                                           	INCR	_FSR0
                                           	GOTO	_00107_DS_
                                           _00105_DS_
                                           ;	.line	30; "MC32P7351.c"	FSR0 = 0xFF;
                                           	MOVAI	0xff
                                           	MOVRA	_FSR0
                                           ;	.line	31; "MC32P7351.c"	INDF0 = 0x00;
                                           	CLRR	_INDF0
                                           ;	.line	32; "MC32P7351.c"	}
                                           	RETURN	
                                           ; exit point of _CLR_RAM
                                           
                                           
                                           ;	code size estimation:
                                           ;	  186+    0 =   186 instructions (  372 byte)
                                           
                                           	end


MEMORY USAGE MAP ('X' = Used,  '-' = Unused)

0000 : XX-------------- XXXXXXXXXXXXXXXX XXXXXXXXXXXXXXXX XXXXXXXXXXXXXXXX
0040 : XXXXXXXXXXXXXXXX XXXXXXXXXXXXXXXX XXXXXXXXXXXXXXXX XXXXXXXXXXXXXXXX
0080 : XXXXXXXXXXXXXXXX XXXXXXXXXXXXXXXX XXXXXXXXXXXXXXXX XXXXXXXXXXXXXXXX
00C0 : XXXXXXXXXXXXXXXX XXXXXXXXXXXXXXXX XXXXXXXXXXXXXXXX XXXXXXXXXXXXXXXX
0100 : XXXXXXXXXXXXXXXX XXXXXXXXXXXXXXXX XXXXXXXXXXXXXXXX XXXXXXXXXXXXXXXX
0140 : XXXXXXXXXXXXXXXX XXXXXXXXXXXXXXXX XXXXXXXXXXXXXXXX XXXXXXXXXXXXXXXX
0180 : XXXXXXXXXXXXXXXX XX-------------- ---------------- ----------------

All other memory blocks unused.

Program Memory Words Used:   194

