gplink-2.2.37 (Jan 16 2024)
Listing File Generated: 2024-4-11  10:30:18
 
 
Address  Value    Disassembly              Source
-------  -----    -----------              ------
                                           ;--------------------------------------------------------
                                           ; external declarations
                                           ;--------------------------------------------------------
                                           	extern	_INDFbits
                                           	extern	_T0CNTbits
                                           	extern	_PCLbits
                                           	extern	_STATUSbits
                                           	extern	_FSRbits
                                           	extern	_P1bits
                                           	extern	_MCRbits
                                           	extern	_T0CRbits
                                           	extern	_PCLATHbits
                                           	extern	_PDCONbits
                                           	extern	_ODCONbits
                                           	extern	_PUCONbits
                                           	extern	_INTEbits
                                           	extern	_INTFbits
                                           	extern	_PWM1CR0bits
                                           	extern	_PWM1CR1bits
                                           	extern	_PWM1CR2bits
                                           	extern	_DDR1bits
                                           	extern	_TMRCRbits
                                           	extern	_T1CRbits
                                           	extern	_T1CNTbits
                                           	extern	_T1LOADbits
                                           	extern	_T1DATAbits
                                           	extern	_T1DATBbits
                                           	extern	_T1DATCbits
                                           	extern	_T1DATDbits
                                           	extern	_T2CRbits
                                           	extern	_T2CNTHbits
                                           	extern	_T2CNTLbits
                                           	extern	_T2LOADHbits
                                           	extern	_T2LOADLbits
                                           	extern	_P1KBCRbits
                                           	extern	_P1ADCRbits
                                           	extern	_CMPCR0bits
                                           	extern	_CMPCR1bits
                                           	extern	_CMPCR2bits
                                           	extern	_TKCR0bits
                                           	extern	_TKCR1bits
                                           	extern	_TKCR2bits
                                           	extern	_TKCNTHbits
                                           	extern	_TKCNTLbits
                                           	extern	_INDF
                                           	extern	_T0CNT
                                           	extern	_PCL
                                           	extern	_STATUS
                                           	extern	_FSR
                                           	extern	_P1
                                           	extern	_MCR
                                           	extern	_T0CR
                                           	extern	_PCLATH
                                           	extern	_PDCON
                                           	extern	_ODCON
                                           	extern	_PUCON
                                           	extern	_INTE
                                           	extern	_INTF
                                           	extern	_PWM1CR0
                                           	extern	_PWM1CR1
                                           	extern	_PWM1CR2
                                           	extern	_DDR1
                                           	extern	_TMRCR
                                           	extern	_T1CR
                                           	extern	_T1CNT
                                           	extern	_T1LOAD
                                           	extern	_T1DATA
                                           	extern	_T1DATB
                                           	extern	_T1DATC
                                           	extern	_T1DATD
                                           	extern	_T2CR
                                           	extern	_T2CNTH
                                           	extern	_T2CNTL
                                           	extern	_T2LOADH
                                           	extern	_T2LOADL
                                           	extern	_P1KBCR
                                           	extern	_P1ADCR
                                           	extern	_CMPCR0
                                           	extern	_CMPCR1
                                           	extern	_CMPCR2
                                           	extern	_TKCR0
                                           	extern	_TKCR1
                                           	extern	_TKCR2
                                           	extern	_TKCNTH
                                           	extern	_TKCNTL
                                           ;--------------------------------------------------------
                                           ; global declarations
                                           ;--------------------------------------------------------
                                           	global	_Delay_us_2
                                           	global	_Init_Sys
                                           	global	_Clr_Ram
                                           	global	_T1_PWM_Init
                                           	global	_IO_Init
                                           	global	_TOUCH_Init
                                           	global	_TK_Init
                                           	global	_Get_TK_Value
                                           	global	_TK0_Release_
                                           	global	_TK0_Scan
                                           	global	_TK1_Release_
                                           	global	_TK1_Scan
                                           	global	_TK1_value_Read
                                           	global	_TK0_value_Read
                                           	global	_PWM_W_OFF
                                           	global	_PWM_Y_OFF
                                           	global	_LED_PWM_Control
                                           	global	_Sleep_mode
                                           	global	_main
                                           	global	_int_isr
                                           	global	_CSAVE_ACC
                                           	global	_CSAVE_STATUS
                                           	global	_CPLAY_FLAG
                                           	global	_flag1
                                           	global	_flag2
                                           	global	_flag3
                                           	global	_u16_get_val
                                           	global	_u16_release_val
                                           	global	_u16_temp_val
                                           	global	_u16_release_val_TK0
                                           	global	_u16_release_val_TK1
                                           	global	_u16_TK1_get_val_Min
                                           	global	_u16_TK0_get_val_Min
                                           	global	_u16_TK0_environment_val
                                           	global	_u16_TK0_environment_val_Sum
                                           	global	_u16_TK1_environment_val
                                           	global	_u16_TK1_environment_val_Sum
                                           	global	_TK0_Filter_Cnt
                                           	global	_TK0_Filter_Cnt_T
                                           	global	_TK1_Filter_Cnt
                                           	global	_TK1_Filter_Cnt_T
                                           	global	_FilterCnt_TK0
                                           	global	_FilterCnt_TK1
                                           	global	_SleepCnt
                                           	global	_PWM_Duty_W
                                           	global	_PWM_Duty_Y
                                           	global	_T_key_Value
                                           	global	_TK1_Key_Cnt
                                           	global	_TK0_Key_Cnt
                                           	global	_T0_5ms_Cnt
                                           
                                           	global STK06
                                           	global STK05
                                           	global STK04
                                           	global STK03
                                           	global STK02
                                           	global STK01
                                           	global STK00
                                           
                                           sharebank udata_ovr 0x0010
                                           STK06	res 1
                                           STK05	res 1
                                           STK04	res 1
                                           STK03	res 1
                                           STK02	res 1
                                           STK01	res 1
                                           STK00	res 1
                                           
                                           ;--------------------------------------------------------
                                           ; global definitions
                                           ;--------------------------------------------------------
                                           UD_MC30P8160_0	udata
                                           _CSAVE_ACC	res	1
                                           
                                           UD_MC30P8160_1	udata
                                           _CSAVE_STATUS	res	1
                                           
                                           UD_MC30P8160_2	udata
                                           _CPLAY_FLAG	res	1
                                           
                                           UD_MC30P8160_3	udata
                                           _flag1	res	1
                                           
                                           UD_MC30P8160_4	udata
                                           _flag2	res	1
                                           
                                           UD_MC30P8160_5	udata
                                           _flag3	res	1
                                           
                                           UD_MC30P8160_6	udata
                                           _u16_get_val	res	2
                                           
                                           UD_MC30P8160_7	udata
                                           _u16_release_val	res	2
                                           
                                           UD_MC30P8160_8	udata
                                           _u16_temp_val	res	2
                                           
                                           UD_MC30P8160_9	udata
                                           _u16_release_val_TK0	res	2
                                           
                                           UD_MC30P8160_10	udata
                                           _u16_release_val_TK1	res	2
                                           
                                           UD_MC30P8160_11	udata
                                           _u16_TK1_get_val_Min	res	2
                                           
                                           UD_MC30P8160_12	udata
                                           _u16_TK0_get_val_Min	res	2
                                           
                                           UD_MC30P8160_13	udata
                                           _u16_TK0_environment_val	res	2
                                           
                                           UD_MC30P8160_14	udata
                                           _u16_TK0_environment_val_Sum	res	2
                                           
                                           UD_MC30P8160_15	udata
                                           _u16_TK1_environment_val	res	2
                                           
                                           UD_MC30P8160_16	udata
                                           _u16_TK1_environment_val_Sum	res	2
                                           
                                           UD_MC30P8160_17	udata
                                           _TK0_Filter_Cnt	res	1
                                           
                                           UD_MC30P8160_18	udata
                                           _TK0_Filter_Cnt_T	res	1
                                           
                                           UD_MC30P8160_19	udata
                                           _TK1_Filter_Cnt	res	1
                                           
                                           UD_MC30P8160_20	udata
                                           _TK1_Filter_Cnt_T	res	1
                                           
                                           UD_MC30P8160_21	udata
                                           _FilterCnt_TK0	res	1
                                           
                                           UD_MC30P8160_22	udata
                                           _FilterCnt_TK1	res	1
                                           
                                           UD_MC30P8160_23	udata
                                           _SleepCnt	res	1
                                           
                                           UD_MC30P8160_24	udata
                                           _PWM_Duty_W	res	1
                                           
                                           UD_MC30P8160_25	udata
                                           _PWM_Duty_Y	res	1
                                           
                                           UD_MC30P8160_26	udata
                                           _T_key_Value	res	1
                                           
                                           UD_MC30P8160_27	udata
                                           _TK1_Key_Cnt	res	1
                                           
                                           UD_MC30P8160_28	udata
                                           _TK0_Key_Cnt	res	1
                                           
                                           UD_MC30P8160_29	udata
                                           _T0_5ms_Cnt	res	1
                                           
                                           ;--------------------------------------------------------
                                           ; absolute symbol definitions
                                           ;--------------------------------------------------------
                                           ;--------------------------------------------------------
                                           ; compiler-defined variables
                                           ;--------------------------------------------------------
                                           UDL_MC30P8160_0	udata
                                           r0x1023	res	1
                                           r0x1024	res	1
                                           r0x1025	res	1
                                           r0x1027	res	1
                                           r0x1028	res	1
                                           ;--------------------------------------------------------
                                           ; initialized data
                                           ;--------------------------------------------------------
                                           
                                           ;@Allocation info for local variables in function 'Delay_us_2'
                                           ;@Delay_us_2 Delay_us_2                Allocated to registers ;size:2
                                           ;@Delay_us_2 INDFbits                  Allocated to registers ;size:1
                                           ;@Delay_us_2 T0CNTbits                 Allocated to registers ;size:1
                                           ;@Delay_us_2 PCLbits                   Allocated to registers ;size:1
                                           ;@Delay_us_2 STATUSbits                Allocated to registers ;size:1
                                           ;@Delay_us_2 FSRbits                   Allocated to registers ;size:1
                                           ;@Delay_us_2 P1bits                    Allocated to registers ;size:1
                                           ;@Delay_us_2 MCRbits                   Allocated to registers ;size:1
                                           ;@Delay_us_2 T0CRbits                  Allocated to registers ;size:1
                                           ;@Delay_us_2 PCLATHbits                Allocated to registers ;size:1
                                           ;@Delay_us_2 PDCONbits                 Allocated to registers ;size:1
                                           ;@Delay_us_2 ODCONbits                 Allocated to registers ;size:1
                                           ;@Delay_us_2 PUCONbits                 Allocated to registers ;size:1
                                           ;@Delay_us_2 INTEbits                  Allocated to registers ;size:1
                                           ;@Delay_us_2 INTFbits                  Allocated to registers ;size:1
                                           ;@Delay_us_2 PWM1CR0bits               Allocated to registers ;size:1
                                           ;@Delay_us_2 PWM1CR1bits               Allocated to registers ;size:1
                                           ;@Delay_us_2 PWM1CR2bits               Allocated to registers ;size:1
                                           ;@Delay_us_2 DDR1bits                  Allocated to registers ;size:1
                                           ;@Delay_us_2 TMRCRbits                 Allocated to registers ;size:1
                                           ;@Delay_us_2 T1CRbits                  Allocated to registers ;size:1
                                           ;@Delay_us_2 T1CNTbits                 Allocated to registers ;size:1
                                           ;@Delay_us_2 T1LOADbits                Allocated to registers ;size:1
                                           ;@Delay_us_2 T1DATAbits                Allocated to registers ;size:1
                                           ;@Delay_us_2 T1DATBbits                Allocated to registers ;size:1
                                           ;@Delay_us_2 T1DATCbits                Allocated to registers ;size:1
                                           ;@Delay_us_2 T1DATDbits                Allocated to registers ;size:1
                                           ;@Delay_us_2 T2CRbits                  Allocated to registers ;size:1
                                           ;@Delay_us_2 T2CNTHbits                Allocated to registers ;size:1
                                           ;@Delay_us_2 T2CNTLbits                Allocated to registers ;size:1
                                           ;@Delay_us_2 T2LOADHbits               Allocated to registers ;size:1
                                           ;@Delay_us_2 T2LOADLbits               Allocated to registers ;size:1
                                           ;@Delay_us_2 P1KBCRbits                Allocated to registers ;size:1
                                           ;@Delay_us_2 P1ADCRbits                Allocated to registers ;size:1
                                           ;@Delay_us_2 CMPCR0bits                Allocated to registers ;size:1
                                           ;@Delay_us_2 CMPCR1bits                Allocated to registers ;size:1
                                           ;@Delay_us_2 CMPCR2bits                Allocated to registers ;size:1
                                           ;@Delay_us_2 TKCR0bits                 Allocated to registers ;size:1
                                           ;@Delay_us_2 TKCR1bits                 Allocated to registers ;size:1
                                           ;@Delay_us_2 TKCR2bits                 Allocated to registers ;size:1
                                           ;@Delay_us_2 TKCNTHbits                Allocated to registers ;size:1
                                           ;@Delay_us_2 TKCNTLbits                Allocated to registers ;size:1
                                           ;@Delay_us_2 CSAVE_ACC                 Allocated to registers ;size:1
                                           ;@Delay_us_2 CSAVE_STATUS              Allocated to registers ;size:1
                                           ;@Delay_us_2 CPLAY_FLAG                Allocated to registers ;size:1
                                           ;@Delay_us_2 flag1                     Allocated to registers ;size:1
                                           ;@Delay_us_2 flag2                     Allocated to registers ;size:1
                                           ;@Delay_us_2 flag3                     Allocated to registers ;size:1
                                           ;@Delay_us_2 u16_get_val               Allocated to registers ;size:2
                                           ;@Delay_us_2 u16_release_val           Allocated to registers ;size:2
                                           ;@Delay_us_2 u16_temp_val              Allocated to registers ;size:2
                                           ;@Delay_us_2 u16_release_val_TK0       Allocated to registers ;size:2
                                           ;@Delay_us_2 u16_release_val_TK1       Allocated to registers ;size:2
                                           ;@Delay_us_2 u16_TK1_get_val_Min       Allocated to registers ;size:2
                                           ;@Delay_us_2 u16_TK0_get_val_Min       Allocated to registers ;size:2
                                           ;@Delay_us_2 u16_TK0_environment_val   Allocated to registers ;size:2
                                           ;@Delay_us_2 u16_TK0_environment_val_Sum Allocated to registers ;size:2
                                           ;@Delay_us_2 u16_TK1_environment_val   Allocated to registers ;size:2
                                           ;@Delay_us_2 u16_TK1_environment_val_Sum Allocated to registers ;size:2
                                           ;@Delay_us_2 TK0_Filter_Cnt            Allocated to registers ;size:1
                                           ;@Delay_us_2 TK0_Filter_Cnt_T          Allocated to registers ;size:1
                                           ;@Delay_us_2 TK1_Filter_Cnt            Allocated to registers ;size:1
                                           ;@Delay_us_2 TK1_Filter_Cnt_T          Allocated to registers ;size:1
                                           ;@Delay_us_2 FilterCnt_TK0             Allocated to registers ;size:1
                                           ;@Delay_us_2 FilterCnt_TK1             Allocated to registers ;size:1
                                           ;@Delay_us_2 SleepCnt                  Allocated to registers ;size:1
                                           ;@Delay_us_2 PWM_Duty_W                Allocated to registers ;size:1
                                           ;@Delay_us_2 PWM_Duty_Y                Allocated to registers ;size:1
                                           ;@Delay_us_2 T_key_Value               Allocated to registers ;size:1
                                           ;@Delay_us_2 TK1_Key_Cnt               Allocated to registers ;size:1
                                           ;@Delay_us_2 TK0_Key_Cnt               Allocated to registers ;size:1
                                           ;@Delay_us_2 T0_5ms_Cnt                Allocated to registers ;size:1
                                           ;@Delay_us_2 i                         Allocated to registers ;size:1
                                           ;@Delay_us_2 INDF                      Allocated to registers ;size:1
                                           ;@Delay_us_2 T0CNT                     Allocated to registers ;size:1
                                           ;@Delay_us_2 PCL                       Allocated to registers ;size:1
                                           ;@Delay_us_2 STATUS                    Allocated to registers ;size:1
                                           ;@Delay_us_2 FSR                       Allocated to registers ;size:1
                                           ;@Delay_us_2 P1                        Allocated to registers ;size:1
                                           ;@Delay_us_2 MCR                       Allocated to registers ;size:1
                                           ;@Delay_us_2 T0CR                      Allocated to registers ;size:1
                                           ;@Delay_us_2 PCLATH                    Allocated to registers ;size:1
                                           ;@Delay_us_2 PDCON                     Allocated to registers ;size:1
                                           ;@Delay_us_2 ODCON                     Allocated to registers ;size:1
                                           ;@Delay_us_2 PUCON                     Allocated to registers ;size:1
                                           ;@Delay_us_2 INTE                      Allocated to registers ;size:1
                                           ;@Delay_us_2 INTF                      Allocated to registers ;size:1
                                           ;@Delay_us_2 PWM1CR0                   Allocated to registers ;size:1
                                           ;@Delay_us_2 PWM1CR1                   Allocated to registers ;size:1
                                           ;@Delay_us_2 PWM1CR2                   Allocated to registers ;size:1
                                           ;@Delay_us_2 DDR1                      Allocated to registers ;size:1
                                           ;@Delay_us_2 TMRCR                     Allocated to registers ;size:1
                                           ;@Delay_us_2 T1CR                      Allocated to registers ;size:1
                                           ;@Delay_us_2 T1CNT                     Allocated to registers ;size:1
                                           ;@Delay_us_2 T1LOAD                    Allocated to registers ;size:1
                                           ;@Delay_us_2 T1DATA                    Allocated to registers ;size:1
                                           ;@Delay_us_2 T1DATB                    Allocated to registers ;size:1
                                           ;@Delay_us_2 T1DATC                    Allocated to registers ;size:1
                                           ;@Delay_us_2 T1DATD                    Allocated to registers ;size:1
                                           ;@Delay_us_2 T2CR                      Allocated to registers ;size:1
                                           ;@Delay_us_2 T2CNTH                    Allocated to registers ;size:1
                                           ;@Delay_us_2 T2CNTL                    Allocated to registers ;size:1
                                           ;@Delay_us_2 T2LOADH                   Allocated to registers ;size:1
                                           ;@Delay_us_2 T2LOADL                   Allocated to registers ;size:1
                                           ;@Delay_us_2 P1KBCR                    Allocated to registers ;size:1
                                           ;@Delay_us_2 P1ADCR                    Allocated to registers ;size:1
                                           ;@Delay_us_2 CMPCR0                    Allocated to registers ;size:1
                                           ;@Delay_us_2 CMPCR1                    Allocated to registers ;size:1
                                           ;@Delay_us_2 CMPCR2                    Allocated to registers ;size:1
                                           ;@Delay_us_2 TKCR0                     Allocated to registers ;size:1
                                           ;@Delay_us_2 TKCR1                     Allocated to registers ;size:1
                                           ;@Delay_us_2 TKCR2                     Allocated to registers ;size:1
                                           ;@Delay_us_2 TKCNTH                    Allocated to registers ;size:1
                                           ;@Delay_us_2 TKCNTL                    Allocated to registers ;size:1
                                           ;@end Allocation info for local variables in function 'Delay_us_2';
                                           ;@Allocation info for local variables in function 'Init_Sys'
                                           ;@end Allocation info for local variables in function 'Init_Sys';
                                           ;@Allocation info for local variables in function 'Clr_Ram'
                                           ;@end Allocation info for local variables in function 'Clr_Ram';
                                           ;@Allocation info for local variables in function 'T1_PWM_Init'
                                           ;@end Allocation info for local variables in function 'T1_PWM_Init';
                                           ;@Allocation info for local variables in function 'IO_Init'
                                           ;@end Allocation info for local variables in function 'IO_Init';
                                           ;@Allocation info for local variables in function 'TOUCH_Init'
                                           ;@end Allocation info for local variables in function 'TOUCH_Init';
                                           ;@Allocation info for local variables in function 'TK_Init'
                                           ;@end Allocation info for local variables in function 'TK_Init';
                                           ;@Allocation info for local variables in function 'Get_TK_Value'
                                           ;@end Allocation info for local variables in function 'Get_TK_Value';
                                           ;@Allocation info for local variables in function 'TK0_Release_'
                                           ;@end Allocation info for local variables in function 'TK0_Release_';
                                           ;@Allocation info for local variables in function 'TK0_Scan'
                                           ;@end Allocation info for local variables in function 'TK0_Scan';
                                           ;@Allocation info for local variables in function 'TK1_Release_'
                                           ;@end Allocation info for local variables in function 'TK1_Release_';
                                           ;@Allocation info for local variables in function 'TK1_Scan'
                                           ;@end Allocation info for local variables in function 'TK1_Scan';
                                           ;@Allocation info for local variables in function 'TK1_value_Read'
                                           ;@end Allocation info for local variables in function 'TK1_value_Read';
                                           ;@Allocation info for local variables in function 'TK0_value_Read'
                                           ;@end Allocation info for local variables in function 'TK0_value_Read';
                                           ;@Allocation info for local variables in function 'PWM_W_OFF'
                                           ;@end Allocation info for local variables in function 'PWM_W_OFF';
                                           ;@Allocation info for local variables in function 'PWM_Y_OFF'
                                           ;@end Allocation info for local variables in function 'PWM_Y_OFF';
                                           ;@Allocation info for local variables in function 'LED_PWM_Control'
                                           ;@end Allocation info for local variables in function 'LED_PWM_Control';
                                           ;@Allocation info for local variables in function 'Sleep_mode'
                                           ;@end Allocation info for local variables in function 'Sleep_mode';
                                           ;@Allocation info for local variables in function 'main'
                                           ;@end Allocation info for local variables in function 'main';
                                           ;@Allocation info for local variables in function 'int_isr'
                                           ;@end Allocation info for local variables in function 'int_isr';
                                           
                                           ;--------------------------------------------------------
                                           ; overlayable items in internal ram 
                                           ;--------------------------------------------------------
                                           ;	udata_ovr
                                           ;--------------------------------------------------------
                                           ; reset vector 
                                           ;--------------------------------------------------------
                                           STARTUP	code 0x0000
000000   2820     goto    0x20             	goto	_main
                                           ;--------------------------------------------------------
                                           ; interrupt and initialization code
                                           ;--------------------------------------------------------
                                           c_interrupt	code	0x8
                                           __sdcc_interrupt
                                           ;***
                                           ;  pBlock Stats: dbName = I
                                           ;***
                                           ;entry:  _int_isr	;Function start
                                           ; 0 exit points
                                           ;; Starting pCode block
                                           _int_isr	;Function start
                                           ; 0 exit points
                                           ;	.line	876; "MC30P8160.c"	__endasm;
000008   15b2     movra   0x32             	MOVRA	_CSAVE_ACC
000009   1103     swapar  0x3              	SWAPAR	STATUS
00000a   15b3     movra   0x33             	MOVRA	_CSAVE_STATUS
                                           	
                                           ;	.line	879; "MC30P8160.c"	if(T0IF)
00000b   300f     jbset   0xf, 0           	JBSET	_INTFbits,0
00000c   2818     goto    0x18             	GOTO	_00447_DS_
                                           ;	.line	881; "MC30P8160.c"	T0IF   = 0; 
00000d   3c0f     bclr    0xf, 0           	BCLR	_INTFbits,0
                                           ;	.line	882; "MC30P8160.c"	T0CNT = 217; // T0没有自动重载器，
00000e   0bd9     movai   0xd9             	MOVAI	0xd9
00000f   1581     movra   0x1              	MOVRA	_T0CNT
                                           ;	.line	884; "MC30P8160.c"	T0_5ms_Flag = 1;
000010   3a35     bset    0x35, 0x4        	BSET	_flag1,4
                                           ;	.line	887; "MC30P8160.c"	T0_5ms_Cnt ++;
000011   19c4     incr    0x44             	INCR	_T0_5ms_Cnt
                                           ;;unsigned compare: left < lit(0x2=2), size=1
                                           ;	.line	888; "MC30P8160.c"	if(T0_5ms_Cnt >= 2)
000012   0b02     movai   0x2              	MOVAI	0x02
000013   1244     rsubar  0x44             	RSUBAR	_T0_5ms_Cnt
000014   3003     jbset   0x3, 0           	JBSET	STATUS,0
000015   2818     goto    0x18             	GOTO	_00447_DS_
                                           ;;genSkipc:3291: created from rifx:013C5EFC
                                           ;	.line	890; "MC30P8160.c"	T0_5ms_Cnt = 0;
000016   1dc4     clrr    0x44             	CLRR	_T0_5ms_Cnt
                                           ;	.line	891; "MC30P8160.c"	T0_10ms_Flag = 1;
000017   3ab5     bset    0x35, 0x5        	BSET	_flag1,5
                                           _00447_DS_
                                           ;	.line	896; "MC30P8160.c"	if(T1IF)
000018   3058     jbset   0x58, 0          	JBSET	_TMRCRbits,0
000019   281b     goto    0x1b             	GOTO	_00449_DS_
                                           ;	.line	898; "MC30P8160.c"	T1IF   = 0; 
00001a   3c58     bclr    0x58, 0          	BCLR	_TMRCRbits,0
                                           _00449_DS_
                                           ;	.line	909; "MC30P8160.c"	__endasm;
00001b   1133     swapar  0x33             	SWAPAR	_CSAVE_STATUS
00001c   1583     movra   0x3              	MOVRA	STATUS
00001d   11b2     swapr   0x32             	SWAPR	_CSAVE_ACC
00001e   1132     swapar  0x32             	SWAPAR	_CSAVE_ACC
                                           	
                                           END_OF_INTERRUPT
                                           ;	.line	910; "MC30P8160.c"	}
00001f   000d     retie                    	RETIE	
                                           
                                           ;--------------------------------------------------------
                                           ; code
                                           ;--------------------------------------------------------
                                           code_MC30P8160	code
                                           ;***
                                           ;  pBlock Stats: dbName = M
                                           ;***
                                           ;entry:  _main	;Function start
                                           ; 2 exit points
                                           ;has an exit
                                           ;functions called:
                                           ;   _Clr_Ram
                                           ;   _Init_Sys
                                           ;   _IO_Init
                                           ;   _Delay_us_2
                                           ;   _TOUCH_Init
                                           ;   _T1_PWM_Init
                                           ;   _TK0_Scan
                                           ;   _TK1_Scan
                                           ;   _TK0_value_Read
                                           ;   _TK1_value_Read
                                           ;   _LED_PWM_Control
                                           ;   _Sleep_mode
                                           ;   _Clr_Ram
                                           ;   _Init_Sys
                                           ;   _IO_Init
                                           ;   _Delay_us_2
                                           ;   _TOUCH_Init
                                           ;   _T1_PWM_Init
                                           ;   _TK0_Scan
                                           ;   _TK1_Scan
                                           ;   _TK0_value_Read
                                           ;   _TK1_value_Read
                                           ;   _LED_PWM_Control
                                           ;   _Sleep_mode
                                           ;; Starting pCode block
                                           _main	;Function start
                                           ; 2 exit points
                                           ;	.line	815; "MC30P8160.c"	Clr_Ram();
000020   22bc     call    0x2bc            	CALL	_Clr_Ram
                                           ;	.line	816; "MC30P8160.c"	Init_Sys();
000021   22c6     call    0x2c6            	CALL	_Init_Sys
                                           ;	.line	818; "MC30P8160.c"	IO_Init();
000022   22aa     call    0x2aa            	CALL	_IO_Init
                                           ;	.line	820; "MC30P8160.c"	Delay_us_2(0x5020); // 4M 约100ms
000023   0b20     movai   0x20             	MOVAI	0x20
000024   22d3     call    0x2d3            	CALL	_Delay_us_2
                                           ;	.line	822; "MC30P8160.c"	TOUCH_Init(); // 设置触摸寄存器 
000025   22a3     call    0x2a3            	CALL	_TOUCH_Init
                                           ;	.line	824; "MC30P8160.c"	T1_PWM_Init();
000026   22b5     call    0x2b5            	CALL	_T1_PWM_Init
                                           ;	.line	825; "MC30P8160.c"	SleepCnt = 0xff;
000027   0bff     movai   0xff             	MOVAI	0xff
000028   15be     movra   0x3e             	MOVRA	_SleepCnt
                                           ;	.line	827; "MC30P8160.c"	PWM_Duty_W = 0xff; // 
000029   0bff     movai   0xff             	MOVAI	0xff
00002a   15bf     movra   0x3f             	MOVRA	_PWM_Duty_W
                                           ;	.line	828; "MC30P8160.c"	PWM_Duty_Y = 0xff; // 
00002b   0bff     movai   0xff             	MOVAI	0xff
00002c   15c0     movra   0x40             	MOVRA	_PWM_Duty_Y
                                           ;	.line	830; "MC30P8160.c"	W_AS_Flag = 1;
00002d   3bb5     bset    0x35, 0x7        	BSET	_flag1,7
                                           ;	.line	831; "MC30P8160.c"	Y_AS_Flag = 1;
00002e   3837     bset    0x37, 0          	BSET	_flag3,0
                                           ;	.line	832; "MC30P8160.c"	Pre_T_Key0_Release = 1;
00002f   38b5     bset    0x35, 0x1        	BSET	_flag1,1
                                           ;	.line	833; "MC30P8160.c"	u16_TK0_get_val_Min = 0xFFFF;
000030   0bff     movai   0xff             	MOVAI	0xff
000031   15a8     movra   0x28             	MOVRA	_u16_TK0_get_val_Min
000032   15a9     movra   0x29             	MOVRA	(_u16_TK0_get_val_Min + 1)
                                           ;	.line	834; "MC30P8160.c"	u16_TK1_get_val_Min = 0xFFFF;
000033   0bff     movai   0xff             	MOVAI	0xff
000034   15a6     movra   0x26             	MOVRA	_u16_TK1_get_val_Min
000035   15a7     movra   0x27             	MOVRA	(_u16_TK1_get_val_Min + 1)
                                           _00439_DS_
                                           ;	.line	838; "MC30P8160.c"	if(T0_5ms_Flag)
000036   3235     jbset   0x35, 0x4        	JBSET	_flag1,4
000037   283b     goto    0x3b             	GOTO	_00435_DS_
                                           ;	.line	840; "MC30P8160.c"	T0_5ms_Flag = 0;
000038   3e35     bclr    0x35, 0x4        	BCLR	_flag1,4
                                           ;	.line	842; "MC30P8160.c"	TK0_Scan();    	   	   	   
000039   21be     call    0x1be            	CALL	_TK0_Scan
                                           ;	.line	843; "MC30P8160.c"	TK1_Scan();    	   	   	   	
00003a   2103     call    0x103            	CALL	_TK1_Scan
                                           _00435_DS_
                                           ;	.line	848; "MC30P8160.c"	if(T0_10ms_Flag) 
00003b   32b5     jbset   0x35, 0x5        	JBSET	_flag1,5
00003c   2842     goto    0x42             	GOTO	_00437_DS_
                                           ;	.line	850; "MC30P8160.c"	T0_10ms_Flag = 0;
00003d   3eb5     bclr    0x35, 0x5        	BCLR	_flag1,5
                                           ;	.line	852; "MC30P8160.c"	TK0_value_Read();
00003e   20a1     call    0xa1             	CALL	_TK0_value_Read
                                           ;	.line	853; "MC30P8160.c"	TK1_value_Read();
00003f   20d2     call    0xd2             	CALL	_TK1_value_Read
                                           ;	.line	855; "MC30P8160.c"	LED_PWM_Control();     	   	   	 
000040   205a     call    0x5a             	CALL	_LED_PWM_Control
                                           ;	.line	857; "MC30P8160.c"	Sleep_mode();
000041   2045     call    0x45             	CALL	_Sleep_mode
                                           _00437_DS_
                                           ;	.line	860; "MC30P8160.c"	WDT_Clear();
000042   000e     clrwdt                   	CLRWDT	
000043   2836     goto    0x36             	GOTO	_00439_DS_
                                           ;	.line	863; "MC30P8160.c"	}
000044   000c     return                   	RETURN	
                                           ; exit point of _main
                                           
                                           ;***
                                           ;  pBlock Stats: dbName = C
                                           ;***
                                           ;entry:  _Sleep_mode	;Function start
                                           ; 2 exit points
                                           ;has an exit
                                           ;; Starting pCode block
                                           _Sleep_mode	;Function start
                                           ; 2 exit points
                                           ;	.line	778; "MC30P8160.c"	if(SleepCnt) 
000045   0b00     movai   0                	MOVAI	0x00
000046   173e     orar    0x3e             	ORAR	_SleepCnt
000047   3503     jbclr   0x3, 0x2         	JBCLR	STATUS,2
000048   284a     goto    0x4a             	GOTO	_00423_DS_
                                           ;	.line	780; "MC30P8160.c"	SleepCnt--;
000049   1bbe     decr    0x3e             	DECR	_SleepCnt
                                           _00423_DS_
                                           ;	.line	783; "MC30P8160.c"	if(W_Power_Flag || Y_Power_Flag)
00004a   3436     jbclr   0x36, 0          	JBCLR	_flag2,0
00004b   284e     goto    0x4e             	GOTO	_00424_DS_
00004c   32b6     jbset   0x36, 0x5        	JBSET	_flag2,5
00004d   2850     goto    0x50             	GOTO	_00425_DS_
                                           _00424_DS_
                                           ;	.line	785; "MC30P8160.c"	SleepCnt = 0xFF; // 
00004e   0bff     movai   0xff             	MOVAI	0xff
00004f   15be     movra   0x3e             	MOVRA	_SleepCnt
                                           _00425_DS_
                                           ;	.line	789; "MC30P8160.c"	if(!SleepCnt)
000050   0b00     movai   0                	MOVAI	0x00
000051   173e     orar    0x3e             	ORAR	_SleepCnt
000052   3103     jbset   0x3, 0x2         	JBSET	STATUS,2
000053   2859     goto    0x59             	GOTO	_00429_DS_
                                           ;	.line	792; "MC30P8160.c"	TKEN = 0;       //关闭TK
000054   3feb     bclr    0x6b, 0x7        	BCLR	_TKCR0bits,7
                                           ;	.line	795; "MC30P8160.c"	SLEEP();   //休眠两种编写方式(方式二)
000055   000b     sleep                    	STOP	
                                           ;	.line	799; "MC30P8160.c"	TKEN = 1;  	   //打开TK
000056   3beb     bset    0x6b, 0x7        	BSET	_TKCR0bits,7
                                           ;	.line	802; "MC30P8160.c"	T0_5ms_Flag = 1;
000057   3a35     bset    0x35, 0x4        	BSET	_flag1,4
                                           ;	.line	803; "MC30P8160.c"	T0_10ms_Flag = 1;
000058   3ab5     bset    0x35, 0x5        	BSET	_flag1,5
                                           _00429_DS_
                                           ;	.line	806; "MC30P8160.c"	}
000059   000c     return                   	RETURN	
                                           ; exit point of _Sleep_mode
                                           
                                           ;***
                                           ;  pBlock Stats: dbName = C
                                           ;***
                                           ;entry:  _LED_PWM_Control	;Function start
                                           ; 2 exit points
                                           ;has an exit
                                           ;functions called:
                                           ;   _PWM_W_OFF
                                           ;   _PWM_Y_OFF
                                           ;   _PWM_W_OFF
                                           ;   _PWM_Y_OFF
                                           ;1 compiler assigned register :
                                           ;   r0x1023
                                           ;; Starting pCode block
                                           _LED_PWM_Control	;Function start
                                           ; 2 exit points
                                           ;	.line	708; "MC30P8160.c"	if(PWM_Change_KeyFlg == 1)     	//按键值改变更新状态
00005a   1d97     clrr    0x17             	CLRR	r0x1023
00005b   34b6     jbclr   0x36, 0x1        	JBCLR	_flag2,1
00005c   1997     incr    0x17             	INCR	r0x1023
00005d   1617     movar   0x17             	MOVAR	r0x1023
00005e   0801     xorai   0x1              	XORAI	0x01
00005f   3103     jbset   0x3, 0x2         	JBSET	STATUS,2
000060   2872     goto    0x72             	GOTO	_00392_DS_
                                           ;	.line	710; "MC30P8160.c"	PWM_Change_KeyFlg = 0;
000061   3cb6     bclr    0x36, 0x1        	BCLR	_flag2,1
                                           ;	.line	712; "MC30P8160.c"	if(W_Power_Flag == 0)
000062   3436     jbclr   0x36, 0          	JBCLR	_flag2,0
000063   2866     goto    0x66             	GOTO	_00386_DS_
                                           ;	.line	714; "MC30P8160.c"	PWM_W_OFF();   	   	   	
000064   209d     call    0x9d             	CALL	_PWM_W_OFF
000065   286a     goto    0x6a             	GOTO	_00387_DS_
                                           _00386_DS_
                                           ;	.line	718; "MC30P8160.c"	T1DATD = PWM_Duty_W; //PWM_Duty_W
000066   163f     movar   0x3f             	MOVAR	_PWM_Duty_W
000067   15df     movra   0x5f             	MOVRA	_T1DATD
                                           ;	.line	719; "MC30P8160.c"	PWM1DOE = 1; //打开端口输出脉宽调制波形
000068   3ad0     bset    0x50, 0x5        	BSET	_PWM1CR0bits,5
                                           ;	.line	720; "MC30P8160.c"	PWM1DEN = 1; //打开 PWM1D 功能 	
000069   3a50     bset    0x50, 0x4        	BSET	_PWM1CR0bits,4
                                           _00387_DS_
                                           ;	.line	723; "MC30P8160.c"	if (Y_Power_Flag == 0)
00006a   36b6     jbclr   0x36, 0x5        	JBCLR	_flag2,5
00006b   286e     goto    0x6e             	GOTO	_00389_DS_
                                           ;	.line	725; "MC30P8160.c"	PWM_Y_OFF();
00006c   2099     call    0x99             	CALL	_PWM_Y_OFF
00006d   2872     goto    0x72             	GOTO	_00392_DS_
                                           _00389_DS_
                                           ;	.line	729; "MC30P8160.c"	T1DATC = PWM_Duty_Y;
00006e   1640     movar   0x40             	MOVAR	_PWM_Duty_Y
00006f   15de     movra   0x5e             	MOVRA	_T1DATC
                                           ;	.line	730; "MC30P8160.c"	PWM1COE = 1; //打开端口输出脉宽调制波形
000070   39d0     bset    0x50, 0x3        	BSET	_PWM1CR0bits,3
                                           ;	.line	731; "MC30P8160.c"	PWM1CEN = 1; //打开 PWM1D 功能  
000071   3950     bset    0x50, 0x2        	BSET	_PWM1CR0bits,2
                                           _00392_DS_
                                           ;	.line	736; "MC30P8160.c"	if(TK1_Long_press_Flag) //长按无极调光（255极）
000072   31b5     jbset   0x35, 0x3        	JBSET	_flag1,3
000073   2885     goto    0x85             	GOTO	_00404_DS_
                                           ;	.line	738; "MC30P8160.c"	if(Y_AS_Flag && Y_Power_Flag)      	//逐渐变暗
000074   3037     jbset   0x37, 0          	JBSET	_flag3,0
000075   287e     goto    0x7e             	GOTO	_00400_DS_
000076   32b6     jbset   0x36, 0x5        	JBSET	_flag2,5
000077   287e     goto    0x7e             	GOTO	_00400_DS_
                                           ;;unsigned compare: left < lit(0xFF=255), size=1
                                           ;	.line	740; "MC30P8160.c"	if(PWM_Duty_Y < 255) //最大亮度 100%
000078   0bff     movai   0xff             	MOVAI	0xff
000079   1240     rsubar  0x40             	RSUBAR	_PWM_Duty_Y
00007a   3403     jbclr   0x3, 0           	JBCLR	STATUS,0
00007b   2885     goto    0x85             	GOTO	_00404_DS_
                                           ;;genSkipc:3291: created from rifx:013C5EFC
                                           ;	.line	742; "MC30P8160.c"	PWM_Duty_Y ++;
00007c   19c0     incr    0x40             	INCR	_PWM_Duty_Y
00007d   2885     goto    0x85             	GOTO	_00404_DS_
                                           _00400_DS_
                                           ;	.line	745; "MC30P8160.c"	else if(Y_Power_Flag)  	//逐渐变亮
00007e   32b6     jbset   0x36, 0x5        	JBSET	_flag2,5
00007f   2885     goto    0x85             	GOTO	_00404_DS_
                                           ;;swapping arguments (AOP_TYPEs 1/3)
                                           ;;unsigned compare: left >= lit(0xD=13), size=1
                                           ;	.line	747; "MC30P8160.c"	if(PWM_Duty_Y > 12 ) //最小亮度PWM值：255 * 5%，
000080   0b0d     movai   0xd              	MOVAI	0x0d
000081   1240     rsubar  0x40             	RSUBAR	_PWM_Duty_Y
000082   3003     jbset   0x3, 0           	JBSET	STATUS,0
000083   2885     goto    0x85             	GOTO	_00404_DS_
                                           ;;genSkipc:3291: created from rifx:013C5EFC
                                           ;	.line	749; "MC30P8160.c"	PWM_Duty_Y --; 
000084   1bc0     decr    0x40             	DECR	_PWM_Duty_Y
                                           _00404_DS_
                                           ;	.line	754; "MC30P8160.c"	if (TK0_Long_press_Flag) //长按无极调光（255极）
000085   3335     jbset   0x35, 0x6        	JBSET	_flag1,6
000086   2898     goto    0x98             	GOTO	_00417_DS_
                                           ;	.line	756; "MC30P8160.c"	if (W_AS_Flag && W_Power_Flag)     	//逐渐变暗
000087   33b5     jbset   0x35, 0x7        	JBSET	_flag1,7
000088   2891     goto    0x91             	GOTO	_00412_DS_
000089   3036     jbset   0x36, 0          	JBSET	_flag2,0
00008a   2891     goto    0x91             	GOTO	_00412_DS_
                                           ;;unsigned compare: left < lit(0xFF=255), size=1
                                           ;	.line	758; "MC30P8160.c"	if (PWM_Duty_W < 255) //最大亮度 100%
00008b   0bff     movai   0xff             	MOVAI	0xff
00008c   123f     rsubar  0x3f             	RSUBAR	_PWM_Duty_W
00008d   3403     jbclr   0x3, 0           	JBCLR	STATUS,0
00008e   2898     goto    0x98             	GOTO	_00417_DS_
                                           ;;genSkipc:3291: created from rifx:013C5EFC
                                           ;	.line	760; "MC30P8160.c"	PWM_Duty_W++;
00008f   19bf     incr    0x3f             	INCR	_PWM_Duty_W
000090   2898     goto    0x98             	GOTO	_00417_DS_
                                           _00412_DS_
                                           ;	.line	763; "MC30P8160.c"	else if(W_Power_Flag)  	//逐渐变亮
000091   3036     jbset   0x36, 0          	JBSET	_flag2,0
000092   2898     goto    0x98             	GOTO	_00417_DS_
                                           ;;swapping arguments (AOP_TYPEs 1/3)
                                           ;;unsigned compare: left >= lit(0xD=13), size=1
                                           ;	.line	765; "MC30P8160.c"	if (PWM_Duty_W > 12) //最小亮度PWM值：255 * 8%，
000093   0b0d     movai   0xd              	MOVAI	0x0d
000094   123f     rsubar  0x3f             	RSUBAR	_PWM_Duty_W
000095   3003     jbset   0x3, 0           	JBSET	STATUS,0
000096   2898     goto    0x98             	GOTO	_00417_DS_
                                           ;;genSkipc:3291: created from rifx:013C5EFC
                                           ;	.line	767; "MC30P8160.c"	PWM_Duty_W--;
000097   1bbf     decr    0x3f             	DECR	_PWM_Duty_W
                                           _00417_DS_
                                           ;	.line	771; "MC30P8160.c"	}
000098   000c     return                   	RETURN	
                                           ; exit point of _LED_PWM_Control
                                           
                                           ;***
                                           ;  pBlock Stats: dbName = C
                                           ;***
                                           ;entry:  _PWM_Y_OFF	;Function start
                                           ; 2 exit points
                                           ;has an exit
                                           ;; Starting pCode block
                                           _PWM_Y_OFF	;Function start
                                           ; 2 exit points
                                           ;	.line	700; "MC30P8160.c"	T1DATC = 0;
000099   1dde     clrr    0x5e             	CLRR	_T1DATC
                                           ;	.line	701; "MC30P8160.c"	PWM1COE = 0; //禁止端口输出脉宽调制波形；
00009a   3dd0     bclr    0x50, 0x3        	BCLR	_PWM1CR0bits,3
                                           ;	.line	702; "MC30P8160.c"	PWM1CEN = 0; //关闭 PWM1C 功能；
00009b   3d50     bclr    0x50, 0x2        	BCLR	_PWM1CR0bits,2
                                           ;	.line	703; "MC30P8160.c"	}
00009c   000c     return                   	RETURN	
                                           ; exit point of _PWM_Y_OFF
                                           
                                           ;***
                                           ;  pBlock Stats: dbName = C
                                           ;***
                                           ;entry:  _PWM_W_OFF	;Function start
                                           ; 2 exit points
                                           ;has an exit
                                           ;; Starting pCode block
                                           _PWM_W_OFF	;Function start
                                           ; 2 exit points
                                           ;	.line	693; "MC30P8160.c"	T1DATD = 0;
00009d   1ddf     clrr    0x5f             	CLRR	_T1DATD
                                           ;	.line	694; "MC30P8160.c"	PWM1DOE = 0; //禁止端口输出脉宽调制波形；
00009e   3ed0     bclr    0x50, 0x5        	BCLR	_PWM1CR0bits,5
                                           ;	.line	695; "MC30P8160.c"	PWM1DEN = 0; //关闭 PWM1D 功能；
00009f   3e50     bclr    0x50, 0x4        	BCLR	_PWM1CR0bits,4
                                           ;	.line	696; "MC30P8160.c"	}
0000a0   000c     return                   	RETURN	
                                           ; exit point of _PWM_W_OFF
                                           
                                           ;***
                                           ;  pBlock Stats: dbName = C
                                           ;***
                                           ;entry:  _TK0_value_Read	;Function start
                                           ; 2 exit points
                                           ;has an exit
                                           ;2 compiler assigned registers:
                                           ;   r0x1023
                                           ;   r0x1024
                                           ;; Starting pCode block
                                           _TK0_value_Read	;Function start
                                           ; 2 exit points
                                           ;	.line	647; "MC30P8160.c"	if(T_Key0_Signal && TK0_Key_Release_Flag == 0) //有按键按下
0000a1   3035     jbset   0x35, 0          	JBSET	_flag1,0
0000a2   28be     goto    0xbe             	GOTO	_00369_DS_
0000a3   3536     jbclr   0x36, 0x2        	JBCLR	_flag2,2
0000a4   28be     goto    0xbe             	GOTO	_00369_DS_
                                           ;	.line	649; "MC30P8160.c"	TK0_Key_Cnt++;
0000a5   19c3     incr    0x43             	INCR	_TK0_Key_Cnt
                                           ;	.line	651; "MC30P8160.c"	PWM_Change_KeyFlg = 1;
0000a6   38b6     bset    0x36, 0x1        	BSET	_flag2,1
                                           ;	.line	653; "MC30P8160.c"	if (TK0_Key_Cnt == 60) //600ms
0000a7   1643     movar   0x43             	MOVAR	_TK0_Key_Cnt
0000a8   083c     xorai   0x3c             	XORAI	0x3c
0000a9   3103     jbset   0x3, 0x2         	JBSET	STATUS,2
0000aa   28d1     goto    0xd1             	GOTO	_00372_DS_
                                           ;	.line	655; "MC30P8160.c"	TK1_Key_Release_Flag = 1;
0000ab   3bb6     bset    0x36, 0x7        	BSET	_flag2,7
                                           ;	.line	658; "MC30P8160.c"	if (TK0_Long_press_Flag == 0)
0000ac   3735     jbclr   0x35, 0x6        	JBCLR	_flag1,6
0000ad   28d1     goto    0xd1             	GOTO	_00372_DS_
                                           ;	.line	660; "MC30P8160.c"	TK0_Long_press_Flag = 1;  	//长按标志位置1
0000ae   3b35     bset    0x35, 0x6        	BSET	_flag1,6
                                           ;	.line	662; "MC30P8160.c"	PWM_Change_KeyFlg = 1;
0000af   38b6     bset    0x36, 0x1        	BSET	_flag2,1
                                           ;	.line	664; "MC30P8160.c"	W_AS_Flag = !W_AS_Flag;   	//调亮调暗标志位状态变换
0000b0   1d97     clrr    0x17             	CLRR	r0x1023
0000b1   37b5     jbclr   0x35, 0x7        	JBCLR	_flag1,7
0000b2   1997     incr    0x17             	INCR	r0x1023
0000b3   1617     movar   0x17             	MOVAR	r0x1023
0000b4   0b00     movai   0                	MOVAI	0x00
0000b5   3503     jbclr   0x3, 0x2         	JBCLR	STATUS,2
0000b6   0b01     movai   0x1              	MOVAI	0x01
0000b7   1597     movra   0x17             	MOVRA	r0x1023
                                           ;;1	MOVRA	r0x1024
                                           ;;102	MOVAR	r0x1024
0000b8   1317     rrar    0x17             	RRAR	r0x1023
0000b9   3003     jbset   0x3, 0           	JBSET	STATUS,0
0000ba   3fb5     bclr    0x35, 0x7        	BCLR	_flag1,7
0000bb   3403     jbclr   0x3, 0           	JBCLR	STATUS,0
0000bc   3bb5     bset    0x35, 0x7        	BSET	_flag1,7
0000bd   28d1     goto    0xd1             	GOTO	_00372_DS_
                                           _00369_DS_
                                           ;	.line	668; "MC30P8160.c"	else if(T_Key0_Signal == 0)
0000be   3435     jbclr   0x35, 0          	JBCLR	_flag1,0
0000bf   28d1     goto    0xd1             	GOTO	_00372_DS_
                                           ;	.line	670; "MC30P8160.c"	TK0_Long_press_Flag = 0;
0000c0   3f35     bclr    0x35, 0x6        	BCLR	_flag1,6
                                           ;;swapping arguments (AOP_TYPEs 1/3)
                                           ;;unsigned compare: left >= lit(0x2=2), size=1
                                           ;	.line	672; "MC30P8160.c"	if (TK0_Key_Cnt > 1 && TK0_Key_Cnt < 60)
0000c1   0b02     movai   0x2              	MOVAI	0x02
0000c2   1243     rsubar  0x43             	RSUBAR	_TK0_Key_Cnt
0000c3   3003     jbset   0x3, 0           	JBSET	STATUS,0
0000c4   28cf     goto    0xcf             	GOTO	_00364_DS_
                                           ;;genSkipc:3291: created from rifx:013C5EFC
                                           ;;unsigned compare: left < lit(0x3C=60), size=1
0000c5   0b3c     movai   0x3c             	MOVAI	0x3c
0000c6   1243     rsubar  0x43             	RSUBAR	_TK0_Key_Cnt
0000c7   3403     jbclr   0x3, 0           	JBCLR	STATUS,0
0000c8   28cf     goto    0xcf             	GOTO	_00364_DS_
                                           ;;genSkipc:3291: created from rifx:013C5EFC
                                           ;	.line	674; "MC30P8160.c"	PWM_Change_KeyFlg = 1;
0000c9   38b6     bset    0x36, 0x1        	BSET	_flag2,1
                                           ;	.line	676; "MC30P8160.c"	if (W_Power_Flag)
0000ca   3036     jbset   0x36, 0          	JBSET	_flag2,0
0000cb   28ce     goto    0xce             	GOTO	_00361_DS_
                                           ;	.line	678; "MC30P8160.c"	W_Power_Flag = 0;
0000cc   3c36     bclr    0x36, 0          	BCLR	_flag2,0
0000cd   28cf     goto    0xcf             	GOTO	_00364_DS_
                                           _00361_DS_
                                           ;	.line	682; "MC30P8160.c"	W_Power_Flag = 1;
0000ce   3836     bset    0x36, 0          	BSET	_flag2,0
                                           _00364_DS_
                                           ;	.line	686; "MC30P8160.c"	TK0_Key_Release_Flag = 0;
0000cf   3d36     bclr    0x36, 0x2        	BCLR	_flag2,2
                                           ;	.line	687; "MC30P8160.c"	TK0_Key_Cnt = 0;
0000d0   1dc3     clrr    0x43             	CLRR	_TK0_Key_Cnt
                                           _00372_DS_
                                           ;	.line	689; "MC30P8160.c"	}
0000d1   000c     return                   	RETURN	
                                           ; exit point of _TK0_value_Read
                                           
                                           ;***
                                           ;  pBlock Stats: dbName = C
                                           ;***
                                           ;entry:  _TK1_value_Read	;Function start
                                           ; 2 exit points
                                           ;has an exit
                                           ;2 compiler assigned registers:
                                           ;   r0x1023
                                           ;   r0x1024
                                           ;; Starting pCode block
                                           _TK1_value_Read	;Function start
                                           ; 2 exit points
                                           ;	.line	600; "MC30P8160.c"	if(T_Key1_Signal && TK1_Key_Release_Flag == 0) //有按键按下
0000d2   31b6     jbset   0x36, 0x3        	JBSET	_flag2,3
0000d3   28ef     goto    0xef             	GOTO	_00348_DS_
0000d4   37b6     jbclr   0x36, 0x7        	JBCLR	_flag2,7
0000d5   28ef     goto    0xef             	GOTO	_00348_DS_
                                           ;	.line	602; "MC30P8160.c"	TK1_Key_Cnt ++;
0000d6   19c2     incr    0x42             	INCR	_TK1_Key_Cnt
                                           ;	.line	604; "MC30P8160.c"	PWM_Change_KeyFlg = 1;
0000d7   38b6     bset    0x36, 0x1        	BSET	_flag2,1
                                           ;	.line	606; "MC30P8160.c"	if(TK1_Key_Cnt == 60) //600ms
0000d8   1642     movar   0x42             	MOVAR	_TK1_Key_Cnt
0000d9   083c     xorai   0x3c             	XORAI	0x3c
0000da   3103     jbset   0x3, 0x2         	JBSET	STATUS,2
0000db   2902     goto    0x102            	GOTO	_00351_DS_
                                           ;	.line	608; "MC30P8160.c"	TK0_Key_Release_Flag = 1;
0000dc   3936     bset    0x36, 0x2        	BSET	_flag2,2
                                           ;	.line	611; "MC30P8160.c"	if(TK1_Long_press_Flag == 0)
0000dd   35b5     jbclr   0x35, 0x3        	JBCLR	_flag1,3
0000de   2902     goto    0x102            	GOTO	_00351_DS_
                                           ;	.line	613; "MC30P8160.c"	TK1_Long_press_Flag = 1;   	//长按标志位置1
0000df   39b5     bset    0x35, 0x3        	BSET	_flag1,3
                                           ;	.line	615; "MC30P8160.c"	PWM_Change_KeyFlg = 1;
0000e0   38b6     bset    0x36, 0x1        	BSET	_flag2,1
                                           ;	.line	617; "MC30P8160.c"	Y_AS_Flag = !Y_AS_Flag;    	//调亮调暗标志位状态变换
0000e1   1d97     clrr    0x17             	CLRR	r0x1023
0000e2   3437     jbclr   0x37, 0          	JBCLR	_flag3,0
0000e3   1997     incr    0x17             	INCR	r0x1023
0000e4   1617     movar   0x17             	MOVAR	r0x1023
0000e5   0b00     movai   0                	MOVAI	0x00
0000e6   3503     jbclr   0x3, 0x2         	JBCLR	STATUS,2
0000e7   0b01     movai   0x1              	MOVAI	0x01
0000e8   1597     movra   0x17             	MOVRA	r0x1023
                                           ;;1	MOVRA	r0x1024
                                           ;;101	MOVAR	r0x1024
0000e9   1317     rrar    0x17             	RRAR	r0x1023
0000ea   3003     jbset   0x3, 0           	JBSET	STATUS,0
0000eb   3c37     bclr    0x37, 0          	BCLR	_flag3,0
0000ec   3403     jbclr   0x3, 0           	JBCLR	STATUS,0
0000ed   3837     bset    0x37, 0          	BSET	_flag3,0
0000ee   2902     goto    0x102            	GOTO	_00351_DS_
                                           _00348_DS_
                                           ;	.line	622; "MC30P8160.c"	else if(T_Key1_Signal == 0)
0000ef   35b6     jbclr   0x36, 0x3        	JBCLR	_flag2,3
0000f0   2902     goto    0x102            	GOTO	_00351_DS_
                                           ;	.line	624; "MC30P8160.c"	TK1_Long_press_Flag = 0;   	//长按标志位清0
0000f1   3db5     bclr    0x35, 0x3        	BCLR	_flag1,3
                                           ;;swapping arguments (AOP_TYPEs 1/3)
                                           ;;unsigned compare: left >= lit(0x2=2), size=1
                                           ;	.line	626; "MC30P8160.c"	if(TK1_Key_Cnt > 1 && TK1_Key_Cnt < 60)
0000f2   0b02     movai   0x2              	MOVAI	0x02
0000f3   1242     rsubar  0x42             	RSUBAR	_TK1_Key_Cnt
0000f4   3003     jbset   0x3, 0           	JBSET	STATUS,0
0000f5   2900     goto    0x100            	GOTO	_00343_DS_
                                           ;;genSkipc:3291: created from rifx:013C5EFC
                                           ;;unsigned compare: left < lit(0x3C=60), size=1
0000f6   0b3c     movai   0x3c             	MOVAI	0x3c
0000f7   1242     rsubar  0x42             	RSUBAR	_TK1_Key_Cnt
0000f8   3403     jbclr   0x3, 0           	JBCLR	STATUS,0
0000f9   2900     goto    0x100            	GOTO	_00343_DS_
                                           ;;genSkipc:3291: created from rifx:013C5EFC
                                           ;	.line	628; "MC30P8160.c"	PWM_Change_KeyFlg = 1;
0000fa   38b6     bset    0x36, 0x1        	BSET	_flag2,1
                                           ;	.line	630; "MC30P8160.c"	if (Y_Power_Flag)
0000fb   32b6     jbset   0x36, 0x5        	JBSET	_flag2,5
0000fc   28ff     goto    0xff             	GOTO	_00340_DS_
                                           ;	.line	632; "MC30P8160.c"	Y_Power_Flag = 0;
0000fd   3eb6     bclr    0x36, 0x5        	BCLR	_flag2,5
0000fe   2900     goto    0x100            	GOTO	_00343_DS_
                                           _00340_DS_
                                           ;	.line	636; "MC30P8160.c"	Y_Power_Flag = 1;
0000ff   3ab6     bset    0x36, 0x5        	BSET	_flag2,5
                                           _00343_DS_
                                           ;	.line	639; "MC30P8160.c"	TK1_Key_Release_Flag = 0;
000100   3fb6     bclr    0x36, 0x7        	BCLR	_flag2,7
                                           ;	.line	640; "MC30P8160.c"	TK1_Key_Cnt = 0;
000101   1dc2     clrr    0x42             	CLRR	_TK1_Key_Cnt
                                           _00351_DS_
                                           ;	.line	642; "MC30P8160.c"	}
000102   000c     return                   	RETURN	
                                           ; exit point of _TK1_value_Read
                                           
                                           ;***
                                           ;  pBlock Stats: dbName = C
                                           ;***
                                           ;entry:  _TK1_Scan	;Function start
                                           ; 2 exit points
                                           ;has an exit
                                           ;functions called:
                                           ;   _TK_Init
                                           ;   _Get_TK_Value
                                           ;   _TK1_Release_
                                           ;   _TK_Init
                                           ;   _Get_TK_Value
                                           ;   _TK1_Release_
                                           ;2 compiler assigned registers:
                                           ;   r0x1027
                                           ;   r0x1028
                                           ;; Starting pCode block
                                           _TK1_Scan	;Function start
                                           ; 2 exit points
                                           ;	.line	488; "MC30P8160.c"	DDR1 |= 0x02;     // 1： 端口作为输入口          0： 端口作为输出口
000103   38d6     bset    0x56, 0x1        	BSET	_DDR1,1
                                           ;	.line	489; "MC30P8160.c"	P1ADCR |= 0x02;   // 0 使能端口的数字 I/O 功能； 1 关闭端口的数字 I/O 功能；
000104   38e7     bset    0x67, 0x1        	BSET	_P1ADCR,1
                                           ;	.line	491; "MC30P8160.c"	TKCR1 = 0x01; // 写0000_0000 bit0-1: 01 TK1 选择相应按键输入通道
000105   0b01     movai   0x1              	MOVAI	0x01
000106   15ec     movra   0x6c             	MOVRA	_TKCR1
                                           ;	.line	492; "MC30P8160.c"	TK_Init();
000107   2290     call    0x290            	CALL	_TK_Init
                                           ;	.line	494; "MC30P8160.c"	Get_TK_Value();
000108   2278     call    0x278            	CALL	_Get_TK_Value
                                           ;	.line	497; "MC30P8160.c"	DDR1 &= 0xFD;     // 1： 端口作为输入口         0： 端口作为输出口
000109   3cd6     bclr    0x56, 0x1        	BCLR	_DDR1,1
                                           ;	.line	498; "MC30P8160.c"	P1ADCR &= 0xFD;   // 1 关闭端口的数字 I/O 功能； 0 使能端口的数字 I/O 功能； 
00010a   3ce7     bclr    0x67, 0x1        	BCLR	_P1ADCR,1
                                           ;	.line	499; "MC30P8160.c"	P10D = 0;
00010b   3c06     bclr    0x6, 0           	BCLR	_P1bits,0
                                           ;	.line	513; "MC30P8160.c"	if(Pre_T_Key1_Release) 
00010c   3236     jbset   0x36, 0x4        	JBSET	_flag2,4
00010d   2977     goto    0x177            	GOTO	_00271_DS_
                                           ;	.line	515; "MC30P8160.c"	u16_temp_val = u16_get_val + Const_SEN_T_Key1;
00010e   0b2d     movai   0x2d             	MOVAI	0x2d
00010f   1f1c     addar   0x1c             	ADDAR	_u16_get_val
000110   15a0     movra   0x20             	MOVRA	_u16_temp_val
000111   1da1     clrr    0x21             	CLRR	(_u16_temp_val + 1)
000112   14a1     rlr     0x21             	RLR	(_u16_temp_val + 1)
000113   161d     movar   0x1d             	MOVAR	(_u16_get_val + 1)
000114   1fa1     addra   0x21             	ADDRA	(_u16_temp_val + 1)
                                           ;	.line	517; "MC30P8160.c"	if(u16_temp_val < u16_TK1_environment_val) 	 //按下
000115   162f     movar   0x2f             	MOVAR	(_u16_TK1_environment_val + 1)
000116   1221     rsubar  0x21             	RSUBAR	(_u16_temp_val + 1)
000117   3103     jbset   0x3, 0x2         	JBSET	STATUS,2
000118   291b     goto    0x11b            	GOTO	_00323_DS_
000119   162e     movar   0x2e             	MOVAR	_u16_TK1_environment_val
00011a   1220     rsubar  0x20             	RSUBAR	_u16_temp_val
                                           _00323_DS_
00011b   3403     jbclr   0x3, 0           	JBCLR	STATUS,0
00011c   2930     goto    0x130            	GOTO	_00260_DS_
                                           ;;genSkipc:3291: created from rifx:013C5EFC
                                           ;	.line	519; "MC30P8160.c"	SleepCnt = 0xFF;
00011d   0bff     movai   0xff             	MOVAI	0xff
00011e   15be     movra   0x3e             	MOVRA	_SleepCnt
                                           ;	.line	520; "MC30P8160.c"	FilterCnt_TK1 ++;
00011f   19bd     incr    0x3d             	INCR	_FilterCnt_TK1
                                           ;;swapping arguments (AOP_TYPEs 1/3)
                                           ;;unsigned compare: left >= lit(0xC=12), size=1
                                           ;	.line	521; "MC30P8160.c"	if(FilterCnt_TK1 > FilterCnt_Value)
000120   0b0c     movai   0xc              	MOVAI	0x0c
000121   123d     rsubar  0x3d             	RSUBAR	_FilterCnt_TK1
000122   3003     jbset   0x3, 0           	JBSET	STATUS,0
000123   29ae     goto    0x1ae            	GOTO	_00273_DS_
                                           ;;genSkipc:3291: created from rifx:013C5EFC
                                           ;	.line	523; "MC30P8160.c"	T_Key1_Signal = 1;
000124   39b6     bset    0x36, 0x3        	BSET	_flag2,3
                                           ;	.line	524; "MC30P8160.c"	Pre_T_Key1_Release = 0;
000125   3e36     bclr    0x36, 0x4        	BCLR	_flag2,4
                                           ;	.line	525; "MC30P8160.c"	u16_release_val_TK1 = u16_TK1_environment_val - Const_SEN_T_Key1; //
000126   0bd3     movai   0xd3             	MOVAI	0xd3
000127   1f2e     addar   0x2e             	ADDAR	_u16_TK1_environment_val
000128   15a4     movra   0x24             	MOVRA	_u16_release_val_TK1
000129   0bff     movai   0xff             	MOVAI	0xff
00012a   15a5     movra   0x25             	MOVRA	(_u16_release_val_TK1 + 1)
00012b   162f     movar   0x2f             	MOVAR	(_u16_TK1_environment_val + 1)
00012c   3403     jbclr   0x3, 0           	JBCLR	STATUS,0
00012d   182f     jzar    0x2f             	JZAR	(_u16_TK1_environment_val + 1)
00012e   1fa5     addra   0x25             	ADDRA	(_u16_release_val_TK1 + 1)
00012f   29ae     goto    0x1ae            	GOTO	_00273_DS_
                                           _00260_DS_
                                           ;	.line	530; "MC30P8160.c"	FilterCnt_TK1 = 0;
000130   1dbd     clrr    0x3d             	CLRR	_FilterCnt_TK1
                                           ;	.line	532; "MC30P8160.c"	if(SleepCnt)
000131   0b00     movai   0                	MOVAI	0x00
000132   173e     orar    0x3e             	ORAR	_SleepCnt
000133   3503     jbclr   0x3, 0x2         	JBCLR	STATUS,2
000134   295c     goto    0x15c            	GOTO	_00253_DS_
                                           ;	.line	534; "MC30P8160.c"	TK1_Filter_Cnt_T ++;
000135   19bb     incr    0x3b             	INCR	_TK1_Filter_Cnt_T
                                           ;;unsigned compare: left < lit(0x4=4), size=1
                                           ;	.line	536; "MC30P8160.c"	if(TK1_Filter_Cnt_T >= 4)
000136   0b04     movai   0x4              	MOVAI	0x04
000137   123b     rsubar  0x3b             	RSUBAR	_TK1_Filter_Cnt_T
000138   3003     jbset   0x3, 0           	JBSET	STATUS,0
000139   2942     goto    0x142            	GOTO	_00247_DS_
                                           ;;genSkipc:3291: created from rifx:013C5EFC
                                           ;	.line	538; "MC30P8160.c"	TK1_Filter_Cnt_T = 0;
00013a   1dbb     clrr    0x3b             	CLRR	_TK1_Filter_Cnt_T
                                           ;	.line	539; "MC30P8160.c"	u16_TK1_environment_val_Sum += u16_get_val;
00013b   161c     movar   0x1c             	MOVAR	_u16_get_val
00013c   1fb0     addra   0x30             	ADDRA	_u16_TK1_environment_val_Sum
00013d   161d     movar   0x1d             	MOVAR	(_u16_get_val + 1)
00013e   3403     jbclr   0x3, 0           	JBCLR	STATUS,0
00013f   181d     jzar    0x1d             	JZAR	(_u16_get_val + 1)
000140   1fb1     addra   0x31             	ADDRA	(_u16_TK1_environment_val_Sum + 1)
                                           ;	.line	540; "MC30P8160.c"	TK1_Filter_Cnt++;
000141   19ba     incr    0x3a             	INCR	_TK1_Filter_Cnt
                                           ;;swapping arguments (AOP_TYPEs 1/3)
                                           ;;unsigned compare: left >= lit(0x8=8), size=1
                                           _00247_DS_
                                           ;	.line	543; "MC30P8160.c"	if(TK1_Filter_Cnt > 7)
000142   0b08     movai   0x8              	MOVAI	0x08
000143   123a     rsubar  0x3a             	RSUBAR	_TK1_Filter_Cnt
000144   3003     jbset   0x3, 0           	JBSET	STATUS,0
000145   2963     goto    0x163            	GOTO	_00254_DS_
                                           ;;genSkipc:3291: created from rifx:013C5EFC
                                           ;	.line	545; "MC30P8160.c"	TK1_Filter_Cnt = 0;
000146   1dba     clrr    0x3a             	CLRR	_TK1_Filter_Cnt
                                           ;;shiftRight_Left2ResultLit:5339: shCount=1, size=2, sign=0, same=0, offr=0
                                           ;	.line	546; "MC30P8160.c"	u16_TK1_environment_val = u16_TK1_environment_val_Sum >> 3;
000147   3c03     bclr    0x3, 0           	BCLR	STATUS,0
000148   1331     rrar    0x31             	RRAR	(_u16_TK1_environment_val_Sum + 1)
000149   15af     movra   0x2f             	MOVRA	(_u16_TK1_environment_val + 1)
00014a   1330     rrar    0x30             	RRAR	_u16_TK1_environment_val_Sum
00014b   15ae     movra   0x2e             	MOVRA	_u16_TK1_environment_val
                                           ;;shiftRight_Left2ResultLit:5339: shCount=1, size=2, sign=0, same=1, offr=0
00014c   3c03     bclr    0x3, 0           	BCLR	STATUS,0
00014d   13af     rrr     0x2f             	RRR	(_u16_TK1_environment_val + 1)
00014e   13ae     rrr     0x2e             	RRR	_u16_TK1_environment_val
                                           ;;shiftRight_Left2ResultLit:5339: shCount=1, size=2, sign=0, same=1, offr=0
00014f   3c03     bclr    0x3, 0           	BCLR	STATUS,0
000150   13af     rrr     0x2f             	RRR	(_u16_TK1_environment_val + 1)
000151   13ae     rrr     0x2e             	RRR	_u16_TK1_environment_val
                                           ;	.line	547; "MC30P8160.c"	u16_TK1_environment_val_Sum = 0;
000152   1db0     clrr    0x30             	CLRR	_u16_TK1_environment_val_Sum
000153   1db1     clrr    0x31             	CLRR	(_u16_TK1_environment_val_Sum + 1)
                                           ;	.line	549; "MC30P8160.c"	if(TK1_Release_Flag)
000154   3336     jbset   0x36, 0x6        	JBSET	_flag2,6
000155   2963     goto    0x163            	GOTO	_00254_DS_
                                           ;	.line	551; "MC30P8160.c"	TK1_Release_Flag = 0;
000156   3f36     bclr    0x36, 0x6        	BCLR	_flag2,6
                                           ;	.line	552; "MC30P8160.c"	u16_TK1_environment_val = u16_get_val;
000157   161c     movar   0x1c             	MOVAR	_u16_get_val
000158   15ae     movra   0x2e             	MOVRA	_u16_TK1_environment_val
000159   161d     movar   0x1d             	MOVAR	(_u16_get_val + 1)
00015a   15af     movra   0x2f             	MOVRA	(_u16_TK1_environment_val + 1)
00015b   2963     goto    0x163            	GOTO	_00254_DS_
                                           _00253_DS_
                                           ;	.line	558; "MC30P8160.c"	u16_TK1_environment_val = u16_get_val;
00015c   161c     movar   0x1c             	MOVAR	_u16_get_val
00015d   15ae     movra   0x2e             	MOVRA	_u16_TK1_environment_val
00015e   161d     movar   0x1d             	MOVAR	(_u16_get_val + 1)
00015f   15af     movra   0x2f             	MOVRA	(_u16_TK1_environment_val + 1)
                                           ;	.line	559; "MC30P8160.c"	u16_TK1_environment_val_Sum = 0;
000160   1db0     clrr    0x30             	CLRR	_u16_TK1_environment_val_Sum
000161   1db1     clrr    0x31             	CLRR	(_u16_TK1_environment_val_Sum + 1)
                                           ;	.line	560; "MC30P8160.c"	TK1_Filter_Cnt = 0;
000162   1dba     clrr    0x3a             	CLRR	_TK1_Filter_Cnt
                                           _00254_DS_
                                           ;	.line	563; "MC30P8160.c"	if(TK1_Release_Flag == 1)
000163   1d9a     clrr    0x1a             	CLRR	r0x1027
000164   3736     jbclr   0x36, 0x6        	JBCLR	_flag2,6
000165   199a     incr    0x1a             	INCR	r0x1027
000166   161a     movar   0x1a             	MOVAR	r0x1027
000167   0801     xorai   0x1              	XORAI	0x01
000168   3103     jbset   0x3, 0x2         	JBSET	STATUS,2
000169   29ae     goto    0x1ae            	GOTO	_00273_DS_
                                           ;	.line	565; "MC30P8160.c"	if(u16_get_val > u16_TK1_environment_val)
00016a   161d     movar   0x1d             	MOVAR	(_u16_get_val + 1)
00016b   122f     rsubar  0x2f             	RSUBAR	(_u16_TK1_environment_val + 1)
00016c   3103     jbset   0x3, 0x2         	JBSET	STATUS,2
00016d   2970     goto    0x170            	GOTO	_00327_DS_
00016e   161c     movar   0x1c             	MOVAR	_u16_get_val
00016f   122e     rsubar  0x2e             	RSUBAR	_u16_TK1_environment_val
                                           _00327_DS_
000170   3403     jbclr   0x3, 0           	JBCLR	STATUS,0
000171   29ae     goto    0x1ae            	GOTO	_00273_DS_
                                           ;;genSkipc:3291: created from rifx:013C5EFC
                                           ;	.line	567; "MC30P8160.c"	u16_TK1_environment_val = u16_get_val;
000172   161c     movar   0x1c             	MOVAR	_u16_get_val
000173   15ae     movra   0x2e             	MOVRA	_u16_TK1_environment_val
000174   161d     movar   0x1d             	MOVAR	(_u16_get_val + 1)
000175   15af     movra   0x2f             	MOVRA	(_u16_TK1_environment_val + 1)
000176   29ae     goto    0x1ae            	GOTO	_00273_DS_
                                           _00271_DS_
                                           ;	.line	574; "MC30P8160.c"	if(u16_get_val < u16_TK1_get_val_Min)
000177   1627     movar   0x27             	MOVAR	(_u16_TK1_get_val_Min + 1)
000178   121d     rsubar  0x1d             	RSUBAR	(_u16_get_val + 1)
000179   3103     jbset   0x3, 0x2         	JBSET	STATUS,2
00017a   297d     goto    0x17d            	GOTO	_00328_DS_
00017b   1626     movar   0x26             	MOVAR	_u16_TK1_get_val_Min
00017c   121c     rsubar  0x1c             	RSUBAR	_u16_get_val
                                           _00328_DS_
00017d   3403     jbclr   0x3, 0           	JBCLR	STATUS,0
00017e   2983     goto    0x183            	GOTO	_00263_DS_
                                           ;;genSkipc:3291: created from rifx:013C5EFC
                                           ;	.line	576; "MC30P8160.c"	u16_TK1_get_val_Min = u16_get_val;
00017f   161c     movar   0x1c             	MOVAR	_u16_get_val
000180   15a6     movra   0x26             	MOVRA	_u16_TK1_get_val_Min
000181   161d     movar   0x1d             	MOVAR	(_u16_get_val + 1)
000182   15a7     movra   0x27             	MOVRA	(_u16_TK1_get_val_Min + 1)
                                           _00263_DS_
                                           ;	.line	579; "MC30P8160.c"	u16_temp_val = u16_release_val_TK1 + Const_SEN_T_Key1 + u16_TK1_get_val_Min;
000183   0b2d     movai   0x2d             	MOVAI	0x2d
000184   1f24     addar   0x24             	ADDAR	_u16_release_val_TK1
000185   159a     movra   0x1a             	MOVRA	r0x1027
000186   1d9b     clrr    0x1b             	CLRR	r0x1028
000187   149b     rlr     0x1b             	RLR	r0x1028
000188   1625     movar   0x25             	MOVAR	(_u16_release_val_TK1 + 1)
000189   1f9b     addra   0x1b             	ADDRA	r0x1028
00018a   1626     movar   0x26             	MOVAR	_u16_TK1_get_val_Min
00018b   1f1a     addar   0x1a             	ADDAR	r0x1027
00018c   15a0     movra   0x20             	MOVRA	_u16_temp_val
00018d   161b     movar   0x1b             	MOVAR	r0x1028
00018e   15a1     movra   0x21             	MOVRA	(_u16_temp_val + 1)
00018f   1627     movar   0x27             	MOVAR	(_u16_TK1_get_val_Min + 1)
000190   3403     jbclr   0x3, 0           	JBCLR	STATUS,0
000191   1827     jzar    0x27             	JZAR	(_u16_TK1_get_val_Min + 1)
000192   1fa1     addra   0x21             	ADDRA	(_u16_temp_val + 1)
                                           ;;shiftRight_Left2ResultLit:5339: shCount=1, size=2, sign=0, same=1, offr=0
                                           ;	.line	580; "MC30P8160.c"	u16_temp_val = u16_temp_val >> 1;
000193   3c03     bclr    0x3, 0           	BCLR	STATUS,0
000194   13a1     rrr     0x21             	RRR	(_u16_temp_val + 1)
000195   13a0     rrr     0x20             	RRR	_u16_temp_val
                                           ;	.line	582; "MC30P8160.c"	if(u16_get_val > u16_release_val_TK1 || u16_get_val > u16_temp_val)	//松开
000196   161d     movar   0x1d             	MOVAR	(_u16_get_val + 1)
000197   1225     rsubar  0x25             	RSUBAR	(_u16_release_val_TK1 + 1)
000198   3103     jbset   0x3, 0x2         	JBSET	STATUS,2
000199   299c     goto    0x19c            	GOTO	_00329_DS_
00019a   161c     movar   0x1c             	MOVAR	_u16_get_val
00019b   1224     rsubar  0x24             	RSUBAR	_u16_release_val_TK1
                                           _00329_DS_
00019c   3003     jbset   0x3, 0           	JBSET	STATUS,0
00019d   29a6     goto    0x1a6            	GOTO	_00266_DS_
                                           ;;genSkipc:3291: created from rifx:013C5EFC
00019e   161d     movar   0x1d             	MOVAR	(_u16_get_val + 1)
00019f   1221     rsubar  0x21             	RSUBAR	(_u16_temp_val + 1)
0001a0   3103     jbset   0x3, 0x2         	JBSET	STATUS,2
0001a1   29a4     goto    0x1a4            	GOTO	_00330_DS_
0001a2   161c     movar   0x1c             	MOVAR	_u16_get_val
0001a3   1220     rsubar  0x20             	RSUBAR	_u16_temp_val
                                           _00330_DS_
0001a4   3403     jbclr   0x3, 0           	JBCLR	STATUS,0
0001a5   29ad     goto    0x1ad            	GOTO	_00267_DS_
                                           ;;genSkipc:3291: created from rifx:013C5EFC
                                           _00266_DS_
                                           ;	.line	584; "MC30P8160.c"	FilterCnt_TK1 ++;
0001a6   19bd     incr    0x3d             	INCR	_FilterCnt_TK1
                                           ;;unsigned compare: left < lit(0x4=4), size=1
                                           ;	.line	585; "MC30P8160.c"	if(FilterCnt_TK1 >= 4) //触摸松开滤波 20ms
0001a7   0b04     movai   0x4              	MOVAI	0x04
0001a8   123d     rsubar  0x3d             	RSUBAR	_FilterCnt_TK1
0001a9   3003     jbset   0x3, 0           	JBSET	STATUS,0
0001aa   29ae     goto    0x1ae            	GOTO	_00273_DS_
                                           ;;genSkipc:3291: created from rifx:013C5EFC
                                           ;	.line	587; "MC30P8160.c"	TK1_Release_();    	   	   	   	
0001ab   21af     call    0x1af            	CALL	_TK1_Release_
0001ac   29ae     goto    0x1ae            	GOTO	_00273_DS_
                                           _00267_DS_
                                           ;	.line	592; "MC30P8160.c"	FilterCnt_TK1 = 0;
0001ad   1dbd     clrr    0x3d             	CLRR	_FilterCnt_TK1
                                           _00273_DS_
                                           ;	.line	595; "MC30P8160.c"	}
0001ae   000c     return                   	RETURN	
                                           ; exit point of _TK1_Scan
                                           
                                           ;***
                                           ;  pBlock Stats: dbName = C
                                           ;***
                                           ;entry:  _TK1_Release_	;Function start
                                           ; 2 exit points
                                           ;has an exit
                                           ;; Starting pCode block
                                           _TK1_Release_	;Function start
                                           ; 2 exit points
                                           ;	.line	471; "MC30P8160.c"	FilterCnt_TK1 = 0;
0001af   1dbd     clrr    0x3d             	CLRR	_FilterCnt_TK1
                                           ;	.line	473; "MC30P8160.c"	T_Key1_Signal = 0;
0001b0   3db6     bclr    0x36, 0x3        	BCLR	_flag2,3
                                           ;	.line	475; "MC30P8160.c"	Pre_T_Key1_Release = 1;	   	   	   	   	
0001b1   3a36     bset    0x36, 0x4        	BSET	_flag2,4
                                           ;	.line	476; "MC30P8160.c"	u16_TK1_environment_val = u16_get_val;
0001b2   161c     movar   0x1c             	MOVAR	_u16_get_val
0001b3   15ae     movra   0x2e             	MOVRA	_u16_TK1_environment_val
0001b4   161d     movar   0x1d             	MOVAR	(_u16_get_val + 1)
0001b5   15af     movra   0x2f             	MOVRA	(_u16_TK1_environment_val + 1)
                                           ;	.line	477; "MC30P8160.c"	TK1_Filter_Cnt = 0;
0001b6   1dba     clrr    0x3a             	CLRR	_TK1_Filter_Cnt
                                           ;	.line	478; "MC30P8160.c"	u16_TK1_environment_val_Sum = 0;
0001b7   1db0     clrr    0x30             	CLRR	_u16_TK1_environment_val_Sum
0001b8   1db1     clrr    0x31             	CLRR	(_u16_TK1_environment_val_Sum + 1)
                                           ;	.line	480; "MC30P8160.c"	TK1_Release_Flag = 1;
0001b9   3b36     bset    0x36, 0x6        	BSET	_flag2,6
                                           ;	.line	482; "MC30P8160.c"	u16_TK1_get_val_Min = 0xFFFF;
0001ba   0bff     movai   0xff             	MOVAI	0xff
0001bb   15a6     movra   0x26             	MOVRA	_u16_TK1_get_val_Min
0001bc   15a7     movra   0x27             	MOVRA	(_u16_TK1_get_val_Min + 1)
                                           ;	.line	483; "MC30P8160.c"	}
0001bd   000c     return                   	RETURN	
                                           ; exit point of _TK1_Release_
                                           
                                           ;***
                                           ;  pBlock Stats: dbName = C
                                           ;***
                                           ;entry:  _TK0_Scan	;Function start
                                           ; 2 exit points
                                           ;has an exit
                                           ;functions called:
                                           ;   _TK_Init
                                           ;   _Get_TK_Value
                                           ;   _TK0_Release_
                                           ;   _TK_Init
                                           ;   _Get_TK_Value
                                           ;   _TK0_Release_
                                           ;2 compiler assigned registers:
                                           ;   r0x1027
                                           ;   r0x1028
                                           ;; Starting pCode block
                                           _TK0_Scan	;Function start
                                           ; 2 exit points
                                           ;	.line	357; "MC30P8160.c"	DDR1 |= 0x01;     // 1： 端口作为输入口          0： 端口作为输出口
0001be   3856     bset    0x56, 0          	BSET	_DDR1,0
                                           ;	.line	358; "MC30P8160.c"	P1ADCR |= 0x01;   // 0 使能端口的数字 I/O 功能； 1 关闭端口的数字 I/O 功能；
0001bf   3867     bset    0x67, 0          	BSET	_P1ADCR,0
                                           ;	.line	360; "MC30P8160.c"	TKCR1 = 0x00; // 写0000_0000 bit0-1: 00 TK0 选择相应按键输入通道
0001c0   1dec     clrr    0x6c             	CLRR	_TKCR1
                                           ;	.line	361; "MC30P8160.c"	TK_Init();
0001c1   2290     call    0x290            	CALL	_TK_Init
                                           ;	.line	363; "MC30P8160.c"	Get_TK_Value();
0001c2   2278     call    0x278            	CALL	_Get_TK_Value
                                           ;	.line	366; "MC30P8160.c"	DDR1 &= 0xFE;     // 1： 端口作为输入口         0： 端口作为输出口
0001c3   3c56     bclr    0x56, 0          	BCLR	_DDR1,0
                                           ;	.line	367; "MC30P8160.c"	P1ADCR &= 0xFE;   // 1 关闭端口的数字 I/O 功能； 0 使能端口的数字 I/O 功能； 
0001c4   3c67     bclr    0x67, 0          	BCLR	_P1ADCR,0
                                           ;	.line	368; "MC30P8160.c"	P10D = 0;
0001c5   3c06     bclr    0x6, 0           	BCLR	_P1bits,0
                                           ;	.line	382; "MC30P8160.c"	if(Pre_T_Key0_Release) 
0001c6   30b5     jbset   0x35, 0x1        	JBSET	_flag1,1
0001c7   2a31     goto    0x231            	GOTO	_00176_DS_
                                           ;	.line	384; "MC30P8160.c"	u16_temp_val = u16_get_val + Const_SEN_T_Key0;
0001c8   0b2d     movai   0x2d             	MOVAI	0x2d
0001c9   1f1c     addar   0x1c             	ADDAR	_u16_get_val
0001ca   15a0     movra   0x20             	MOVRA	_u16_temp_val
0001cb   1da1     clrr    0x21             	CLRR	(_u16_temp_val + 1)
0001cc   14a1     rlr     0x21             	RLR	(_u16_temp_val + 1)
0001cd   161d     movar   0x1d             	MOVAR	(_u16_get_val + 1)
0001ce   1fa1     addra   0x21             	ADDRA	(_u16_temp_val + 1)
                                           ;	.line	386; "MC30P8160.c"	if(u16_temp_val < u16_TK0_environment_val) 	 //按下
0001cf   162b     movar   0x2b             	MOVAR	(_u16_TK0_environment_val + 1)
0001d0   1221     rsubar  0x21             	RSUBAR	(_u16_temp_val + 1)
0001d1   3103     jbset   0x3, 0x2         	JBSET	STATUS,2
0001d2   29d5     goto    0x1d5            	GOTO	_00228_DS_
0001d3   162a     movar   0x2a             	MOVAR	_u16_TK0_environment_val
0001d4   1220     rsubar  0x20             	RSUBAR	_u16_temp_val
                                           _00228_DS_
0001d5   3403     jbclr   0x3, 0           	JBCLR	STATUS,0
0001d6   29ea     goto    0x1ea            	GOTO	_00165_DS_
                                           ;;genSkipc:3291: created from rifx:013C5EFC
                                           ;	.line	388; "MC30P8160.c"	SleepCnt = 0xFF;
0001d7   0bff     movai   0xff             	MOVAI	0xff
0001d8   15be     movra   0x3e             	MOVRA	_SleepCnt
                                           ;	.line	389; "MC30P8160.c"	FilterCnt_TK0 ++;
0001d9   19bc     incr    0x3c             	INCR	_FilterCnt_TK0
                                           ;;swapping arguments (AOP_TYPEs 1/3)
                                           ;;unsigned compare: left >= lit(0xC=12), size=1
                                           ;	.line	390; "MC30P8160.c"	if(FilterCnt_TK0 > FilterCnt_Value)
0001da   0b0c     movai   0xc              	MOVAI	0x0c
0001db   123c     rsubar  0x3c             	RSUBAR	_FilterCnt_TK0
0001dc   3003     jbset   0x3, 0           	JBSET	STATUS,0
0001dd   2a68     goto    0x268            	GOTO	_00178_DS_
                                           ;;genSkipc:3291: created from rifx:013C5EFC
                                           ;	.line	392; "MC30P8160.c"	T_Key0_Signal = 1;
0001de   3835     bset    0x35, 0          	BSET	_flag1,0
                                           ;	.line	393; "MC30P8160.c"	Pre_T_Key0_Release = 0;
0001df   3cb5     bclr    0x35, 0x1        	BCLR	_flag1,1
                                           ;	.line	394; "MC30P8160.c"	u16_release_val_TK0 = u16_TK0_environment_val - Const_SEN_T_Key0; //
0001e0   0bd3     movai   0xd3             	MOVAI	0xd3
0001e1   1f2a     addar   0x2a             	ADDAR	_u16_TK0_environment_val
0001e2   15a2     movra   0x22             	MOVRA	_u16_release_val_TK0
0001e3   0bff     movai   0xff             	MOVAI	0xff
0001e4   15a3     movra   0x23             	MOVRA	(_u16_release_val_TK0 + 1)
0001e5   162b     movar   0x2b             	MOVAR	(_u16_TK0_environment_val + 1)
0001e6   3403     jbclr   0x3, 0           	JBCLR	STATUS,0
0001e7   182b     jzar    0x2b             	JZAR	(_u16_TK0_environment_val + 1)
0001e8   1fa3     addra   0x23             	ADDRA	(_u16_release_val_TK0 + 1)
0001e9   2a68     goto    0x268            	GOTO	_00178_DS_
                                           _00165_DS_
                                           ;	.line	399; "MC30P8160.c"	FilterCnt_TK0 = 0;
0001ea   1dbc     clrr    0x3c             	CLRR	_FilterCnt_TK0
                                           ;	.line	401; "MC30P8160.c"	if(SleepCnt)
0001eb   0b00     movai   0                	MOVAI	0x00
0001ec   173e     orar    0x3e             	ORAR	_SleepCnt
0001ed   3503     jbclr   0x3, 0x2         	JBCLR	STATUS,2
0001ee   2a16     goto    0x216            	GOTO	_00158_DS_
                                           ;	.line	404; "MC30P8160.c"	TK0_Filter_Cnt_T ++;
0001ef   19b9     incr    0x39             	INCR	_TK0_Filter_Cnt_T
                                           ;;unsigned compare: left < lit(0x4=4), size=1
                                           ;	.line	406; "MC30P8160.c"	if(TK0_Filter_Cnt_T >= 4)
0001f0   0b04     movai   0x4              	MOVAI	0x04
0001f1   1239     rsubar  0x39             	RSUBAR	_TK0_Filter_Cnt_T
0001f2   3003     jbset   0x3, 0           	JBSET	STATUS,0
0001f3   2a1d     goto    0x21d            	GOTO	_00159_DS_
                                           ;;genSkipc:3291: created from rifx:013C5EFC
                                           ;	.line	408; "MC30P8160.c"	TK0_Filter_Cnt_T = 0;
0001f4   1db9     clrr    0x39             	CLRR	_TK0_Filter_Cnt_T
                                           ;	.line	409; "MC30P8160.c"	u16_TK0_environment_val_Sum += u16_get_val;
0001f5   161c     movar   0x1c             	MOVAR	_u16_get_val
0001f6   1fac     addra   0x2c             	ADDRA	_u16_TK0_environment_val_Sum
0001f7   161d     movar   0x1d             	MOVAR	(_u16_get_val + 1)
0001f8   3403     jbclr   0x3, 0           	JBCLR	STATUS,0
0001f9   181d     jzar    0x1d             	JZAR	(_u16_get_val + 1)
0001fa   1fad     addra   0x2d             	ADDRA	(_u16_TK0_environment_val_Sum + 1)
                                           ;	.line	411; "MC30P8160.c"	TK0_Filter_Cnt ++;                 	   	   	   	
0001fb   19b8     incr    0x38             	INCR	_TK0_Filter_Cnt
                                           ;;swapping arguments (AOP_TYPEs 1/3)
                                           ;;unsigned compare: left >= lit(0x8=8), size=1
                                           ;	.line	412; "MC30P8160.c"	if(TK0_Filter_Cnt > 7)
0001fc   0b08     movai   0x8              	MOVAI	0x08
0001fd   1238     rsubar  0x38             	RSUBAR	_TK0_Filter_Cnt
0001fe   3003     jbset   0x3, 0           	JBSET	STATUS,0
0001ff   2a1d     goto    0x21d            	GOTO	_00159_DS_
                                           ;;genSkipc:3291: created from rifx:013C5EFC
                                           ;	.line	414; "MC30P8160.c"	TK0_Filter_Cnt = 0;
000200   1db8     clrr    0x38             	CLRR	_TK0_Filter_Cnt
                                           ;;shiftRight_Left2ResultLit:5339: shCount=1, size=2, sign=0, same=0, offr=0
                                           ;	.line	415; "MC30P8160.c"	u16_TK0_environment_val = u16_TK0_environment_val_Sum >> 3;
000201   3c03     bclr    0x3, 0           	BCLR	STATUS,0
000202   132d     rrar    0x2d             	RRAR	(_u16_TK0_environment_val_Sum + 1)
000203   15ab     movra   0x2b             	MOVRA	(_u16_TK0_environment_val + 1)
000204   132c     rrar    0x2c             	RRAR	_u16_TK0_environment_val_Sum
000205   15aa     movra   0x2a             	MOVRA	_u16_TK0_environment_val
                                           ;;shiftRight_Left2ResultLit:5339: shCount=1, size=2, sign=0, same=1, offr=0
000206   3c03     bclr    0x3, 0           	BCLR	STATUS,0
000207   13ab     rrr     0x2b             	RRR	(_u16_TK0_environment_val + 1)
000208   13aa     rrr     0x2a             	RRR	_u16_TK0_environment_val
                                           ;;shiftRight_Left2ResultLit:5339: shCount=1, size=2, sign=0, same=1, offr=0
000209   3c03     bclr    0x3, 0           	BCLR	STATUS,0
00020a   13ab     rrr     0x2b             	RRR	(_u16_TK0_environment_val + 1)
00020b   13aa     rrr     0x2a             	RRR	_u16_TK0_environment_val
                                           ;	.line	416; "MC30P8160.c"	u16_TK0_environment_val_Sum = 0;
00020c   1dac     clrr    0x2c             	CLRR	_u16_TK0_environment_val_Sum
00020d   1dad     clrr    0x2d             	CLRR	(_u16_TK0_environment_val_Sum + 1)
                                           ;	.line	418; "MC30P8160.c"	if(TK0_Release_Flag)
00020e   3135     jbset   0x35, 0x2        	JBSET	_flag1,2
00020f   2a1d     goto    0x21d            	GOTO	_00159_DS_
                                           ;	.line	420; "MC30P8160.c"	TK0_Release_Flag = 0;
000210   3d35     bclr    0x35, 0x2        	BCLR	_flag1,2
                                           ;	.line	421; "MC30P8160.c"	u16_TK0_environment_val = u16_get_val;
000211   161c     movar   0x1c             	MOVAR	_u16_get_val
000212   15aa     movra   0x2a             	MOVRA	_u16_TK0_environment_val
000213   161d     movar   0x1d             	MOVAR	(_u16_get_val + 1)
000214   15ab     movra   0x2b             	MOVRA	(_u16_TK0_environment_val + 1)
000215   2a1d     goto    0x21d            	GOTO	_00159_DS_
                                           _00158_DS_
                                           ;	.line	428; "MC30P8160.c"	u16_TK0_environment_val = u16_get_val;
000216   161c     movar   0x1c             	MOVAR	_u16_get_val
000217   15aa     movra   0x2a             	MOVRA	_u16_TK0_environment_val
000218   161d     movar   0x1d             	MOVAR	(_u16_get_val + 1)
000219   15ab     movra   0x2b             	MOVRA	(_u16_TK0_environment_val + 1)
                                           ;	.line	429; "MC30P8160.c"	u16_TK0_environment_val_Sum = 0;
00021a   1dac     clrr    0x2c             	CLRR	_u16_TK0_environment_val_Sum
00021b   1dad     clrr    0x2d             	CLRR	(_u16_TK0_environment_val_Sum + 1)
                                           ;	.line	430; "MC30P8160.c"	TK0_Filter_Cnt = 0;
00021c   1db8     clrr    0x38             	CLRR	_TK0_Filter_Cnt
                                           _00159_DS_
                                           ;	.line	433; "MC30P8160.c"	if(TK0_Release_Flag == 1)
00021d   1d9a     clrr    0x1a             	CLRR	r0x1027
00021e   3535     jbclr   0x35, 0x2        	JBCLR	_flag1,2
00021f   199a     incr    0x1a             	INCR	r0x1027
000220   161a     movar   0x1a             	MOVAR	r0x1027
000221   0801     xorai   0x1              	XORAI	0x01
000222   3103     jbset   0x3, 0x2         	JBSET	STATUS,2
000223   2a68     goto    0x268            	GOTO	_00178_DS_
                                           ;	.line	435; "MC30P8160.c"	if(u16_get_val > u16_TK0_environment_val)
000224   161d     movar   0x1d             	MOVAR	(_u16_get_val + 1)
000225   122b     rsubar  0x2b             	RSUBAR	(_u16_TK0_environment_val + 1)
000226   3103     jbset   0x3, 0x2         	JBSET	STATUS,2
000227   2a2a     goto    0x22a            	GOTO	_00232_DS_
000228   161c     movar   0x1c             	MOVAR	_u16_get_val
000229   122a     rsubar  0x2a             	RSUBAR	_u16_TK0_environment_val
                                           _00232_DS_
00022a   3403     jbclr   0x3, 0           	JBCLR	STATUS,0
00022b   2a68     goto    0x268            	GOTO	_00178_DS_
                                           ;;genSkipc:3291: created from rifx:013C5EFC
                                           ;	.line	437; "MC30P8160.c"	u16_TK0_environment_val = u16_get_val;
00022c   161c     movar   0x1c             	MOVAR	_u16_get_val
00022d   15aa     movra   0x2a             	MOVRA	_u16_TK0_environment_val
00022e   161d     movar   0x1d             	MOVAR	(_u16_get_val + 1)
00022f   15ab     movra   0x2b             	MOVRA	(_u16_TK0_environment_val + 1)
000230   2a68     goto    0x268            	GOTO	_00178_DS_
                                           _00176_DS_
                                           ;	.line	446; "MC30P8160.c"	if(u16_get_val < u16_TK0_get_val_Min)
000231   1629     movar   0x29             	MOVAR	(_u16_TK0_get_val_Min + 1)
000232   121d     rsubar  0x1d             	RSUBAR	(_u16_get_val + 1)
000233   3103     jbset   0x3, 0x2         	JBSET	STATUS,2
000234   2a37     goto    0x237            	GOTO	_00233_DS_
000235   1628     movar   0x28             	MOVAR	_u16_TK0_get_val_Min
000236   121c     rsubar  0x1c             	RSUBAR	_u16_get_val
                                           _00233_DS_
000237   3403     jbclr   0x3, 0           	JBCLR	STATUS,0
000238   2a3d     goto    0x23d            	GOTO	_00168_DS_
                                           ;;genSkipc:3291: created from rifx:013C5EFC
                                           ;	.line	448; "MC30P8160.c"	u16_TK0_get_val_Min = u16_get_val;
000239   161c     movar   0x1c             	MOVAR	_u16_get_val
00023a   15a8     movra   0x28             	MOVRA	_u16_TK0_get_val_Min
00023b   161d     movar   0x1d             	MOVAR	(_u16_get_val + 1)
00023c   15a9     movra   0x29             	MOVRA	(_u16_TK0_get_val_Min + 1)
                                           _00168_DS_
                                           ;	.line	451; "MC30P8160.c"	u16_temp_val = u16_release_val_TK0 + Const_SEN_T_Key0 + u16_TK0_get_val_Min;
00023d   0b2d     movai   0x2d             	MOVAI	0x2d
00023e   1f22     addar   0x22             	ADDAR	_u16_release_val_TK0
00023f   159a     movra   0x1a             	MOVRA	r0x1027
000240   1d9b     clrr    0x1b             	CLRR	r0x1028
000241   149b     rlr     0x1b             	RLR	r0x1028
000242   1623     movar   0x23             	MOVAR	(_u16_release_val_TK0 + 1)
000243   1f9b     addra   0x1b             	ADDRA	r0x1028
000244   1628     movar   0x28             	MOVAR	_u16_TK0_get_val_Min
000245   1f1a     addar   0x1a             	ADDAR	r0x1027
000246   15a0     movra   0x20             	MOVRA	_u16_temp_val
000247   161b     movar   0x1b             	MOVAR	r0x1028
000248   15a1     movra   0x21             	MOVRA	(_u16_temp_val + 1)
000249   1629     movar   0x29             	MOVAR	(_u16_TK0_get_val_Min + 1)
00024a   3403     jbclr   0x3, 0           	JBCLR	STATUS,0
00024b   1829     jzar    0x29             	JZAR	(_u16_TK0_get_val_Min + 1)
00024c   1fa1     addra   0x21             	ADDRA	(_u16_temp_val + 1)
                                           ;;shiftRight_Left2ResultLit:5339: shCount=1, size=2, sign=0, same=1, offr=0
                                           ;	.line	452; "MC30P8160.c"	u16_temp_val = u16_temp_val >> 1;
00024d   3c03     bclr    0x3, 0           	BCLR	STATUS,0
00024e   13a1     rrr     0x21             	RRR	(_u16_temp_val + 1)
00024f   13a0     rrr     0x20             	RRR	_u16_temp_val
                                           ;	.line	454; "MC30P8160.c"	if(u16_get_val > u16_release_val_TK0 || u16_get_val > u16_temp_val)	//松开
000250   161d     movar   0x1d             	MOVAR	(_u16_get_val + 1)
000251   1223     rsubar  0x23             	RSUBAR	(_u16_release_val_TK0 + 1)
000252   3103     jbset   0x3, 0x2         	JBSET	STATUS,2
000253   2a56     goto    0x256            	GOTO	_00234_DS_
000254   161c     movar   0x1c             	MOVAR	_u16_get_val
000255   1222     rsubar  0x22             	RSUBAR	_u16_release_val_TK0
                                           _00234_DS_
000256   3003     jbset   0x3, 0           	JBSET	STATUS,0
000257   2a60     goto    0x260            	GOTO	_00171_DS_
                                           ;;genSkipc:3291: created from rifx:013C5EFC
000258   161d     movar   0x1d             	MOVAR	(_u16_get_val + 1)
000259   1221     rsubar  0x21             	RSUBAR	(_u16_temp_val + 1)
00025a   3103     jbset   0x3, 0x2         	JBSET	STATUS,2
00025b   2a5e     goto    0x25e            	GOTO	_00235_DS_
00025c   161c     movar   0x1c             	MOVAR	_u16_get_val
00025d   1220     rsubar  0x20             	RSUBAR	_u16_temp_val
                                           _00235_DS_
00025e   3403     jbclr   0x3, 0           	JBCLR	STATUS,0
00025f   2a67     goto    0x267            	GOTO	_00172_DS_
                                           ;;genSkipc:3291: created from rifx:013C5EFC
                                           _00171_DS_
                                           ;	.line	456; "MC30P8160.c"	FilterCnt_TK0 ++;
000260   19bc     incr    0x3c             	INCR	_FilterCnt_TK0
                                           ;;unsigned compare: left < lit(0x4=4), size=1
                                           ;	.line	457; "MC30P8160.c"	if(FilterCnt_TK0 >= 4) //触摸松开滤波 20ms
000261   0b04     movai   0x4              	MOVAI	0x04
000262   123c     rsubar  0x3c             	RSUBAR	_FilterCnt_TK0
000263   3003     jbset   0x3, 0           	JBSET	STATUS,0
000264   2a68     goto    0x268            	GOTO	_00178_DS_
                                           ;;genSkipc:3291: created from rifx:013C5EFC
                                           ;	.line	459; "MC30P8160.c"	TK0_Release_(); 	
000265   2269     call    0x269            	CALL	_TK0_Release_
000266   2a68     goto    0x268            	GOTO	_00178_DS_
                                           _00172_DS_
                                           ;	.line	464; "MC30P8160.c"	FilterCnt_TK0 = 0;
000267   1dbc     clrr    0x3c             	CLRR	_FilterCnt_TK0
                                           _00178_DS_
                                           ;	.line	467; "MC30P8160.c"	}
000268   000c     return                   	RETURN	
                                           ; exit point of _TK0_Scan
                                           
                                           ;***
                                           ;  pBlock Stats: dbName = C
                                           ;***
                                           ;entry:  _TK0_Release_	;Function start
                                           ; 2 exit points
                                           ;has an exit
                                           ;; Starting pCode block
                                           _TK0_Release_	;Function start
                                           ; 2 exit points
                                           ;	.line	343; "MC30P8160.c"	FilterCnt_TK0 = 0;
000269   1dbc     clrr    0x3c             	CLRR	_FilterCnt_TK0
                                           ;	.line	344; "MC30P8160.c"	T_Key0_Signal = 0;
00026a   3c35     bclr    0x35, 0          	BCLR	_flag1,0
                                           ;	.line	345; "MC30P8160.c"	Pre_T_Key0_Release = 1;	   	   	   	   	
00026b   38b5     bset    0x35, 0x1        	BSET	_flag1,1
                                           ;	.line	346; "MC30P8160.c"	u16_TK0_environment_val = u16_get_val;
00026c   161c     movar   0x1c             	MOVAR	_u16_get_val
00026d   15aa     movra   0x2a             	MOVRA	_u16_TK0_environment_val
00026e   161d     movar   0x1d             	MOVAR	(_u16_get_val + 1)
00026f   15ab     movra   0x2b             	MOVRA	(_u16_TK0_environment_val + 1)
                                           ;	.line	347; "MC30P8160.c"	TK0_Filter_Cnt = 0;
000270   1db8     clrr    0x38             	CLRR	_TK0_Filter_Cnt
                                           ;	.line	348; "MC30P8160.c"	u16_TK0_environment_val_Sum = 0;
000271   1dac     clrr    0x2c             	CLRR	_u16_TK0_environment_val_Sum
000272   1dad     clrr    0x2d             	CLRR	(_u16_TK0_environment_val_Sum + 1)
                                           ;	.line	350; "MC30P8160.c"	TK0_Release_Flag = 1;
000273   3935     bset    0x35, 0x2        	BSET	_flag1,2
                                           ;	.line	351; "MC30P8160.c"	u16_TK0_get_val_Min = 0xFFFF;
000274   0bff     movai   0xff             	MOVAI	0xff
000275   15a8     movra   0x28             	MOVRA	_u16_TK0_get_val_Min
000276   15a9     movra   0x29             	MOVRA	(_u16_TK0_get_val_Min + 1)
                                           ;	.line	352; "MC30P8160.c"	}
000277   000c     return                   	RETURN	
                                           ; exit point of _TK0_Release_
                                           
                                           ;***
                                           ;  pBlock Stats: dbName = C
                                           ;***
                                           ;entry:  _Get_TK_Value	;Function start
                                           ; 2 exit points
                                           ;has an exit
                                           ;4 compiler assigned registers:
                                           ;   r0x1023
                                           ;   r0x1024
                                           ;   r0x1025
                                           ;   r0x1026
                                           ;; Starting pCode block
                                           _Get_TK_Value	;Function start
                                           ; 2 exit points
                                           _00138_DS_
                                           ;	.line	329; "MC30P8160.c"	while(TKCF == 1)
000278   1d97     clrr    0x17             	CLRR	r0x1023
000279   36ec     jbclr   0x6c, 0x5        	JBCLR	_TKCR1bits,5
00027a   1997     incr    0x17             	INCR	r0x1023
00027b   1617     movar   0x17             	MOVAR	r0x1023
00027c   0801     xorai   0x1              	XORAI	0x01
00027d   3103     jbset   0x3, 0x2         	JBSET	STATUS,2
00027e   2a81     goto    0x281            	GOTO	_00140_DS_
                                           ;	.line	331; "MC30P8160.c"	WDT_Clear();
00027f   000e     clrwdt                   	CLRWDT	
000280   2a78     goto    0x278            	GOTO	_00138_DS_
                                           _00140_DS_
                                           ;	.line	334; "MC30P8160.c"	u16_get_val =  (TKCNTH << 8) | TKCNTL;
000281   166e     movar   0x6e             	MOVAR	_TKCNTH
000282   1599     movra   0x19             	MOVRA	r0x1025
000283   1597     movra   0x17             	MOVRA	r0x1023
000284   1d98     clrr    0x18             	CLRR	r0x1024
                                           ;;104	MOVAR	r0x1023
                                           ;;99	CLRR	r0x1026
000285   166f     movar   0x6f             	MOVAR	_TKCNTL
000286   159c     movra   0x1c             	MOVRA	_u16_get_val
000287   1597     movra   0x17             	MOVRA	r0x1023
000288   1d98     clrr    0x18             	CLRR	r0x1024
                                           ;;103	MOVAR	r0x1023
                                           ;;100	ORAR	r0x1026
000289   0b00     movai   0                	MOVAI	0x00
00028a   1719     orar    0x19             	ORAR	r0x1025
00028b   159d     movra   0x1d             	MOVRA	(_u16_get_val + 1)
                                           ;	.line	336; "MC30P8160.c"	TKCON = 0;  // 关闭 TKM 电容充放计数；
00028c   3f6b     bclr    0x6b, 0x6        	BCLR	_TKCR0bits,6
                                           ;	.line	337; "MC30P8160.c"	TKCNTH = 0; // 清TOUCH读数,必须手工清零
00028d   1dee     clrr    0x6e             	CLRR	_TKCNTH
                                           ;	.line	338; "MC30P8160.c"	TKCNTL = 0;
00028e   1def     clrr    0x6f             	CLRR	_TKCNTL
                                           ;	.line	339; "MC30P8160.c"	}
00028f   000c     return                   	RETURN	
                                           ; exit point of _Get_TK_Value
                                           
                                           ;***
                                           ;  pBlock Stats: dbName = C
                                           ;***
                                           ;entry:  _TK_Init	;Function start
                                           ; 2 exit points
                                           ;has an exit
                                           ;; Starting pCode block
                                           _TK_Init	;Function start
                                           ; 2 exit points
                                           ;	.line	301; "MC30P8160.c"	TKCR1 &= 0x03; // 关闭触摸, 不改变通道选择位 bit 0-1
000290   0b03     movai   0x3              	MOVAI	0x03
000291   1eec     andra   0x6c             	ANDRA	_TKCR1
                                           ;	.line	302; "MC30P8160.c"	TKCNTH = 0;
000292   1dee     clrr    0x6e             	CLRR	_TKCNTH
                                           ;	.line	303; "MC30P8160.c"	TKCNTL = 0;
000293   1def     clrr    0x6f             	CLRR	_TKCNTL
                                           ;	.line	305; "MC30P8160.c"	T2MOD = 1;   // 单次计时模式（触摸模式）
000294   3b60     bset    0x60, 0x6        	BSET	_T2CRbits,6
                                           ;	.line	307; "MC30P8160.c"	T2CR = 0x4A;   // 01_0_01_010 FOSC 16M 4分频 4M
000295   0b4a     movai   0x4a             	MOVAI	0x4a
000296   15e0     movra   0x60             	MOVRA	_T2CR
                                           ;	.line	309; "MC30P8160.c"	T2LOADH = TK_SENS_LEVEL_H1;
000297   0b0e     movai   0xe              	MOVAI	0x0e
000298   15e3     movra   0x63             	MOVRA	_T2LOADH
                                           ;	.line	310; "MC30P8160.c"	T2LOADL = TK_SENS_LEVEL_L;
000299   0bff     movai   0xff             	MOVAI	0xff
00029a   15e4     movra   0x64             	MOVRA	_T2LOADL
                                           ;	.line	315; "MC30P8160.c"	TKCR0 = 0xF4;  // 写1111_0000 bit0-3: 000 TK0 选择 4.8MHz
00029b   0bf4     movai   0xf4             	MOVAI	0xf4
00029c   15eb     movra   0x6b             	MOVRA	_TKCR0
                                           ;	.line	318; "MC30P8160.c"	TKCFL = 1; 	 // TKM 计数时钟滤波时间（典型值）为 50ns；
00029d   3aeb     bset    0x6b, 0x5        	BSET	_TKCR0bits,5
                                           ;	.line	321; "MC30P8160.c"	TKFJE = 0; 	// 关闭 TKM 自动跳频功能
00029e   3deb     bclr    0x6b, 0x3        	BCLR	_TKCR0bits,3
                                           ;	.line	322; "MC30P8160.c"	T2EN = 1;  	// 开启定时器 T2
00029f   3be0     bset    0x60, 0x7        	BSET	_T2CRbits,7
                                           ;	.line	323; "MC30P8160.c"	TKCON = 1; 	// 允许 TKM 电容充放计数
0002a0   3b6b     bset    0x6b, 0x6        	BSET	_TKCR0bits,6
                                           ;	.line	324; "MC30P8160.c"	TKEN = 1;  	// 开启 TKM      	       	
0002a1   3beb     bset    0x6b, 0x7        	BSET	_TKCR0bits,7
                                           ;	.line	325; "MC30P8160.c"	}
0002a2   000c     return                   	RETURN	
                                           ; exit point of _TK_Init
                                           
                                           ;***
                                           ;  pBlock Stats: dbName = C
                                           ;***
                                           ;entry:  _TOUCH_Init	;Function start
                                           ; 2 exit points
                                           ;has an exit
                                           ;; Starting pCode block
                                           _TOUCH_Init	;Function start
                                           ; 2 exit points
                                           ;	.line	295; "MC30P8160.c"	__endasm;
0002a3   3dd8     bclr    0x58, 0x3        	BCLR	TMRCR,3
0002a4   0b00     movai   0                	MOVAI	00000000B
0002a5   15eb     movra   0x6b             	MOVRA	TKCR0
0002a6   0bff     movai   0xff             	MOVAI	11111111B
0002a7   15ed     movra   0x6d             	MOVRA	TKCR2
0002a8   000c     return                   	RETURN
                                           ;	.line	296; "MC30P8160.c"	}
0002a9   000c     return                   	RETURN	
                                           ; exit point of _TOUCH_Init
                                           
                                           ;***
                                           ;  pBlock Stats: dbName = C
                                           ;***
                                           ;entry:  _IO_Init	;Function start
                                           ; 2 exit points
                                           ;has an exit
                                           ;; Starting pCode block
                                           _IO_Init	;Function start
                                           ; 2 exit points
                                           ;	.line	255; "MC30P8160.c"	P1 = 0x00; //  	P1nD C P1n 端口数据位（n=5-0）
0002aa   1d86     clrr    0x6              	CLRR	_P1
                                           ;	.line	258; "MC30P8160.c"	DDR1 = 0x33;   	   // DR1n C P1n 端口方向控制位（n=5-0）  0： 端口作为输出口
0002ab   0b33     movai   0x33             	MOVAI	0x33
0002ac   15d6     movra   0x56             	MOVRA	_DDR1
                                           ;	.line	262; "MC30P8160.c"	P1ADCR = 0x33;   // 0 使能端口的数字 I/O 功能； 1 关闭端口的数字 I/O 功能；
0002ad   0b33     movai   0x33             	MOVAI	0x33
0002ae   15e7     movra   0x67             	MOVRA	_P1ADCR
                                           ;	.line	265; "MC30P8160.c"	PUCON = 0xFF; //  1：端口内部上拉电阻无效；  0：端口内部上拉电阻有效
0002af   0bff     movai   0xff             	MOVAI	0xff
0002b0   158d     movra   0xd              	MOVRA	_PUCON
                                           ;	.line	266; "MC30P8160.c"	PDCON = 0xFF; //  1：端口内部下拉电阻无效；  0：端口内部下拉电阻有效
0002b1   0bff     movai   0xff             	MOVAI	0xff
0002b2   158b     movra   0xb              	MOVRA	_PDCON
                                           ;	.line	268; "MC30P8160.c"	ODCON = 0x00; // 0： 端口输出时为推挽输出   1 开漏输出
0002b3   1d8c     clrr    0xc              	CLRR	_ODCON
                                           ;	.line	271; "MC30P8160.c"	}
0002b4   000c     return                   	RETURN	
                                           ; exit point of _IO_Init
                                           
                                           ;***
                                           ;  pBlock Stats: dbName = C
                                           ;***
                                           ;entry:  _T1_PWM_Init	;Function start
                                           ; 2 exit points
                                           ;has an exit
                                           ;; Starting pCode block
                                           _T1_PWM_Init	;Function start
                                           ; 2 exit points
                                           ;	.line	247; "MC30P8160.c"	T1CR = 0x89;    // 100_01_001 使能T1、时钟为FOSC、2分频
0002b5   0b89     movai   0x89             	MOVAI	0x89
0002b6   15d9     movra   0x59             	MOVRA	_T1CR
                                           ;	.line	248; "MC30P8160.c"	T1CNT = 255-1;
0002b7   0bfe     movai   0xfe             	MOVAI	0xfe
0002b8   15da     movra   0x5a             	MOVRA	_T1CNT
                                           ;	.line	249; "MC30P8160.c"	T1LOAD = 255-1;    	   	//31k
0002b9   0bfe     movai   0xfe             	MOVAI	0xfe
0002ba   15db     movra   0x5b             	MOVRA	_T1LOAD
                                           ;	.line	250; "MC30P8160.c"	}
0002bb   000c     return                   	RETURN	
                                           ; exit point of _T1_PWM_Init
                                           
                                           ;***
                                           ;  pBlock Stats: dbName = C
                                           ;***
                                           ;entry:  _Clr_Ram	;Function start
                                           ; 2 exit points
                                           ;has an exit
                                           ;; Starting pCode block
                                           _Clr_Ram	;Function start
                                           ; 2 exit points
                                           ;	.line	241; "MC30P8160.c"	__endasm;
                                           CLR_RAM:
0002bc   0b4f     movai   0x4f             	MOVAI	0X4F
0002bd   1584     movra   0x4              	MOVRA	FSR
0002be   0b3f     movai   0x3f             	MOVAI	0X3F
0002bf   15cf     movra   0x4f             	MOVRA	0X4F ;
                                           CLR_RAM_LOOP:
0002c0   1b84     decr    0x4              	DECR	FSR
0002c1   1d80     clrr    0                	CLRR	INDF
0002c2   1acf     djzr    0x4f             	DJZR	0X4F
0002c3   2ac0     goto    0x2c0            	GOTO	CLR_RAM_LOOP
0002c4   000c     return                   	RETURN
                                           	
                                           ;	.line	242; "MC30P8160.c"	}   
0002c5   000c     return                   	RETURN	
                                           ; exit point of _Clr_Ram
                                           
                                           ;***
                                           ;  pBlock Stats: dbName = C
                                           ;***
                                           ;entry:  _Init_Sys	;Function start
                                           ; 2 exit points
                                           ;has an exit
                                           ;; Starting pCode block
                                           _Init_Sys	;Function start
                                           ; 2 exit points
                                           ;	.line	221; "MC30P8160.c"	__endasm;
                                           SET_OPTION:
0002c6   0b07     movai   0x7              	MOVAI	00000111B
0002c7   1589     movra   0x9              	MOVRA	T0CR
0002c8   0bd9     movai   0xd9             	MOVAI	217
0002c9   1d81     clrr    0x1              	CLRR	T0CNT
0002ca   0b01     movai   0x1              	MOVAI	00000001B
0002cb   158e     movra   0xe              	MOVRA	INTE
0002cc   3b8e     bset    0xe, 0x7         	BSET	INTE,7
0002cd   0b00     movai   0                	MOVAI	0x00
0002ce   158f     movra   0xf              	MOVRA	INTF
0002cf   0b00     movai   0                	MOVAI	0x00
0002d0   15e5     movra   0x65             	MOVRA	P1KBCR
0002d1   000c     return                   	RETURN
                                           	
                                           ;	.line	222; "MC30P8160.c"	} 
0002d2   000c     return                   	RETURN	
                                           ; exit point of _Init_Sys
                                           
                                           ;***
                                           ;  pBlock Stats: dbName = C
                                           ;***
                                           ;entry:  _Delay_us_2	;Function start
                                           ; 2 exit points
                                           ;has an exit
                                           ;1 compiler assigned register :
                                           ;   r0x1023
                                           ;; Starting pCode block
                                           _Delay_us_2	;Function start
                                           ; 2 exit points
                                           ;	.line	118; "MC30P8160.c"	void Delay_us_2(uint8_t i)
0002d3   1597     movra   0x17             	MOVRA	r0x1023
                                           _00107_DS_
                                           ;	.line	120; "MC30P8160.c"	for(; i>0; i--)
0002d4   0b00     movai   0                	MOVAI	0x00
0002d5   1717     orar    0x17             	ORAR	r0x1023
0002d6   3503     jbclr   0x3, 0x2         	JBCLR	STATUS,2
0002d7   2adf     goto    0x2df            	GOTO	_00109_DS_
                                           ;	.line	122; "MC30P8160.c"	WDT_Clear();
0002d8   000e     clrwdt                   	CLRWDT	
                                           ;	.line	123; "MC30P8160.c"	Nop();
0002d9   0000     nop                      	nop	
                                           ;	.line	124; "MC30P8160.c"	Nop();
0002da   0000     nop                      	nop	
                                           ;	.line	125; "MC30P8160.c"	Nop();
0002db   0000     nop                      	nop	
                                           ;	.line	126; "MC30P8160.c"	Nop();
0002dc   0000     nop                      	nop	
                                           ;	.line	120; "MC30P8160.c"	for(; i>0; i--)
0002dd   1b97     decr    0x17             	DECR	r0x1023
0002de   2ad4     goto    0x2d4            	GOTO	_00107_DS_
                                           _00109_DS_
                                           ;	.line	128; "MC30P8160.c"	}
0002df   000c     return                   	RETURN	
                                           ; exit point of _Delay_us_2
                                           
                                           
                                           ;	code size estimation:
                                           ;	  686+    0 =   686 instructions ( 1372 byte)
                                           
                                           	end
                                           ;--------------------------------------------------------
                                           ; File Created by SN-SDCC : SinoMCU ANSI-C Compiler
                                           ; Version 2.0.0 (Dec 11 2019) (MINGW32)
                                           ; This file was generated Thu Apr 11 10:30:18 2024
                                           ;--------------------------------------------------------
                                           ; MC30 port for the RISC core
                                           ;--------------------------------------------------------
                                           ;	.file	"MC30P8160.c"
                                           	list	p=1K8160
                                           	radix dec
                                           	include "1K8160.inc"
                                           ;--------------------------------------------------------
                                           ; external declarations
                                           ;--------------------------------------------------------
                                           	extern	_INDFbits
                                           	extern	_T0CNTbits
                                           	extern	_PCLbits
                                           	extern	_STATUSbits
                                           	extern	_FSRbits
                                           	extern	_P1bits
                                           	extern	_MCRbits
                                           	extern	_T0CRbits
                                           	extern	_PCLATHbits
                                           	extern	_PDCONbits
                                           	extern	_ODCONbits
                                           	extern	_PUCONbits
                                           	extern	_INTEbits
                                           	extern	_INTFbits
                                           	extern	_PWM1CR0bits
                                           	extern	_PWM1CR1bits
                                           	extern	_PWM1CR2bits
                                           	extern	_DDR1bits
                                           	extern	_TMRCRbits
                                           	extern	_T1CRbits
                                           	extern	_T1CNTbits
                                           	extern	_T1LOADbits
                                           	extern	_T1DATAbits
                                           	extern	_T1DATBbits
                                           	extern	_T1DATCbits
                                           	extern	_T1DATDbits
                                           	extern	_T2CRbits
                                           	extern	_T2CNTHbits
                                           	extern	_T2CNTLbits
                                           	extern	_T2LOADHbits
                                           	extern	_T2LOADLbits
                                           	extern	_P1KBCRbits
                                           	extern	_P1ADCRbits
                                           	extern	_CMPCR0bits
                                           	extern	_CMPCR1bits
                                           	extern	_CMPCR2bits
                                           	extern	_TKCR0bits
                                           	extern	_TKCR1bits
                                           	extern	_TKCR2bits
                                           	extern	_TKCNTHbits
                                           	extern	_TKCNTLbits
                                           	extern	_INDF
                                           	extern	_T0CNT
                                           	extern	_PCL
                                           	extern	_STATUS
                                           	extern	_FSR
                                           	extern	_P1
                                           	extern	_MCR
                                           	extern	_T0CR
                                           	extern	_PCLATH
                                           	extern	_PDCON
                                           	extern	_ODCON
                                           	extern	_PUCON
                                           	extern	_INTE
                                           	extern	_INTF
                                           	extern	_PWM1CR0
                                           	extern	_PWM1CR1
                                           	extern	_PWM1CR2
                                           	extern	_DDR1
                                           	extern	_TMRCR
                                           	extern	_T1CR
                                           	extern	_T1CNT
                                           	extern	_T1LOAD
                                           	extern	_T1DATA
                                           	extern	_T1DATB
                                           	extern	_T1DATC
                                           	extern	_T1DATD
                                           	extern	_T2CR
                                           	extern	_T2CNTH
                                           	extern	_T2CNTL
                                           	extern	_T2LOADH
                                           	extern	_T2LOADL
                                           	extern	_P1KBCR
                                           	extern	_P1ADCR
                                           	extern	_CMPCR0
                                           	extern	_CMPCR1
                                           	extern	_CMPCR2
                                           	extern	_TKCR0
                                           	extern	_TKCR1
                                           	extern	_TKCR2
                                           	extern	_TKCNTH
                                           	extern	_TKCNTL
                                           ;--------------------------------------------------------
                                           ; global declarations
                                           ;--------------------------------------------------------
                                           	global	_Delay_us_2
                                           	global	_Init_Sys
                                           	global	_Clr_Ram
                                           	global	_T1_PWM_Init
                                           	global	_IO_Init
                                           	global	_TOUCH_Init
                                           	global	_TK_Init
                                           	global	_Get_TK_Value
                                           	global	_TK0_Release_
                                           	global	_TK0_Scan
                                           	global	_TK1_Release_
                                           	global	_TK1_Scan
                                           	global	_TK1_value_Read
                                           	global	_TK0_value_Read
                                           	global	_PWM_W_OFF
                                           	global	_PWM_Y_OFF
                                           	global	_LED_PWM_Control
                                           	global	_Sleep_mode
                                           	global	_main
                                           	global	_int_isr
                                           	global	_CSAVE_ACC
                                           	global	_CSAVE_STATUS
                                           	global	_CPLAY_FLAG
                                           	global	_flag1
                                           	global	_flag2
                                           	global	_flag3
                                           	global	_u16_get_val
                                           	global	_u16_release_val
                                           	global	_u16_temp_val
                                           	global	_u16_release_val_TK0
                                           	global	_u16_release_val_TK1
                                           	global	_u16_TK1_get_val_Min
                                           	global	_u16_TK0_get_val_Min
                                           	global	_u16_TK0_environment_val
                                           	global	_u16_TK0_environment_val_Sum
                                           	global	_u16_TK1_environment_val
                                           	global	_u16_TK1_environment_val_Sum
                                           	global	_TK0_Filter_Cnt
                                           	global	_TK0_Filter_Cnt_T
                                           	global	_TK1_Filter_Cnt
                                           	global	_TK1_Filter_Cnt_T
                                           	global	_FilterCnt_TK0
                                           	global	_FilterCnt_TK1
                                           	global	_SleepCnt
                                           	global	_PWM_Duty_W
                                           	global	_PWM_Duty_Y
                                           	global	_T_key_Value
                                           	global	_TK1_Key_Cnt
                                           	global	_TK0_Key_Cnt
                                           	global	_T0_5ms_Cnt
                                           
                                           	global STK06
                                           	global STK05
                                           	global STK04
                                           	global STK03
                                           	global STK02
                                           	global STK01
                                           	global STK00
                                           
                                           sharebank udata_ovr 0x0010
                                           STK06	res 1
                                           STK05	res 1
                                           STK04	res 1
                                           STK03	res 1
                                           STK02	res 1
                                           STK01	res 1
                                           STK00	res 1
                                           
                                           ;--------------------------------------------------------
                                           ; global definitions
                                           ;--------------------------------------------------------
                                           UD_MC30P8160_0	udata
                                           _CSAVE_ACC	res	1
                                           
                                           UD_MC30P8160_1	udata
                                           _CSAVE_STATUS	res	1
                                           
                                           UD_MC30P8160_2	udata
                                           _CPLAY_FLAG	res	1
                                           
                                           UD_MC30P8160_3	udata
                                           _flag1	res	1
                                           
                                           UD_MC30P8160_4	udata
                                           _flag2	res	1
                                           
                                           UD_MC30P8160_5	udata
                                           _flag3	res	1
                                           
                                           UD_MC30P8160_6	udata
                                           _u16_get_val	res	2
                                           
                                           UD_MC30P8160_7	udata
                                           _u16_release_val	res	2
                                           
                                           UD_MC30P8160_8	udata
                                           _u16_temp_val	res	2
                                           
                                           UD_MC30P8160_9	udata
                                           _u16_release_val_TK0	res	2
                                           
                                           UD_MC30P8160_10	udata
                                           _u16_release_val_TK1	res	2
                                           
                                           UD_MC30P8160_11	udata
                                           _u16_TK1_get_val_Min	res	2
                                           
                                           UD_MC30P8160_12	udata
                                           _u16_TK0_get_val_Min	res	2
                                           
                                           UD_MC30P8160_13	udata
                                           _u16_TK0_environment_val	res	2
                                           
                                           UD_MC30P8160_14	udata
                                           _u16_TK0_environment_val_Sum	res	2
                                           
                                           UD_MC30P8160_15	udata
                                           _u16_TK1_environment_val	res	2
                                           
                                           UD_MC30P8160_16	udata
                                           _u16_TK1_environment_val_Sum	res	2
                                           
                                           UD_MC30P8160_17	udata
                                           _TK0_Filter_Cnt	res	1
                                           
                                           UD_MC30P8160_18	udata
                                           _TK0_Filter_Cnt_T	res	1
                                           
                                           UD_MC30P8160_19	udata
                                           _TK1_Filter_Cnt	res	1
                                           
                                           UD_MC30P8160_20	udata
                                           _TK1_Filter_Cnt_T	res	1
                                           
                                           UD_MC30P8160_21	udata
                                           _FilterCnt_TK0	res	1
                                           
                                           UD_MC30P8160_22	udata
                                           _FilterCnt_TK1	res	1
                                           
                                           UD_MC30P8160_23	udata
                                           _SleepCnt	res	1
                                           
                                           UD_MC30P8160_24	udata
                                           _PWM_Duty_W	res	1
                                           
                                           UD_MC30P8160_25	udata
                                           _PWM_Duty_Y	res	1
                                           
                                           UD_MC30P8160_26	udata
                                           _T_key_Value	res	1
                                           
                                           UD_MC30P8160_27	udata
                                           _TK1_Key_Cnt	res	1
                                           
                                           UD_MC30P8160_28	udata
                                           _TK0_Key_Cnt	res	1
                                           
                                           UD_MC30P8160_29	udata
                                           _T0_5ms_Cnt	res	1
                                           
                                           ;--------------------------------------------------------
                                           ; absolute symbol definitions
                                           ;--------------------------------------------------------
                                           ;--------------------------------------------------------
                                           ; compiler-defined variables
                                           ;--------------------------------------------------------
                                           UDL_MC30P8160_0	udata
                                           r0x1023	res	1
                                           r0x1024	res	1
                                           r0x1025	res	1
                                           r0x1027	res	1
                                           r0x1028	res	1
                                           ;--------------------------------------------------------
                                           ; initialized data
                                           ;--------------------------------------------------------
                                           
                                           ;@Allocation info for local variables in function 'Delay_us_2'
                                           ;@Delay_us_2 Delay_us_2                Allocated to registers ;size:2
                                           ;@Delay_us_2 INDFbits                  Allocated to registers ;size:1
                                           ;@Delay_us_2 T0CNTbits                 Allocated to registers ;size:1
                                           ;@Delay_us_2 PCLbits                   Allocated to registers ;size:1
                                           ;@Delay_us_2 STATUSbits                Allocated to registers ;size:1
                                           ;@Delay_us_2 FSRbits                   Allocated to registers ;size:1
                                           ;@Delay_us_2 P1bits                    Allocated to registers ;size:1
                                           ;@Delay_us_2 MCRbits                   Allocated to registers ;size:1
                                           ;@Delay_us_2 T0CRbits                  Allocated to registers ;size:1
                                           ;@Delay_us_2 PCLATHbits                Allocated to registers ;size:1
                                           ;@Delay_us_2 PDCONbits                 Allocated to registers ;size:1
                                           ;@Delay_us_2 ODCONbits                 Allocated to registers ;size:1
                                           ;@Delay_us_2 PUCONbits                 Allocated to registers ;size:1
                                           ;@Delay_us_2 INTEbits                  Allocated to registers ;size:1
                                           ;@Delay_us_2 INTFbits                  Allocated to registers ;size:1
                                           ;@Delay_us_2 PWM1CR0bits               Allocated to registers ;size:1
                                           ;@Delay_us_2 PWM1CR1bits               Allocated to registers ;size:1
                                           ;@Delay_us_2 PWM1CR2bits               Allocated to registers ;size:1
                                           ;@Delay_us_2 DDR1bits                  Allocated to registers ;size:1
                                           ;@Delay_us_2 TMRCRbits                 Allocated to registers ;size:1
                                           ;@Delay_us_2 T1CRbits                  Allocated to registers ;size:1
                                           ;@Delay_us_2 T1CNTbits                 Allocated to registers ;size:1
                                           ;@Delay_us_2 T1LOADbits                Allocated to registers ;size:1
                                           ;@Delay_us_2 T1DATAbits                Allocated to registers ;size:1
                                           ;@Delay_us_2 T1DATBbits                Allocated to registers ;size:1
                                           ;@Delay_us_2 T1DATCbits                Allocated to registers ;size:1
                                           ;@Delay_us_2 T1DATDbits                Allocated to registers ;size:1
                                           ;@Delay_us_2 T2CRbits                  Allocated to registers ;size:1
                                           ;@Delay_us_2 T2CNTHbits                Allocated to registers ;size:1
                                           ;@Delay_us_2 T2CNTLbits                Allocated to registers ;size:1
                                           ;@Delay_us_2 T2LOADHbits               Allocated to registers ;size:1
                                           ;@Delay_us_2 T2LOADLbits               Allocated to registers ;size:1
                                           ;@Delay_us_2 P1KBCRbits                Allocated to registers ;size:1
                                           ;@Delay_us_2 P1ADCRbits                Allocated to registers ;size:1
                                           ;@Delay_us_2 CMPCR0bits                Allocated to registers ;size:1
                                           ;@Delay_us_2 CMPCR1bits                Allocated to registers ;size:1
                                           ;@Delay_us_2 CMPCR2bits                Allocated to registers ;size:1
                                           ;@Delay_us_2 TKCR0bits                 Allocated to registers ;size:1
                                           ;@Delay_us_2 TKCR1bits                 Allocated to registers ;size:1
                                           ;@Delay_us_2 TKCR2bits                 Allocated to registers ;size:1
                                           ;@Delay_us_2 TKCNTHbits                Allocated to registers ;size:1
                                           ;@Delay_us_2 TKCNTLbits                Allocated to registers ;size:1
                                           ;@Delay_us_2 CSAVE_ACC                 Allocated to registers ;size:1
                                           ;@Delay_us_2 CSAVE_STATUS              Allocated to registers ;size:1
                                           ;@Delay_us_2 CPLAY_FLAG                Allocated to registers ;size:1
                                           ;@Delay_us_2 flag1                     Allocated to registers ;size:1
                                           ;@Delay_us_2 flag2                     Allocated to registers ;size:1
                                           ;@Delay_us_2 flag3                     Allocated to registers ;size:1
                                           ;@Delay_us_2 u16_get_val               Allocated to registers ;size:2
                                           ;@Delay_us_2 u16_release_val           Allocated to registers ;size:2
                                           ;@Delay_us_2 u16_temp_val              Allocated to registers ;size:2
                                           ;@Delay_us_2 u16_release_val_TK0       Allocated to registers ;size:2
                                           ;@Delay_us_2 u16_release_val_TK1       Allocated to registers ;size:2
                                           ;@Delay_us_2 u16_TK1_get_val_Min       Allocated to registers ;size:2
                                           ;@Delay_us_2 u16_TK0_get_val_Min       Allocated to registers ;size:2
                                           ;@Delay_us_2 u16_TK0_environment_val   Allocated to registers ;size:2
                                           ;@Delay_us_2 u16_TK0_environment_val_Sum Allocated to registers ;size:2
                                           ;@Delay_us_2 u16_TK1_environment_val   Allocated to registers ;size:2
                                           ;@Delay_us_2 u16_TK1_environment_val_Sum Allocated to registers ;size:2
                                           ;@Delay_us_2 TK0_Filter_Cnt            Allocated to registers ;size:1
                                           ;@Delay_us_2 TK0_Filter_Cnt_T          Allocated to registers ;size:1
                                           ;@Delay_us_2 TK1_Filter_Cnt            Allocated to registers ;size:1
                                           ;@Delay_us_2 TK1_Filter_Cnt_T          Allocated to registers ;size:1
                                           ;@Delay_us_2 FilterCnt_TK0             Allocated to registers ;size:1
                                           ;@Delay_us_2 FilterCnt_TK1             Allocated to registers ;size:1
                                           ;@Delay_us_2 SleepCnt                  Allocated to registers ;size:1
                                           ;@Delay_us_2 PWM_Duty_W                Allocated to registers ;size:1
                                           ;@Delay_us_2 PWM_Duty_Y                Allocated to registers ;size:1
                                           ;@Delay_us_2 T_key_Value               Allocated to registers ;size:1
                                           ;@Delay_us_2 TK1_Key_Cnt               Allocated to registers ;size:1
                                           ;@Delay_us_2 TK0_Key_Cnt               Allocated to registers ;size:1
                                           ;@Delay_us_2 T0_5ms_Cnt                Allocated to registers ;size:1
                                           ;@Delay_us_2 i                         Allocated to registers ;size:1
                                           ;@Delay_us_2 INDF                      Allocated to registers ;size:1
                                           ;@Delay_us_2 T0CNT                     Allocated to registers ;size:1
                                           ;@Delay_us_2 PCL                       Allocated to registers ;size:1
                                           ;@Delay_us_2 STATUS                    Allocated to registers ;size:1
                                           ;@Delay_us_2 FSR                       Allocated to registers ;size:1
                                           ;@Delay_us_2 P1                        Allocated to registers ;size:1
                                           ;@Delay_us_2 MCR                       Allocated to registers ;size:1
                                           ;@Delay_us_2 T0CR                      Allocated to registers ;size:1
                                           ;@Delay_us_2 PCLATH                    Allocated to registers ;size:1
                                           ;@Delay_us_2 PDCON                     Allocated to registers ;size:1
                                           ;@Delay_us_2 ODCON                     Allocated to registers ;size:1
                                           ;@Delay_us_2 PUCON                     Allocated to registers ;size:1
                                           ;@Delay_us_2 INTE                      Allocated to registers ;size:1
                                           ;@Delay_us_2 INTF                      Allocated to registers ;size:1
                                           ;@Delay_us_2 PWM1CR0                   Allocated to registers ;size:1
                                           ;@Delay_us_2 PWM1CR1                   Allocated to registers ;size:1
                                           ;@Delay_us_2 PWM1CR2                   Allocated to registers ;size:1
                                           ;@Delay_us_2 DDR1                      Allocated to registers ;size:1
                                           ;@Delay_us_2 TMRCR                     Allocated to registers ;size:1
                                           ;@Delay_us_2 T1CR                      Allocated to registers ;size:1
                                           ;@Delay_us_2 T1CNT                     Allocated to registers ;size:1
                                           ;@Delay_us_2 T1LOAD                    Allocated to registers ;size:1
                                           ;@Delay_us_2 T1DATA                    Allocated to registers ;size:1
                                           ;@Delay_us_2 T1DATB                    Allocated to registers ;size:1
                                           ;@Delay_us_2 T1DATC                    Allocated to registers ;size:1
                                           ;@Delay_us_2 T1DATD                    Allocated to registers ;size:1
                                           ;@Delay_us_2 T2CR                      Allocated to registers ;size:1
                                           ;@Delay_us_2 T2CNTH                    Allocated to registers ;size:1
                                           ;@Delay_us_2 T2CNTL                    Allocated to registers ;size:1
                                           ;@Delay_us_2 T2LOADH                   Allocated to registers ;size:1
                                           ;@Delay_us_2 T2LOADL                   Allocated to registers ;size:1
                                           ;@Delay_us_2 P1KBCR                    Allocated to registers ;size:1
                                           ;@Delay_us_2 P1ADCR                    Allocated to registers ;size:1
                                           ;@Delay_us_2 CMPCR0                    Allocated to registers ;size:1
                                           ;@Delay_us_2 CMPCR1                    Allocated to registers ;size:1
                                           ;@Delay_us_2 CMPCR2                    Allocated to registers ;size:1
                                           ;@Delay_us_2 TKCR0                     Allocated to registers ;size:1
                                           ;@Delay_us_2 TKCR1                     Allocated to registers ;size:1
                                           ;@Delay_us_2 TKCR2                     Allocated to registers ;size:1
                                           ;@Delay_us_2 TKCNTH                    Allocated to registers ;size:1
                                           ;@Delay_us_2 TKCNTL                    Allocated to registers ;size:1
                                           ;@end Allocation info for local variables in function 'Delay_us_2';
                                           ;@Allocation info for local variables in function 'Init_Sys'
                                           ;@end Allocation info for local variables in function 'Init_Sys';
                                           ;@Allocation info for local variables in function 'Clr_Ram'
                                           ;@end Allocation info for local variables in function 'Clr_Ram';
                                           ;@Allocation info for local variables in function 'T1_PWM_Init'
                                           ;@end Allocation info for local variables in function 'T1_PWM_Init';
                                           ;@Allocation info for local variables in function 'IO_Init'
                                           ;@end Allocation info for local variables in function 'IO_Init';
                                           ;@Allocation info for local variables in function 'TOUCH_Init'
                                           ;@end Allocation info for local variables in function 'TOUCH_Init';
                                           ;@Allocation info for local variables in function 'TK_Init'
                                           ;@end Allocation info for local variables in function 'TK_Init';
                                           ;@Allocation info for local variables in function 'Get_TK_Value'
                                           ;@end Allocation info for local variables in function 'Get_TK_Value';
                                           ;@Allocation info for local variables in function 'TK0_Release_'
                                           ;@end Allocation info for local variables in function 'TK0_Release_';
                                           ;@Allocation info for local variables in function 'TK0_Scan'
                                           ;@end Allocation info for local variables in function 'TK0_Scan';
                                           ;@Allocation info for local variables in function 'TK1_Release_'
                                           ;@end Allocation info for local variables in function 'TK1_Release_';
                                           ;@Allocation info for local variables in function 'TK1_Scan'
                                           ;@end Allocation info for local variables in function 'TK1_Scan';
                                           ;@Allocation info for local variables in function 'TK1_value_Read'
                                           ;@end Allocation info for local variables in function 'TK1_value_Read';
                                           ;@Allocation info for local variables in function 'TK0_value_Read'
                                           ;@end Allocation info for local variables in function 'TK0_value_Read';
                                           ;@Allocation info for local variables in function 'PWM_W_OFF'
                                           ;@end Allocation info for local variables in function 'PWM_W_OFF';
                                           ;@Allocation info for local variables in function 'PWM_Y_OFF'
                                           ;@end Allocation info for local variables in function 'PWM_Y_OFF';
                                           ;@Allocation info for local variables in function 'LED_PWM_Control'
                                           ;@end Allocation info for local variables in function 'LED_PWM_Control';
                                           ;@Allocation info for local variables in function 'Sleep_mode'
                                           ;@end Allocation info for local variables in function 'Sleep_mode';
                                           ;@Allocation info for local variables in function 'main'
                                           ;@end Allocation info for local variables in function 'main';
                                           ;@Allocation info for local variables in function 'int_isr'
                                           ;@end Allocation info for local variables in function 'int_isr';
                                           
                                           ;--------------------------------------------------------
                                           ; overlayable items in internal ram 
                                           ;--------------------------------------------------------
                                           ;	udata_ovr
                                           ;--------------------------------------------------------
                                           ; reset vector 
                                           ;--------------------------------------------------------
                                           STARTUP	code 0x0000
                                           	goto	_main
                                           ;--------------------------------------------------------
                                           ; interrupt and initialization code
                                           ;--------------------------------------------------------
                                           c_interrupt	code	0x8
                                           __sdcc_interrupt
                                           ;***
                                           ;  pBlock Stats: dbName = I
                                           ;***
                                           ;entry:  _int_isr	;Function start
                                           ; 0 exit points
                                           ;; Starting pCode block
                                           _int_isr	;Function start
                                           ; 0 exit points
                                           ;	.line	876; "MC30P8160.c"	__endasm;
                                           	MOVRA	_CSAVE_ACC
                                           	SWAPAR	STATUS
                                           	MOVRA	_CSAVE_STATUS
                                           	
                                           ;	.line	879; "MC30P8160.c"	if(T0IF)
                                           	JBSET	_INTFbits,0
                                           	GOTO	_00447_DS_
                                           ;	.line	881; "MC30P8160.c"	T0IF   = 0; 
                                           	BCLR	_INTFbits,0
                                           ;	.line	882; "MC30P8160.c"	T0CNT = 217; // T0没有自动重载器，
                                           	MOVAI	0xd9
                                           	MOVRA	_T0CNT
                                           ;	.line	884; "MC30P8160.c"	T0_5ms_Flag = 1;
                                           	BSET	_flag1,4
                                           ;	.line	887; "MC30P8160.c"	T0_5ms_Cnt ++;
                                           	INCR	_T0_5ms_Cnt
                                           ;;unsigned compare: left < lit(0x2=2), size=1
                                           ;	.line	888; "MC30P8160.c"	if(T0_5ms_Cnt >= 2)
                                           	MOVAI	0x02
                                           	RSUBAR	_T0_5ms_Cnt
                                           	JBSET	STATUS,0
                                           	GOTO	_00447_DS_
                                           ;;genSkipc:3291: created from rifx:013C5EFC
                                           ;	.line	890; "MC30P8160.c"	T0_5ms_Cnt = 0;
                                           	CLRR	_T0_5ms_Cnt
                                           ;	.line	891; "MC30P8160.c"	T0_10ms_Flag = 1;
                                           	BSET	_flag1,5
                                           _00447_DS_
                                           ;	.line	896; "MC30P8160.c"	if(T1IF)
                                           	JBSET	_TMRCRbits,0
                                           	GOTO	_00449_DS_
                                           ;	.line	898; "MC30P8160.c"	T1IF   = 0; 
                                           	BCLR	_TMRCRbits,0
                                           _00449_DS_
                                           ;	.line	909; "MC30P8160.c"	__endasm;
                                           	SWAPAR	_CSAVE_STATUS
                                           	MOVRA	STATUS
                                           	SWAPR	_CSAVE_ACC
                                           	SWAPAR	_CSAVE_ACC
                                           	
                                           END_OF_INTERRUPT
                                           ;	.line	910; "MC30P8160.c"	}
                                           	RETIE	
                                           
                                           ;--------------------------------------------------------
                                           ; code
                                           ;--------------------------------------------------------
                                           code_MC30P8160	code
                                           ;***
                                           ;  pBlock Stats: dbName = M
                                           ;***
                                           ;entry:  _main	;Function start
                                           ; 2 exit points
                                           ;has an exit
                                           ;functions called:
                                           ;   _Clr_Ram
                                           ;   _Init_Sys
                                           ;   _IO_Init
                                           ;   _Delay_us_2
                                           ;   _TOUCH_Init
                                           ;   _T1_PWM_Init
                                           ;   _TK0_Scan
                                           ;   _TK1_Scan
                                           ;   _TK0_value_Read
                                           ;   _TK1_value_Read
                                           ;   _LED_PWM_Control
                                           ;   _Sleep_mode
                                           ;   _Clr_Ram
                                           ;   _Init_Sys
                                           ;   _IO_Init
                                           ;   _Delay_us_2
                                           ;   _TOUCH_Init
                                           ;   _T1_PWM_Init
                                           ;   _TK0_Scan
                                           ;   _TK1_Scan
                                           ;   _TK0_value_Read
                                           ;   _TK1_value_Read
                                           ;   _LED_PWM_Control
                                           ;   _Sleep_mode
                                           ;; Starting pCode block
                                           _main	;Function start
                                           ; 2 exit points
                                           ;	.line	815; "MC30P8160.c"	Clr_Ram();
                                           	CALL	_Clr_Ram
                                           ;	.line	816; "MC30P8160.c"	Init_Sys();
                                           	CALL	_Init_Sys
                                           ;	.line	818; "MC30P8160.c"	IO_Init();
                                           	CALL	_IO_Init
                                           ;	.line	820; "MC30P8160.c"	Delay_us_2(0x5020); // 4M 约100ms
                                           	MOVAI	0x20
                                           	CALL	_Delay_us_2
                                           ;	.line	822; "MC30P8160.c"	TOUCH_Init(); // 设置触摸寄存器 
                                           	CALL	_TOUCH_Init
                                           ;	.line	824; "MC30P8160.c"	T1_PWM_Init();
                                           	CALL	_T1_PWM_Init
                                           ;	.line	825; "MC30P8160.c"	SleepCnt = 0xff;
                                           	MOVAI	0xff
                                           	MOVRA	_SleepCnt
                                           ;	.line	827; "MC30P8160.c"	PWM_Duty_W = 0xff; // 
                                           	MOVAI	0xff
                                           	MOVRA	_PWM_Duty_W
                                           ;	.line	828; "MC30P8160.c"	PWM_Duty_Y = 0xff; // 
                                           	MOVAI	0xff
                                           	MOVRA	_PWM_Duty_Y
                                           ;	.line	830; "MC30P8160.c"	W_AS_Flag = 1;
                                           	BSET	_flag1,7
                                           ;	.line	831; "MC30P8160.c"	Y_AS_Flag = 1;
                                           	BSET	_flag3,0
                                           ;	.line	832; "MC30P8160.c"	Pre_T_Key0_Release = 1;
                                           	BSET	_flag1,1
                                           ;	.line	833; "MC30P8160.c"	u16_TK0_get_val_Min = 0xFFFF;
                                           	MOVAI	0xff
                                           	MOVRA	_u16_TK0_get_val_Min
                                           	MOVRA	(_u16_TK0_get_val_Min + 1)
                                           ;	.line	834; "MC30P8160.c"	u16_TK1_get_val_Min = 0xFFFF;
                                           	MOVAI	0xff
                                           	MOVRA	_u16_TK1_get_val_Min
                                           	MOVRA	(_u16_TK1_get_val_Min + 1)
                                           _00439_DS_
                                           ;	.line	838; "MC30P8160.c"	if(T0_5ms_Flag)
                                           	JBSET	_flag1,4
                                           	GOTO	_00435_DS_
                                           ;	.line	840; "MC30P8160.c"	T0_5ms_Flag = 0;
                                           	BCLR	_flag1,4
                                           ;	.line	842; "MC30P8160.c"	TK0_Scan();    	   	   	   
                                           	CALL	_TK0_Scan
                                           ;	.line	843; "MC30P8160.c"	TK1_Scan();    	   	   	   	
                                           	CALL	_TK1_Scan
                                           _00435_DS_
                                           ;	.line	848; "MC30P8160.c"	if(T0_10ms_Flag) 
                                           	JBSET	_flag1,5
                                           	GOTO	_00437_DS_
                                           ;	.line	850; "MC30P8160.c"	T0_10ms_Flag = 0;
                                           	BCLR	_flag1,5
                                           ;	.line	852; "MC30P8160.c"	TK0_value_Read();
                                           	CALL	_TK0_value_Read
                                           ;	.line	853; "MC30P8160.c"	TK1_value_Read();
                                           	CALL	_TK1_value_Read
                                           ;	.line	855; "MC30P8160.c"	LED_PWM_Control();     	   	   	 
                                           	CALL	_LED_PWM_Control
                                           ;	.line	857; "MC30P8160.c"	Sleep_mode();
                                           	CALL	_Sleep_mode
                                           _00437_DS_
                                           ;	.line	860; "MC30P8160.c"	WDT_Clear();
                                           	CLRWDT	
                                           	GOTO	_00439_DS_
                                           ;	.line	863; "MC30P8160.c"	}
                                           	RETURN	
                                           ; exit point of _main
                                           
                                           ;***
                                           ;  pBlock Stats: dbName = C
                                           ;***
                                           ;entry:  _Sleep_mode	;Function start
                                           ; 2 exit points
                                           ;has an exit
                                           ;; Starting pCode block
                                           _Sleep_mode	;Function start
                                           ; 2 exit points
                                           ;	.line	778; "MC30P8160.c"	if(SleepCnt) 
                                           	MOVAI	0x00
                                           	ORAR	_SleepCnt
                                           	JBCLR	STATUS,2
                                           	GOTO	_00423_DS_
                                           ;	.line	780; "MC30P8160.c"	SleepCnt--;
                                           	DECR	_SleepCnt
                                           _00423_DS_
                                           ;	.line	783; "MC30P8160.c"	if(W_Power_Flag || Y_Power_Flag)
                                           	JBCLR	_flag2,0
                                           	GOTO	_00424_DS_
                                           	JBSET	_flag2,5
                                           	GOTO	_00425_DS_
                                           _00424_DS_
                                           ;	.line	785; "MC30P8160.c"	SleepCnt = 0xFF; // 
                                           	MOVAI	0xff
                                           	MOVRA	_SleepCnt
                                           _00425_DS_
                                           ;	.line	789; "MC30P8160.c"	if(!SleepCnt)
                                           	MOVAI	0x00
                                           	ORAR	_SleepCnt
                                           	JBSET	STATUS,2
                                           	GOTO	_00429_DS_
                                           ;	.line	792; "MC30P8160.c"	TKEN = 0;       //关闭TK
                                           	BCLR	_TKCR0bits,7
                                           ;	.line	795; "MC30P8160.c"	SLEEP();   //休眠两种编写方式(方式二)
                                           	STOP	
                                           ;	.line	799; "MC30P8160.c"	TKEN = 1;  	   //打开TK
                                           	BSET	_TKCR0bits,7
                                           ;	.line	802; "MC30P8160.c"	T0_5ms_Flag = 1;
                                           	BSET	_flag1,4
                                           ;	.line	803; "MC30P8160.c"	T0_10ms_Flag = 1;
                                           	BSET	_flag1,5
                                           _00429_DS_
                                           ;	.line	806; "MC30P8160.c"	}
                                           	RETURN	
                                           ; exit point of _Sleep_mode
                                           
                                           ;***
                                           ;  pBlock Stats: dbName = C
                                           ;***
                                           ;entry:  _LED_PWM_Control	;Function start
                                           ; 2 exit points
                                           ;has an exit
                                           ;functions called:
                                           ;   _PWM_W_OFF
                                           ;   _PWM_Y_OFF
                                           ;   _PWM_W_OFF
                                           ;   _PWM_Y_OFF
                                           ;1 compiler assigned register :
                                           ;   r0x1023
                                           ;; Starting pCode block
                                           _LED_PWM_Control	;Function start
                                           ; 2 exit points
                                           ;	.line	708; "MC30P8160.c"	if(PWM_Change_KeyFlg == 1)     	//按键值改变更新状态
                                           	CLRR	r0x1023
                                           	JBCLR	_flag2,1
                                           	INCR	r0x1023
                                           	MOVAR	r0x1023
                                           	XORAI	0x01
                                           	JBSET	STATUS,2
                                           	GOTO	_00392_DS_
                                           ;	.line	710; "MC30P8160.c"	PWM_Change_KeyFlg = 0;
                                           	BCLR	_flag2,1
                                           ;	.line	712; "MC30P8160.c"	if(W_Power_Flag == 0)
                                           	JBCLR	_flag2,0
                                           	GOTO	_00386_DS_
                                           ;	.line	714; "MC30P8160.c"	PWM_W_OFF();   	   	   	
                                           	CALL	_PWM_W_OFF
                                           	GOTO	_00387_DS_
                                           _00386_DS_
                                           ;	.line	718; "MC30P8160.c"	T1DATD = PWM_Duty_W; //PWM_Duty_W
                                           	MOVAR	_PWM_Duty_W
                                           	MOVRA	_T1DATD
                                           ;	.line	719; "MC30P8160.c"	PWM1DOE = 1; //打开端口输出脉宽调制波形
                                           	BSET	_PWM1CR0bits,5
                                           ;	.line	720; "MC30P8160.c"	PWM1DEN = 1; //打开 PWM1D 功能 	
                                           	BSET	_PWM1CR0bits,4
                                           _00387_DS_
                                           ;	.line	723; "MC30P8160.c"	if (Y_Power_Flag == 0)
                                           	JBCLR	_flag2,5
                                           	GOTO	_00389_DS_
                                           ;	.line	725; "MC30P8160.c"	PWM_Y_OFF();
                                           	CALL	_PWM_Y_OFF
                                           	GOTO	_00392_DS_
                                           _00389_DS_
                                           ;	.line	729; "MC30P8160.c"	T1DATC = PWM_Duty_Y;
                                           	MOVAR	_PWM_Duty_Y
                                           	MOVRA	_T1DATC
                                           ;	.line	730; "MC30P8160.c"	PWM1COE = 1; //打开端口输出脉宽调制波形
                                           	BSET	_PWM1CR0bits,3
                                           ;	.line	731; "MC30P8160.c"	PWM1CEN = 1; //打开 PWM1D 功能  
                                           	BSET	_PWM1CR0bits,2
                                           _00392_DS_
                                           ;	.line	736; "MC30P8160.c"	if(TK1_Long_press_Flag) //长按无极调光（255极）
                                           	JBSET	_flag1,3
                                           	GOTO	_00404_DS_
                                           ;	.line	738; "MC30P8160.c"	if(Y_AS_Flag && Y_Power_Flag)      	//逐渐变暗
                                           	JBSET	_flag3,0
                                           	GOTO	_00400_DS_
                                           	JBSET	_flag2,5
                                           	GOTO	_00400_DS_
                                           ;;unsigned compare: left < lit(0xFF=255), size=1
                                           ;	.line	740; "MC30P8160.c"	if(PWM_Duty_Y < 255) //最大亮度 100%
                                           	MOVAI	0xff
                                           	RSUBAR	_PWM_Duty_Y
                                           	JBCLR	STATUS,0
                                           	GOTO	_00404_DS_
                                           ;;genSkipc:3291: created from rifx:013C5EFC
                                           ;	.line	742; "MC30P8160.c"	PWM_Duty_Y ++;
                                           	INCR	_PWM_Duty_Y
                                           	GOTO	_00404_DS_
                                           _00400_DS_
                                           ;	.line	745; "MC30P8160.c"	else if(Y_Power_Flag)  	//逐渐变亮
                                           	JBSET	_flag2,5
                                           	GOTO	_00404_DS_
                                           ;;swapping arguments (AOP_TYPEs 1/3)
                                           ;;unsigned compare: left >= lit(0xD=13), size=1
                                           ;	.line	747; "MC30P8160.c"	if(PWM_Duty_Y > 12 ) //最小亮度PWM值：255 * 5%，
                                           	MOVAI	0x0d
                                           	RSUBAR	_PWM_Duty_Y
                                           	JBSET	STATUS,0
                                           	GOTO	_00404_DS_
                                           ;;genSkipc:3291: created from rifx:013C5EFC
                                           ;	.line	749; "MC30P8160.c"	PWM_Duty_Y --; 
                                           	DECR	_PWM_Duty_Y
                                           _00404_DS_
                                           ;	.line	754; "MC30P8160.c"	if (TK0_Long_press_Flag) //长按无极调光（255极）
                                           	JBSET	_flag1,6
                                           	GOTO	_00417_DS_
                                           ;	.line	756; "MC30P8160.c"	if (W_AS_Flag && W_Power_Flag)     	//逐渐变暗
                                           	JBSET	_flag1,7
                                           	GOTO	_00412_DS_
                                           	JBSET	_flag2,0
                                           	GOTO	_00412_DS_
                                           ;;unsigned compare: left < lit(0xFF=255), size=1
                                           ;	.line	758; "MC30P8160.c"	if (PWM_Duty_W < 255) //最大亮度 100%
                                           	MOVAI	0xff
                                           	RSUBAR	_PWM_Duty_W
                                           	JBCLR	STATUS,0
                                           	GOTO	_00417_DS_
                                           ;;genSkipc:3291: created from rifx:013C5EFC
                                           ;	.line	760; "MC30P8160.c"	PWM_Duty_W++;
                                           	INCR	_PWM_Duty_W
                                           	GOTO	_00417_DS_
                                           _00412_DS_
                                           ;	.line	763; "MC30P8160.c"	else if(W_Power_Flag)  	//逐渐变亮
                                           	JBSET	_flag2,0
                                           	GOTO	_00417_DS_
                                           ;;swapping arguments (AOP_TYPEs 1/3)
                                           ;;unsigned compare: left >= lit(0xD=13), size=1
                                           ;	.line	765; "MC30P8160.c"	if (PWM_Duty_W > 12) //最小亮度PWM值：255 * 8%，
                                           	MOVAI	0x0d
                                           	RSUBAR	_PWM_Duty_W
                                           	JBSET	STATUS,0
                                           	GOTO	_00417_DS_
                                           ;;genSkipc:3291: created from rifx:013C5EFC
                                           ;	.line	767; "MC30P8160.c"	PWM_Duty_W--;
                                           	DECR	_PWM_Duty_W
                                           _00417_DS_
                                           ;	.line	771; "MC30P8160.c"	}
                                           	RETURN	
                                           ; exit point of _LED_PWM_Control
                                           
                                           ;***
                                           ;  pBlock Stats: dbName = C
                                           ;***
                                           ;entry:  _PWM_Y_OFF	;Function start
                                           ; 2 exit points
                                           ;has an exit
                                           ;; Starting pCode block
                                           _PWM_Y_OFF	;Function start
                                           ; 2 exit points
                                           ;	.line	700; "MC30P8160.c"	T1DATC = 0;
                                           	CLRR	_T1DATC
                                           ;	.line	701; "MC30P8160.c"	PWM1COE = 0; //禁止端口输出脉宽调制波形；
                                           	BCLR	_PWM1CR0bits,3
                                           ;	.line	702; "MC30P8160.c"	PWM1CEN = 0; //关闭 PWM1C 功能；
                                           	BCLR	_PWM1CR0bits,2
                                           ;	.line	703; "MC30P8160.c"	}
                                           	RETURN	
                                           ; exit point of _PWM_Y_OFF
                                           
                                           ;***
                                           ;  pBlock Stats: dbName = C
                                           ;***
                                           ;entry:  _PWM_W_OFF	;Function start
                                           ; 2 exit points
                                           ;has an exit
                                           ;; Starting pCode block
                                           _PWM_W_OFF	;Function start
                                           ; 2 exit points
                                           ;	.line	693; "MC30P8160.c"	T1DATD = 0;
                                           	CLRR	_T1DATD
                                           ;	.line	694; "MC30P8160.c"	PWM1DOE = 0; //禁止端口输出脉宽调制波形；
                                           	BCLR	_PWM1CR0bits,5
                                           ;	.line	695; "MC30P8160.c"	PWM1DEN = 0; //关闭 PWM1D 功能；
                                           	BCLR	_PWM1CR0bits,4
                                           ;	.line	696; "MC30P8160.c"	}
                                           	RETURN	
                                           ; exit point of _PWM_W_OFF
                                           
                                           ;***
                                           ;  pBlock Stats: dbName = C
                                           ;***
                                           ;entry:  _TK0_value_Read	;Function start
                                           ; 2 exit points
                                           ;has an exit
                                           ;2 compiler assigned registers:
                                           ;   r0x1023
                                           ;   r0x1024
                                           ;; Starting pCode block
                                           _TK0_value_Read	;Function start
                                           ; 2 exit points
                                           ;	.line	647; "MC30P8160.c"	if(T_Key0_Signal && TK0_Key_Release_Flag == 0) //有按键按下
                                           	JBSET	_flag1,0
                                           	GOTO	_00369_DS_
                                           	JBCLR	_flag2,2
                                           	GOTO	_00369_DS_
                                           ;	.line	649; "MC30P8160.c"	TK0_Key_Cnt++;
                                           	INCR	_TK0_Key_Cnt
                                           ;	.line	651; "MC30P8160.c"	PWM_Change_KeyFlg = 1;
                                           	BSET	_flag2,1
                                           ;	.line	653; "MC30P8160.c"	if (TK0_Key_Cnt == 60) //600ms
                                           	MOVAR	_TK0_Key_Cnt
                                           	XORAI	0x3c
                                           	JBSET	STATUS,2
                                           	GOTO	_00372_DS_
                                           ;	.line	655; "MC30P8160.c"	TK1_Key_Release_Flag = 1;
                                           	BSET	_flag2,7
                                           ;	.line	658; "MC30P8160.c"	if (TK0_Long_press_Flag == 0)
                                           	JBCLR	_flag1,6
                                           	GOTO	_00372_DS_
                                           ;	.line	660; "MC30P8160.c"	TK0_Long_press_Flag = 1;  	//长按标志位置1
                                           	BSET	_flag1,6
                                           ;	.line	662; "MC30P8160.c"	PWM_Change_KeyFlg = 1;
                                           	BSET	_flag2,1
                                           ;	.line	664; "MC30P8160.c"	W_AS_Flag = !W_AS_Flag;   	//调亮调暗标志位状态变换
                                           	CLRR	r0x1023
                                           	JBCLR	_flag1,7
                                           	INCR	r0x1023
                                           	MOVAR	r0x1023
                                           	MOVAI	0x00
                                           	JBCLR	STATUS,2
                                           	MOVAI	0x01
                                           	MOVRA	r0x1023
                                           ;;1	MOVRA	r0x1024
                                           ;;102	MOVAR	r0x1024
                                           	RRAR	r0x1023
                                           	JBSET	STATUS,0
                                           	BCLR	_flag1,7
                                           	JBCLR	STATUS,0
                                           	BSET	_flag1,7
                                           	GOTO	_00372_DS_
                                           _00369_DS_
                                           ;	.line	668; "MC30P8160.c"	else if(T_Key0_Signal == 0)
                                           	JBCLR	_flag1,0
                                           	GOTO	_00372_DS_
                                           ;	.line	670; "MC30P8160.c"	TK0_Long_press_Flag = 0;
                                           	BCLR	_flag1,6
                                           ;;swapping arguments (AOP_TYPEs 1/3)
                                           ;;unsigned compare: left >= lit(0x2=2), size=1
                                           ;	.line	672; "MC30P8160.c"	if (TK0_Key_Cnt > 1 && TK0_Key_Cnt < 60)
                                           	MOVAI	0x02
                                           	RSUBAR	_TK0_Key_Cnt
                                           	JBSET	STATUS,0
                                           	GOTO	_00364_DS_
                                           ;;genSkipc:3291: created from rifx:013C5EFC
                                           ;;unsigned compare: left < lit(0x3C=60), size=1
                                           	MOVAI	0x3c
                                           	RSUBAR	_TK0_Key_Cnt
                                           	JBCLR	STATUS,0
                                           	GOTO	_00364_DS_
                                           ;;genSkipc:3291: created from rifx:013C5EFC
                                           ;	.line	674; "MC30P8160.c"	PWM_Change_KeyFlg = 1;
                                           	BSET	_flag2,1
                                           ;	.line	676; "MC30P8160.c"	if (W_Power_Flag)
                                           	JBSET	_flag2,0
                                           	GOTO	_00361_DS_
                                           ;	.line	678; "MC30P8160.c"	W_Power_Flag = 0;
                                           	BCLR	_flag2,0
                                           	GOTO	_00364_DS_
                                           _00361_DS_
                                           ;	.line	682; "MC30P8160.c"	W_Power_Flag = 1;
                                           	BSET	_flag2,0
                                           _00364_DS_
                                           ;	.line	686; "MC30P8160.c"	TK0_Key_Release_Flag = 0;
                                           	BCLR	_flag2,2
                                           ;	.line	687; "MC30P8160.c"	TK0_Key_Cnt = 0;
                                           	CLRR	_TK0_Key_Cnt
                                           _00372_DS_
                                           ;	.line	689; "MC30P8160.c"	}
                                           	RETURN	
                                           ; exit point of _TK0_value_Read
                                           
                                           ;***
                                           ;  pBlock Stats: dbName = C
                                           ;***
                                           ;entry:  _TK1_value_Read	;Function start
                                           ; 2 exit points
                                           ;has an exit
                                           ;2 compiler assigned registers:
                                           ;   r0x1023
                                           ;   r0x1024
                                           ;; Starting pCode block
                                           _TK1_value_Read	;Function start
                                           ; 2 exit points
                                           ;	.line	600; "MC30P8160.c"	if(T_Key1_Signal && TK1_Key_Release_Flag == 0) //有按键按下
                                           	JBSET	_flag2,3
                                           	GOTO	_00348_DS_
                                           	JBCLR	_flag2,7
                                           	GOTO	_00348_DS_
                                           ;	.line	602; "MC30P8160.c"	TK1_Key_Cnt ++;
                                           	INCR	_TK1_Key_Cnt
                                           ;	.line	604; "MC30P8160.c"	PWM_Change_KeyFlg = 1;
                                           	BSET	_flag2,1
                                           ;	.line	606; "MC30P8160.c"	if(TK1_Key_Cnt == 60) //600ms
                                           	MOVAR	_TK1_Key_Cnt
                                           	XORAI	0x3c
                                           	JBSET	STATUS,2
                                           	GOTO	_00351_DS_
                                           ;	.line	608; "MC30P8160.c"	TK0_Key_Release_Flag = 1;
                                           	BSET	_flag2,2
                                           ;	.line	611; "MC30P8160.c"	if(TK1_Long_press_Flag == 0)
                                           	JBCLR	_flag1,3
                                           	GOTO	_00351_DS_
                                           ;	.line	613; "MC30P8160.c"	TK1_Long_press_Flag = 1;   	//长按标志位置1
                                           	BSET	_flag1,3
                                           ;	.line	615; "MC30P8160.c"	PWM_Change_KeyFlg = 1;
                                           	BSET	_flag2,1
                                           ;	.line	617; "MC30P8160.c"	Y_AS_Flag = !Y_AS_Flag;    	//调亮调暗标志位状态变换
                                           	CLRR	r0x1023
                                           	JBCLR	_flag3,0
                                           	INCR	r0x1023
                                           	MOVAR	r0x1023
                                           	MOVAI	0x00
                                           	JBCLR	STATUS,2
                                           	MOVAI	0x01
                                           	MOVRA	r0x1023
                                           ;;1	MOVRA	r0x1024
                                           ;;101	MOVAR	r0x1024
                                           	RRAR	r0x1023
                                           	JBSET	STATUS,0
                                           	BCLR	_flag3,0
                                           	JBCLR	STATUS,0
                                           	BSET	_flag3,0
                                           	GOTO	_00351_DS_
                                           _00348_DS_
                                           ;	.line	622; "MC30P8160.c"	else if(T_Key1_Signal == 0)
                                           	JBCLR	_flag2,3
                                           	GOTO	_00351_DS_
                                           ;	.line	624; "MC30P8160.c"	TK1_Long_press_Flag = 0;   	//长按标志位清0
                                           	BCLR	_flag1,3
                                           ;;swapping arguments (AOP_TYPEs 1/3)
                                           ;;unsigned compare: left >= lit(0x2=2), size=1
                                           ;	.line	626; "MC30P8160.c"	if(TK1_Key_Cnt > 1 && TK1_Key_Cnt < 60)
                                           	MOVAI	0x02
                                           	RSUBAR	_TK1_Key_Cnt
                                           	JBSET	STATUS,0
                                           	GOTO	_00343_DS_
                                           ;;genSkipc:3291: created from rifx:013C5EFC
                                           ;;unsigned compare: left < lit(0x3C=60), size=1
                                           	MOVAI	0x3c
                                           	RSUBAR	_TK1_Key_Cnt
                                           	JBCLR	STATUS,0
                                           	GOTO	_00343_DS_
                                           ;;genSkipc:3291: created from rifx:013C5EFC
                                           ;	.line	628; "MC30P8160.c"	PWM_Change_KeyFlg = 1;
                                           	BSET	_flag2,1
                                           ;	.line	630; "MC30P8160.c"	if (Y_Power_Flag)
                                           	JBSET	_flag2,5
                                           	GOTO	_00340_DS_
                                           ;	.line	632; "MC30P8160.c"	Y_Power_Flag = 0;
                                           	BCLR	_flag2,5
                                           	GOTO	_00343_DS_
                                           _00340_DS_
                                           ;	.line	636; "MC30P8160.c"	Y_Power_Flag = 1;
                                           	BSET	_flag2,5
                                           _00343_DS_
                                           ;	.line	639; "MC30P8160.c"	TK1_Key_Release_Flag = 0;
                                           	BCLR	_flag2,7
                                           ;	.line	640; "MC30P8160.c"	TK1_Key_Cnt = 0;
                                           	CLRR	_TK1_Key_Cnt
                                           _00351_DS_
                                           ;	.line	642; "MC30P8160.c"	}
                                           	RETURN	
                                           ; exit point of _TK1_value_Read
                                           
                                           ;***
                                           ;  pBlock Stats: dbName = C
                                           ;***
                                           ;entry:  _TK1_Scan	;Function start
                                           ; 2 exit points
                                           ;has an exit
                                           ;functions called:
                                           ;   _TK_Init
                                           ;   _Get_TK_Value
                                           ;   _TK1_Release_
                                           ;   _TK_Init
                                           ;   _Get_TK_Value
                                           ;   _TK1_Release_
                                           ;2 compiler assigned registers:
                                           ;   r0x1027
                                           ;   r0x1028
                                           ;; Starting pCode block
                                           _TK1_Scan	;Function start
                                           ; 2 exit points
                                           ;	.line	488; "MC30P8160.c"	DDR1 |= 0x02;     // 1： 端口作为输入口          0： 端口作为输出口
                                           	BSET	_DDR1,1
                                           ;	.line	489; "MC30P8160.c"	P1ADCR |= 0x02;   // 0 使能端口的数字 I/O 功能； 1 关闭端口的数字 I/O 功能；
                                           	BSET	_P1ADCR,1
                                           ;	.line	491; "MC30P8160.c"	TKCR1 = 0x01; // 写0000_0000 bit0-1: 01 TK1 选择相应按键输入通道
                                           	MOVAI	0x01
                                           	MOVRA	_TKCR1
                                           ;	.line	492; "MC30P8160.c"	TK_Init();
                                           	CALL	_TK_Init
                                           ;	.line	494; "MC30P8160.c"	Get_TK_Value();
                                           	CALL	_Get_TK_Value
                                           ;	.line	497; "MC30P8160.c"	DDR1 &= 0xFD;     // 1： 端口作为输入口         0： 端口作为输出口
                                           	BCLR	_DDR1,1
                                           ;	.line	498; "MC30P8160.c"	P1ADCR &= 0xFD;   // 1 关闭端口的数字 I/O 功能； 0 使能端口的数字 I/O 功能； 
                                           	BCLR	_P1ADCR,1
                                           ;	.line	499; "MC30P8160.c"	P10D = 0;
                                           	BCLR	_P1bits,0
                                           ;	.line	513; "MC30P8160.c"	if(Pre_T_Key1_Release) 
                                           	JBSET	_flag2,4
                                           	GOTO	_00271_DS_
                                           ;	.line	515; "MC30P8160.c"	u16_temp_val = u16_get_val + Const_SEN_T_Key1;
                                           	MOVAI	0x2d
                                           	ADDAR	_u16_get_val
                                           	MOVRA	_u16_temp_val
                                           	CLRR	(_u16_temp_val + 1)
                                           	RLR	(_u16_temp_val + 1)
                                           	MOVAR	(_u16_get_val + 1)
                                           	ADDRA	(_u16_temp_val + 1)
                                           ;	.line	517; "MC30P8160.c"	if(u16_temp_val < u16_TK1_environment_val) 	 //按下
                                           	MOVAR	(_u16_TK1_environment_val + 1)
                                           	RSUBAR	(_u16_temp_val + 1)
                                           	JBSET	STATUS,2
                                           	GOTO	_00323_DS_
                                           	MOVAR	_u16_TK1_environment_val
                                           	RSUBAR	_u16_temp_val
                                           _00323_DS_
                                           	JBCLR	STATUS,0
                                           	GOTO	_00260_DS_
                                           ;;genSkipc:3291: created from rifx:013C5EFC
                                           ;	.line	519; "MC30P8160.c"	SleepCnt = 0xFF;
                                           	MOVAI	0xff
                                           	MOVRA	_SleepCnt
                                           ;	.line	520; "MC30P8160.c"	FilterCnt_TK1 ++;
                                           	INCR	_FilterCnt_TK1
                                           ;;swapping arguments (AOP_TYPEs 1/3)
                                           ;;unsigned compare: left >= lit(0xC=12), size=1
                                           ;	.line	521; "MC30P8160.c"	if(FilterCnt_TK1 > FilterCnt_Value)
                                           	MOVAI	0x0c
                                           	RSUBAR	_FilterCnt_TK1
                                           	JBSET	STATUS,0
                                           	GOTO	_00273_DS_
                                           ;;genSkipc:3291: created from rifx:013C5EFC
                                           ;	.line	523; "MC30P8160.c"	T_Key1_Signal = 1;
                                           	BSET	_flag2,3
                                           ;	.line	524; "MC30P8160.c"	Pre_T_Key1_Release = 0;
                                           	BCLR	_flag2,4
                                           ;	.line	525; "MC30P8160.c"	u16_release_val_TK1 = u16_TK1_environment_val - Const_SEN_T_Key1; //
                                           	MOVAI	0xd3
                                           	ADDAR	_u16_TK1_environment_val
                                           	MOVRA	_u16_release_val_TK1
                                           	MOVAI	0xff
                                           	MOVRA	(_u16_release_val_TK1 + 1)
                                           	MOVAR	(_u16_TK1_environment_val + 1)
                                           	JBCLR	STATUS,0
                                           	JZAR	(_u16_TK1_environment_val + 1)
                                           	ADDRA	(_u16_release_val_TK1 + 1)
                                           	GOTO	_00273_DS_
                                           _00260_DS_
                                           ;	.line	530; "MC30P8160.c"	FilterCnt_TK1 = 0;
                                           	CLRR	_FilterCnt_TK1
                                           ;	.line	532; "MC30P8160.c"	if(SleepCnt)
                                           	MOVAI	0x00
                                           	ORAR	_SleepCnt
                                           	JBCLR	STATUS,2
                                           	GOTO	_00253_DS_
                                           ;	.line	534; "MC30P8160.c"	TK1_Filter_Cnt_T ++;
                                           	INCR	_TK1_Filter_Cnt_T
                                           ;;unsigned compare: left < lit(0x4=4), size=1
                                           ;	.line	536; "MC30P8160.c"	if(TK1_Filter_Cnt_T >= 4)
                                           	MOVAI	0x04
                                           	RSUBAR	_TK1_Filter_Cnt_T
                                           	JBSET	STATUS,0
                                           	GOTO	_00247_DS_
                                           ;;genSkipc:3291: created from rifx:013C5EFC
                                           ;	.line	538; "MC30P8160.c"	TK1_Filter_Cnt_T = 0;
                                           	CLRR	_TK1_Filter_Cnt_T
                                           ;	.line	539; "MC30P8160.c"	u16_TK1_environment_val_Sum += u16_get_val;
                                           	MOVAR	_u16_get_val
                                           	ADDRA	_u16_TK1_environment_val_Sum
                                           	MOVAR	(_u16_get_val + 1)
                                           	JBCLR	STATUS,0
                                           	JZAR	(_u16_get_val + 1)
                                           	ADDRA	(_u16_TK1_environment_val_Sum + 1)
                                           ;	.line	540; "MC30P8160.c"	TK1_Filter_Cnt++;
                                           	INCR	_TK1_Filter_Cnt
                                           ;;swapping arguments (AOP_TYPEs 1/3)
                                           ;;unsigned compare: left >= lit(0x8=8), size=1
                                           _00247_DS_
                                           ;	.line	543; "MC30P8160.c"	if(TK1_Filter_Cnt > 7)
                                           	MOVAI	0x08
                                           	RSUBAR	_TK1_Filter_Cnt
                                           	JBSET	STATUS,0
                                           	GOTO	_00254_DS_
                                           ;;genSkipc:3291: created from rifx:013C5EFC
                                           ;	.line	545; "MC30P8160.c"	TK1_Filter_Cnt = 0;
                                           	CLRR	_TK1_Filter_Cnt
                                           ;;shiftRight_Left2ResultLit:5339: shCount=1, size=2, sign=0, same=0, offr=0
                                           ;	.line	546; "MC30P8160.c"	u16_TK1_environment_val = u16_TK1_environment_val_Sum >> 3;
                                           	BCLR	STATUS,0
                                           	RRAR	(_u16_TK1_environment_val_Sum + 1)
                                           	MOVRA	(_u16_TK1_environment_val + 1)
                                           	RRAR	_u16_TK1_environment_val_Sum
                                           	MOVRA	_u16_TK1_environment_val
                                           ;;shiftRight_Left2ResultLit:5339: shCount=1, size=2, sign=0, same=1, offr=0
                                           	BCLR	STATUS,0
                                           	RRR	(_u16_TK1_environment_val + 1)
                                           	RRR	_u16_TK1_environment_val
                                           ;;shiftRight_Left2ResultLit:5339: shCount=1, size=2, sign=0, same=1, offr=0
                                           	BCLR	STATUS,0
                                           	RRR	(_u16_TK1_environment_val + 1)
                                           	RRR	_u16_TK1_environment_val
                                           ;	.line	547; "MC30P8160.c"	u16_TK1_environment_val_Sum = 0;
                                           	CLRR	_u16_TK1_environment_val_Sum
                                           	CLRR	(_u16_TK1_environment_val_Sum + 1)
                                           ;	.line	549; "MC30P8160.c"	if(TK1_Release_Flag)
                                           	JBSET	_flag2,6
                                           	GOTO	_00254_DS_
                                           ;	.line	551; "MC30P8160.c"	TK1_Release_Flag = 0;
                                           	BCLR	_flag2,6
                                           ;	.line	552; "MC30P8160.c"	u16_TK1_environment_val = u16_get_val;
                                           	MOVAR	_u16_get_val
                                           	MOVRA	_u16_TK1_environment_val
                                           	MOVAR	(_u16_get_val + 1)
                                           	MOVRA	(_u16_TK1_environment_val + 1)
                                           	GOTO	_00254_DS_
                                           _00253_DS_
                                           ;	.line	558; "MC30P8160.c"	u16_TK1_environment_val = u16_get_val;
                                           	MOVAR	_u16_get_val
                                           	MOVRA	_u16_TK1_environment_val
                                           	MOVAR	(_u16_get_val + 1)
                                           	MOVRA	(_u16_TK1_environment_val + 1)
                                           ;	.line	559; "MC30P8160.c"	u16_TK1_environment_val_Sum = 0;
                                           	CLRR	_u16_TK1_environment_val_Sum
                                           	CLRR	(_u16_TK1_environment_val_Sum + 1)
                                           ;	.line	560; "MC30P8160.c"	TK1_Filter_Cnt = 0;
                                           	CLRR	_TK1_Filter_Cnt
                                           _00254_DS_
                                           ;	.line	563; "MC30P8160.c"	if(TK1_Release_Flag == 1)
                                           	CLRR	r0x1027
                                           	JBCLR	_flag2,6
                                           	INCR	r0x1027
                                           	MOVAR	r0x1027
                                           	XORAI	0x01
                                           	JBSET	STATUS,2
                                           	GOTO	_00273_DS_
                                           ;	.line	565; "MC30P8160.c"	if(u16_get_val > u16_TK1_environment_val)
                                           	MOVAR	(_u16_get_val + 1)
                                           	RSUBAR	(_u16_TK1_environment_val + 1)
                                           	JBSET	STATUS,2
                                           	GOTO	_00327_DS_
                                           	MOVAR	_u16_get_val
                                           	RSUBAR	_u16_TK1_environment_val
                                           _00327_DS_
                                           	JBCLR	STATUS,0
                                           	GOTO	_00273_DS_
                                           ;;genSkipc:3291: created from rifx:013C5EFC
                                           ;	.line	567; "MC30P8160.c"	u16_TK1_environment_val = u16_get_val;
                                           	MOVAR	_u16_get_val
                                           	MOVRA	_u16_TK1_environment_val
                                           	MOVAR	(_u16_get_val + 1)
                                           	MOVRA	(_u16_TK1_environment_val + 1)
                                           	GOTO	_00273_DS_
                                           _00271_DS_
                                           ;	.line	574; "MC30P8160.c"	if(u16_get_val < u16_TK1_get_val_Min)
                                           	MOVAR	(_u16_TK1_get_val_Min + 1)
                                           	RSUBAR	(_u16_get_val + 1)
                                           	JBSET	STATUS,2
                                           	GOTO	_00328_DS_
                                           	MOVAR	_u16_TK1_get_val_Min
                                           	RSUBAR	_u16_get_val
                                           _00328_DS_
                                           	JBCLR	STATUS,0
                                           	GOTO	_00263_DS_
                                           ;;genSkipc:3291: created from rifx:013C5EFC
                                           ;	.line	576; "MC30P8160.c"	u16_TK1_get_val_Min = u16_get_val;
                                           	MOVAR	_u16_get_val
                                           	MOVRA	_u16_TK1_get_val_Min
                                           	MOVAR	(_u16_get_val + 1)
                                           	MOVRA	(_u16_TK1_get_val_Min + 1)
                                           _00263_DS_
                                           ;	.line	579; "MC30P8160.c"	u16_temp_val = u16_release_val_TK1 + Const_SEN_T_Key1 + u16_TK1_get_val_Min;
                                           	MOVAI	0x2d
                                           	ADDAR	_u16_release_val_TK1
                                           	MOVRA	r0x1027
                                           	CLRR	r0x1028
                                           	RLR	r0x1028
                                           	MOVAR	(_u16_release_val_TK1 + 1)
                                           	ADDRA	r0x1028
                                           	MOVAR	_u16_TK1_get_val_Min
                                           	ADDAR	r0x1027
                                           	MOVRA	_u16_temp_val
                                           	MOVAR	r0x1028
                                           	MOVRA	(_u16_temp_val + 1)
                                           	MOVAR	(_u16_TK1_get_val_Min + 1)
                                           	JBCLR	STATUS,0
                                           	JZAR	(_u16_TK1_get_val_Min + 1)
                                           	ADDRA	(_u16_temp_val + 1)
                                           ;;shiftRight_Left2ResultLit:5339: shCount=1, size=2, sign=0, same=1, offr=0
                                           ;	.line	580; "MC30P8160.c"	u16_temp_val = u16_temp_val >> 1;
                                           	BCLR	STATUS,0
                                           	RRR	(_u16_temp_val + 1)
                                           	RRR	_u16_temp_val
                                           ;	.line	582; "MC30P8160.c"	if(u16_get_val > u16_release_val_TK1 || u16_get_val > u16_temp_val)	//松开
                                           	MOVAR	(_u16_get_val + 1)
                                           	RSUBAR	(_u16_release_val_TK1 + 1)
                                           	JBSET	STATUS,2
                                           	GOTO	_00329_DS_
                                           	MOVAR	_u16_get_val
                                           	RSUBAR	_u16_release_val_TK1
                                           _00329_DS_
                                           	JBSET	STATUS,0
                                           	GOTO	_00266_DS_
                                           ;;genSkipc:3291: created from rifx:013C5EFC
                                           	MOVAR	(_u16_get_val + 1)
                                           	RSUBAR	(_u16_temp_val + 1)
                                           	JBSET	STATUS,2
                                           	GOTO	_00330_DS_
                                           	MOVAR	_u16_get_val
                                           	RSUBAR	_u16_temp_val
                                           _00330_DS_
                                           	JBCLR	STATUS,0
                                           	GOTO	_00267_DS_
                                           ;;genSkipc:3291: created from rifx:013C5EFC
                                           _00266_DS_
                                           ;	.line	584; "MC30P8160.c"	FilterCnt_TK1 ++;
                                           	INCR	_FilterCnt_TK1
                                           ;;unsigned compare: left < lit(0x4=4), size=1
                                           ;	.line	585; "MC30P8160.c"	if(FilterCnt_TK1 >= 4) //触摸松开滤波 20ms
                                           	MOVAI	0x04
                                           	RSUBAR	_FilterCnt_TK1
                                           	JBSET	STATUS,0
                                           	GOTO	_00273_DS_
                                           ;;genSkipc:3291: created from rifx:013C5EFC
                                           ;	.line	587; "MC30P8160.c"	TK1_Release_();    	   	   	   	
                                           	CALL	_TK1_Release_
                                           	GOTO	_00273_DS_
                                           _00267_DS_
                                           ;	.line	592; "MC30P8160.c"	FilterCnt_TK1 = 0;
                                           	CLRR	_FilterCnt_TK1
                                           _00273_DS_
                                           ;	.line	595; "MC30P8160.c"	}
                                           	RETURN	
                                           ; exit point of _TK1_Scan
                                           
                                           ;***
                                           ;  pBlock Stats: dbName = C
                                           ;***
                                           ;entry:  _TK1_Release_	;Function start
                                           ; 2 exit points
                                           ;has an exit
                                           ;; Starting pCode block
                                           _TK1_Release_	;Function start
                                           ; 2 exit points
                                           ;	.line	471; "MC30P8160.c"	FilterCnt_TK1 = 0;
                                           	CLRR	_FilterCnt_TK1
                                           ;	.line	473; "MC30P8160.c"	T_Key1_Signal = 0;
                                           	BCLR	_flag2,3
                                           ;	.line	475; "MC30P8160.c"	Pre_T_Key1_Release = 1;	   	   	   	   	
                                           	BSET	_flag2,4
                                           ;	.line	476; "MC30P8160.c"	u16_TK1_environment_val = u16_get_val;
                                           	MOVAR	_u16_get_val
                                           	MOVRA	_u16_TK1_environment_val
                                           	MOVAR	(_u16_get_val + 1)
                                           	MOVRA	(_u16_TK1_environment_val + 1)
                                           ;	.line	477; "MC30P8160.c"	TK1_Filter_Cnt = 0;
                                           	CLRR	_TK1_Filter_Cnt
                                           ;	.line	478; "MC30P8160.c"	u16_TK1_environment_val_Sum = 0;
                                           	CLRR	_u16_TK1_environment_val_Sum
                                           	CLRR	(_u16_TK1_environment_val_Sum + 1)
                                           ;	.line	480; "MC30P8160.c"	TK1_Release_Flag = 1;
                                           	BSET	_flag2,6
                                           ;	.line	482; "MC30P8160.c"	u16_TK1_get_val_Min = 0xFFFF;
                                           	MOVAI	0xff
                                           	MOVRA	_u16_TK1_get_val_Min
                                           	MOVRA	(_u16_TK1_get_val_Min + 1)
                                           ;	.line	483; "MC30P8160.c"	}
                                           	RETURN	
                                           ; exit point of _TK1_Release_
                                           
                                           ;***
                                           ;  pBlock Stats: dbName = C
                                           ;***
                                           ;entry:  _TK0_Scan	;Function start
                                           ; 2 exit points
                                           ;has an exit
                                           ;functions called:
                                           ;   _TK_Init
                                           ;   _Get_TK_Value
                                           ;   _TK0_Release_
                                           ;   _TK_Init
                                           ;   _Get_TK_Value
                                           ;   _TK0_Release_
                                           ;2 compiler assigned registers:
                                           ;   r0x1027
                                           ;   r0x1028
                                           ;; Starting pCode block
                                           _TK0_Scan	;Function start
                                           ; 2 exit points
                                           ;	.line	357; "MC30P8160.c"	DDR1 |= 0x01;     // 1： 端口作为输入口          0： 端口作为输出口
                                           	BSET	_DDR1,0
                                           ;	.line	358; "MC30P8160.c"	P1ADCR |= 0x01;   // 0 使能端口的数字 I/O 功能； 1 关闭端口的数字 I/O 功能；
                                           	BSET	_P1ADCR,0
                                           ;	.line	360; "MC30P8160.c"	TKCR1 = 0x00; // 写0000_0000 bit0-1: 00 TK0 选择相应按键输入通道
                                           	CLRR	_TKCR1
                                           ;	.line	361; "MC30P8160.c"	TK_Init();
                                           	CALL	_TK_Init
                                           ;	.line	363; "MC30P8160.c"	Get_TK_Value();
                                           	CALL	_Get_TK_Value
                                           ;	.line	366; "MC30P8160.c"	DDR1 &= 0xFE;     // 1： 端口作为输入口         0： 端口作为输出口
                                           	BCLR	_DDR1,0
                                           ;	.line	367; "MC30P8160.c"	P1ADCR &= 0xFE;   // 1 关闭端口的数字 I/O 功能； 0 使能端口的数字 I/O 功能； 
                                           	BCLR	_P1ADCR,0
                                           ;	.line	368; "MC30P8160.c"	P10D = 0;
                                           	BCLR	_P1bits,0
                                           ;	.line	382; "MC30P8160.c"	if(Pre_T_Key0_Release) 
                                           	JBSET	_flag1,1
                                           	GOTO	_00176_DS_
                                           ;	.line	384; "MC30P8160.c"	u16_temp_val = u16_get_val + Const_SEN_T_Key0;
                                           	MOVAI	0x2d
                                           	ADDAR	_u16_get_val
                                           	MOVRA	_u16_temp_val
                                           	CLRR	(_u16_temp_val + 1)
                                           	RLR	(_u16_temp_val + 1)
                                           	MOVAR	(_u16_get_val + 1)
                                           	ADDRA	(_u16_temp_val + 1)
                                           ;	.line	386; "MC30P8160.c"	if(u16_temp_val < u16_TK0_environment_val) 	 //按下
                                           	MOVAR	(_u16_TK0_environment_val + 1)
                                           	RSUBAR	(_u16_temp_val + 1)
                                           	JBSET	STATUS,2
                                           	GOTO	_00228_DS_
                                           	MOVAR	_u16_TK0_environment_val
                                           	RSUBAR	_u16_temp_val
                                           _00228_DS_
                                           	JBCLR	STATUS,0
                                           	GOTO	_00165_DS_
                                           ;;genSkipc:3291: created from rifx:013C5EFC
                                           ;	.line	388; "MC30P8160.c"	SleepCnt = 0xFF;
                                           	MOVAI	0xff
                                           	MOVRA	_SleepCnt
                                           ;	.line	389; "MC30P8160.c"	FilterCnt_TK0 ++;
                                           	INCR	_FilterCnt_TK0
                                           ;;swapping arguments (AOP_TYPEs 1/3)
                                           ;;unsigned compare: left >= lit(0xC=12), size=1
                                           ;	.line	390; "MC30P8160.c"	if(FilterCnt_TK0 > FilterCnt_Value)
                                           	MOVAI	0x0c
                                           	RSUBAR	_FilterCnt_TK0
                                           	JBSET	STATUS,0
                                           	GOTO	_00178_DS_
                                           ;;genSkipc:3291: created from rifx:013C5EFC
                                           ;	.line	392; "MC30P8160.c"	T_Key0_Signal = 1;
                                           	BSET	_flag1,0
                                           ;	.line	393; "MC30P8160.c"	Pre_T_Key0_Release = 0;
                                           	BCLR	_flag1,1
                                           ;	.line	394; "MC30P8160.c"	u16_release_val_TK0 = u16_TK0_environment_val - Const_SEN_T_Key0; //
                                           	MOVAI	0xd3
                                           	ADDAR	_u16_TK0_environment_val
                                           	MOVRA	_u16_release_val_TK0
                                           	MOVAI	0xff
                                           	MOVRA	(_u16_release_val_TK0 + 1)
                                           	MOVAR	(_u16_TK0_environment_val + 1)
                                           	JBCLR	STATUS,0
                                           	JZAR	(_u16_TK0_environment_val + 1)
                                           	ADDRA	(_u16_release_val_TK0 + 1)
                                           	GOTO	_00178_DS_
                                           _00165_DS_
                                           ;	.line	399; "MC30P8160.c"	FilterCnt_TK0 = 0;
                                           	CLRR	_FilterCnt_TK0
                                           ;	.line	401; "MC30P8160.c"	if(SleepCnt)
                                           	MOVAI	0x00
                                           	ORAR	_SleepCnt
                                           	JBCLR	STATUS,2
                                           	GOTO	_00158_DS_
                                           ;	.line	404; "MC30P8160.c"	TK0_Filter_Cnt_T ++;
                                           	INCR	_TK0_Filter_Cnt_T
                                           ;;unsigned compare: left < lit(0x4=4), size=1
                                           ;	.line	406; "MC30P8160.c"	if(TK0_Filter_Cnt_T >= 4)
                                           	MOVAI	0x04
                                           	RSUBAR	_TK0_Filter_Cnt_T
                                           	JBSET	STATUS,0
                                           	GOTO	_00159_DS_
                                           ;;genSkipc:3291: created from rifx:013C5EFC
                                           ;	.line	408; "MC30P8160.c"	TK0_Filter_Cnt_T = 0;
                                           	CLRR	_TK0_Filter_Cnt_T
                                           ;	.line	409; "MC30P8160.c"	u16_TK0_environment_val_Sum += u16_get_val;
                                           	MOVAR	_u16_get_val
                                           	ADDRA	_u16_TK0_environment_val_Sum
                                           	MOVAR	(_u16_get_val + 1)
                                           	JBCLR	STATUS,0
                                           	JZAR	(_u16_get_val + 1)
                                           	ADDRA	(_u16_TK0_environment_val_Sum + 1)
                                           ;	.line	411; "MC30P8160.c"	TK0_Filter_Cnt ++;                 	   	   	   	
                                           	INCR	_TK0_Filter_Cnt
                                           ;;swapping arguments (AOP_TYPEs 1/3)
                                           ;;unsigned compare: left >= lit(0x8=8), size=1
                                           ;	.line	412; "MC30P8160.c"	if(TK0_Filter_Cnt > 7)
                                           	MOVAI	0x08
                                           	RSUBAR	_TK0_Filter_Cnt
                                           	JBSET	STATUS,0
                                           	GOTO	_00159_DS_
                                           ;;genSkipc:3291: created from rifx:013C5EFC
                                           ;	.line	414; "MC30P8160.c"	TK0_Filter_Cnt = 0;
                                           	CLRR	_TK0_Filter_Cnt
                                           ;;shiftRight_Left2ResultLit:5339: shCount=1, size=2, sign=0, same=0, offr=0
                                           ;	.line	415; "MC30P8160.c"	u16_TK0_environment_val = u16_TK0_environment_val_Sum >> 3;
                                           	BCLR	STATUS,0
                                           	RRAR	(_u16_TK0_environment_val_Sum + 1)
                                           	MOVRA	(_u16_TK0_environment_val + 1)
                                           	RRAR	_u16_TK0_environment_val_Sum
                                           	MOVRA	_u16_TK0_environment_val
                                           ;;shiftRight_Left2ResultLit:5339: shCount=1, size=2, sign=0, same=1, offr=0
                                           	BCLR	STATUS,0
                                           	RRR	(_u16_TK0_environment_val + 1)
                                           	RRR	_u16_TK0_environment_val
                                           ;;shiftRight_Left2ResultLit:5339: shCount=1, size=2, sign=0, same=1, offr=0
                                           	BCLR	STATUS,0
                                           	RRR	(_u16_TK0_environment_val + 1)
                                           	RRR	_u16_TK0_environment_val
                                           ;	.line	416; "MC30P8160.c"	u16_TK0_environment_val_Sum = 0;
                                           	CLRR	_u16_TK0_environment_val_Sum
                                           	CLRR	(_u16_TK0_environment_val_Sum + 1)
                                           ;	.line	418; "MC30P8160.c"	if(TK0_Release_Flag)
                                           	JBSET	_flag1,2
                                           	GOTO	_00159_DS_
                                           ;	.line	420; "MC30P8160.c"	TK0_Release_Flag = 0;
                                           	BCLR	_flag1,2
                                           ;	.line	421; "MC30P8160.c"	u16_TK0_environment_val = u16_get_val;
                                           	MOVAR	_u16_get_val
                                           	MOVRA	_u16_TK0_environment_val
                                           	MOVAR	(_u16_get_val + 1)
                                           	MOVRA	(_u16_TK0_environment_val + 1)
                                           	GOTO	_00159_DS_
                                           _00158_DS_
                                           ;	.line	428; "MC30P8160.c"	u16_TK0_environment_val = u16_get_val;
                                           	MOVAR	_u16_get_val
                                           	MOVRA	_u16_TK0_environment_val
                                           	MOVAR	(_u16_get_val + 1)
                                           	MOVRA	(_u16_TK0_environment_val + 1)
                                           ;	.line	429; "MC30P8160.c"	u16_TK0_environment_val_Sum = 0;
                                           	CLRR	_u16_TK0_environment_val_Sum
                                           	CLRR	(_u16_TK0_environment_val_Sum + 1)
                                           ;	.line	430; "MC30P8160.c"	TK0_Filter_Cnt = 0;
                                           	CLRR	_TK0_Filter_Cnt
                                           _00159_DS_
                                           ;	.line	433; "MC30P8160.c"	if(TK0_Release_Flag == 1)
                                           	CLRR	r0x1027
                                           	JBCLR	_flag1,2
                                           	INCR	r0x1027
                                           	MOVAR	r0x1027
                                           	XORAI	0x01
                                           	JBSET	STATUS,2
                                           	GOTO	_00178_DS_
                                           ;	.line	435; "MC30P8160.c"	if(u16_get_val > u16_TK0_environment_val)
                                           	MOVAR	(_u16_get_val + 1)
                                           	RSUBAR	(_u16_TK0_environment_val + 1)
                                           	JBSET	STATUS,2
                                           	GOTO	_00232_DS_
                                           	MOVAR	_u16_get_val
                                           	RSUBAR	_u16_TK0_environment_val
                                           _00232_DS_
                                           	JBCLR	STATUS,0
                                           	GOTO	_00178_DS_
                                           ;;genSkipc:3291: created from rifx:013C5EFC
                                           ;	.line	437; "MC30P8160.c"	u16_TK0_environment_val = u16_get_val;
                                           	MOVAR	_u16_get_val
                                           	MOVRA	_u16_TK0_environment_val
                                           	MOVAR	(_u16_get_val + 1)
                                           	MOVRA	(_u16_TK0_environment_val + 1)
                                           	GOTO	_00178_DS_
                                           _00176_DS_
                                           ;	.line	446; "MC30P8160.c"	if(u16_get_val < u16_TK0_get_val_Min)
                                           	MOVAR	(_u16_TK0_get_val_Min + 1)
                                           	RSUBAR	(_u16_get_val + 1)
                                           	JBSET	STATUS,2
                                           	GOTO	_00233_DS_
                                           	MOVAR	_u16_TK0_get_val_Min
                                           	RSUBAR	_u16_get_val
                                           _00233_DS_
                                           	JBCLR	STATUS,0
                                           	GOTO	_00168_DS_
                                           ;;genSkipc:3291: created from rifx:013C5EFC
                                           ;	.line	448; "MC30P8160.c"	u16_TK0_get_val_Min = u16_get_val;
                                           	MOVAR	_u16_get_val
                                           	MOVRA	_u16_TK0_get_val_Min
                                           	MOVAR	(_u16_get_val + 1)
                                           	MOVRA	(_u16_TK0_get_val_Min + 1)
                                           _00168_DS_
                                           ;	.line	451; "MC30P8160.c"	u16_temp_val = u16_release_val_TK0 + Const_SEN_T_Key0 + u16_TK0_get_val_Min;
                                           	MOVAI	0x2d
                                           	ADDAR	_u16_release_val_TK0
                                           	MOVRA	r0x1027
                                           	CLRR	r0x1028
                                           	RLR	r0x1028
                                           	MOVAR	(_u16_release_val_TK0 + 1)
                                           	ADDRA	r0x1028
                                           	MOVAR	_u16_TK0_get_val_Min
                                           	ADDAR	r0x1027
                                           	MOVRA	_u16_temp_val
                                           	MOVAR	r0x1028
                                           	MOVRA	(_u16_temp_val + 1)
                                           	MOVAR	(_u16_TK0_get_val_Min + 1)
                                           	JBCLR	STATUS,0
                                           	JZAR	(_u16_TK0_get_val_Min + 1)
                                           	ADDRA	(_u16_temp_val + 1)
                                           ;;shiftRight_Left2ResultLit:5339: shCount=1, size=2, sign=0, same=1, offr=0
                                           ;	.line	452; "MC30P8160.c"	u16_temp_val = u16_temp_val >> 1;
                                           	BCLR	STATUS,0
                                           	RRR	(_u16_temp_val + 1)
                                           	RRR	_u16_temp_val
                                           ;	.line	454; "MC30P8160.c"	if(u16_get_val > u16_release_val_TK0 || u16_get_val > u16_temp_val)	//松开
                                           	MOVAR	(_u16_get_val + 1)
                                           	RSUBAR	(_u16_release_val_TK0 + 1)
                                           	JBSET	STATUS,2
                                           	GOTO	_00234_DS_
                                           	MOVAR	_u16_get_val
                                           	RSUBAR	_u16_release_val_TK0
                                           _00234_DS_
                                           	JBSET	STATUS,0
                                           	GOTO	_00171_DS_
                                           ;;genSkipc:3291: created from rifx:013C5EFC
                                           	MOVAR	(_u16_get_val + 1)
                                           	RSUBAR	(_u16_temp_val + 1)
                                           	JBSET	STATUS,2
                                           	GOTO	_00235_DS_
                                           	MOVAR	_u16_get_val
                                           	RSUBAR	_u16_temp_val
                                           _00235_DS_
                                           	JBCLR	STATUS,0
                                           	GOTO	_00172_DS_
                                           ;;genSkipc:3291: created from rifx:013C5EFC
                                           _00171_DS_
                                           ;	.line	456; "MC30P8160.c"	FilterCnt_TK0 ++;
                                           	INCR	_FilterCnt_TK0
                                           ;;unsigned compare: left < lit(0x4=4), size=1
                                           ;	.line	457; "MC30P8160.c"	if(FilterCnt_TK0 >= 4) //触摸松开滤波 20ms
                                           	MOVAI	0x04
                                           	RSUBAR	_FilterCnt_TK0
                                           	JBSET	STATUS,0
                                           	GOTO	_00178_DS_
                                           ;;genSkipc:3291: created from rifx:013C5EFC
                                           ;	.line	459; "MC30P8160.c"	TK0_Release_(); 	
                                           	CALL	_TK0_Release_
                                           	GOTO	_00178_DS_
                                           _00172_DS_
                                           ;	.line	464; "MC30P8160.c"	FilterCnt_TK0 = 0;
                                           	CLRR	_FilterCnt_TK0
                                           _00178_DS_
                                           ;	.line	467; "MC30P8160.c"	}
                                           	RETURN	
                                           ; exit point of _TK0_Scan
                                           
                                           ;***
                                           ;  pBlock Stats: dbName = C
                                           ;***
                                           ;entry:  _TK0_Release_	;Function start
                                           ; 2 exit points
                                           ;has an exit
                                           ;; Starting pCode block
                                           _TK0_Release_	;Function start
                                           ; 2 exit points
                                           ;	.line	343; "MC30P8160.c"	FilterCnt_TK0 = 0;
                                           	CLRR	_FilterCnt_TK0
                                           ;	.line	344; "MC30P8160.c"	T_Key0_Signal = 0;
                                           	BCLR	_flag1,0
                                           ;	.line	345; "MC30P8160.c"	Pre_T_Key0_Release = 1;	   	   	   	   	
                                           	BSET	_flag1,1
                                           ;	.line	346; "MC30P8160.c"	u16_TK0_environment_val = u16_get_val;
                                           	MOVAR	_u16_get_val
                                           	MOVRA	_u16_TK0_environment_val
                                           	MOVAR	(_u16_get_val + 1)
                                           	MOVRA	(_u16_TK0_environment_val + 1)
                                           ;	.line	347; "MC30P8160.c"	TK0_Filter_Cnt = 0;
                                           	CLRR	_TK0_Filter_Cnt
                                           ;	.line	348; "MC30P8160.c"	u16_TK0_environment_val_Sum = 0;
                                           	CLRR	_u16_TK0_environment_val_Sum
                                           	CLRR	(_u16_TK0_environment_val_Sum + 1)
                                           ;	.line	350; "MC30P8160.c"	TK0_Release_Flag = 1;
                                           	BSET	_flag1,2
                                           ;	.line	351; "MC30P8160.c"	u16_TK0_get_val_Min = 0xFFFF;
                                           	MOVAI	0xff
                                           	MOVRA	_u16_TK0_get_val_Min
                                           	MOVRA	(_u16_TK0_get_val_Min + 1)
                                           ;	.line	352; "MC30P8160.c"	}
                                           	RETURN	
                                           ; exit point of _TK0_Release_
                                           
                                           ;***
                                           ;  pBlock Stats: dbName = C
                                           ;***
                                           ;entry:  _Get_TK_Value	;Function start
                                           ; 2 exit points
                                           ;has an exit
                                           ;4 compiler assigned registers:
                                           ;   r0x1023
                                           ;   r0x1024
                                           ;   r0x1025
                                           ;   r0x1026
                                           ;; Starting pCode block
                                           _Get_TK_Value	;Function start
                                           ; 2 exit points
                                           _00138_DS_
                                           ;	.line	329; "MC30P8160.c"	while(TKCF == 1)
                                           	CLRR	r0x1023
                                           	JBCLR	_TKCR1bits,5
                                           	INCR	r0x1023
                                           	MOVAR	r0x1023
                                           	XORAI	0x01
                                           	JBSET	STATUS,2
                                           	GOTO	_00140_DS_
                                           ;	.line	331; "MC30P8160.c"	WDT_Clear();
                                           	CLRWDT	
                                           	GOTO	_00138_DS_
                                           _00140_DS_
                                           ;	.line	334; "MC30P8160.c"	u16_get_val =  (TKCNTH << 8) | TKCNTL;
                                           	MOVAR	_TKCNTH
                                           	MOVRA	r0x1025
                                           	MOVRA	r0x1023
                                           	CLRR	r0x1024
                                           ;;104	MOVAR	r0x1023
                                           ;;99	CLRR	r0x1026
                                           	MOVAR	_TKCNTL
                                           	MOVRA	_u16_get_val
                                           	MOVRA	r0x1023
                                           	CLRR	r0x1024
                                           ;;103	MOVAR	r0x1023
                                           ;;100	ORAR	r0x1026
                                           	MOVAI	0x00
                                           	ORAR	r0x1025
                                           	MOVRA	(_u16_get_val + 1)
                                           ;	.line	336; "MC30P8160.c"	TKCON = 0;  // 关闭 TKM 电容充放计数；
                                           	BCLR	_TKCR0bits,6
                                           ;	.line	337; "MC30P8160.c"	TKCNTH = 0; // 清TOUCH读数,必须手工清零
                                           	CLRR	_TKCNTH
                                           ;	.line	338; "MC30P8160.c"	TKCNTL = 0;
                                           	CLRR	_TKCNTL
                                           ;	.line	339; "MC30P8160.c"	}
                                           	RETURN	
                                           ; exit point of _Get_TK_Value
                                           
                                           ;***
                                           ;  pBlock Stats: dbName = C
                                           ;***
                                           ;entry:  _TK_Init	;Function start
                                           ; 2 exit points
                                           ;has an exit
                                           ;; Starting pCode block
                                           _TK_Init	;Function start
                                           ; 2 exit points
                                           ;	.line	301; "MC30P8160.c"	TKCR1 &= 0x03; // 关闭触摸, 不改变通道选择位 bit 0-1
                                           	MOVAI	0x03
                                           	ANDRA	_TKCR1
                                           ;	.line	302; "MC30P8160.c"	TKCNTH = 0;
                                           	CLRR	_TKCNTH
                                           ;	.line	303; "MC30P8160.c"	TKCNTL = 0;
                                           	CLRR	_TKCNTL
                                           ;	.line	305; "MC30P8160.c"	T2MOD = 1;   // 单次计时模式（触摸模式）
                                           	BSET	_T2CRbits,6
                                           ;	.line	307; "MC30P8160.c"	T2CR = 0x4A;   // 01_0_01_010 FOSC 16M 4分频 4M
                                           	MOVAI	0x4a
                                           	MOVRA	_T2CR
                                           ;	.line	309; "MC30P8160.c"	T2LOADH = TK_SENS_LEVEL_H1;
                                           	MOVAI	0x0e
                                           	MOVRA	_T2LOADH
                                           ;	.line	310; "MC30P8160.c"	T2LOADL = TK_SENS_LEVEL_L;
                                           	MOVAI	0xff
                                           	MOVRA	_T2LOADL
                                           ;	.line	315; "MC30P8160.c"	TKCR0 = 0xF4;  // 写1111_0000 bit0-3: 000 TK0 选择 4.8MHz
                                           	MOVAI	0xf4
                                           	MOVRA	_TKCR0
                                           ;	.line	318; "MC30P8160.c"	TKCFL = 1; 	 // TKM 计数时钟滤波时间（典型值）为 50ns；
                                           	BSET	_TKCR0bits,5
                                           ;	.line	321; "MC30P8160.c"	TKFJE = 0; 	// 关闭 TKM 自动跳频功能
                                           	BCLR	_TKCR0bits,3
                                           ;	.line	322; "MC30P8160.c"	T2EN = 1;  	// 开启定时器 T2
                                           	BSET	_T2CRbits,7
                                           ;	.line	323; "MC30P8160.c"	TKCON = 1; 	// 允许 TKM 电容充放计数
                                           	BSET	_TKCR0bits,6
                                           ;	.line	324; "MC30P8160.c"	TKEN = 1;  	// 开启 TKM      	       	
                                           	BSET	_TKCR0bits,7
                                           ;	.line	325; "MC30P8160.c"	}
                                           	RETURN	
                                           ; exit point of _TK_Init
                                           
                                           ;***
                                           ;  pBlock Stats: dbName = C
                                           ;***
                                           ;entry:  _TOUCH_Init	;Function start
                                           ; 2 exit points
                                           ;has an exit
                                           ;; Starting pCode block
                                           _TOUCH_Init	;Function start
                                           ; 2 exit points
                                           ;	.line	295; "MC30P8160.c"	__endasm;
                                           	BCLR	TMRCR,3
                                           	MOVAI	00000000B
                                           	MOVRA	TKCR0
                                           	MOVAI	11111111B
                                           	MOVRA	TKCR2
                                           	RETURN
                                           ;	.line	296; "MC30P8160.c"	}
                                           	RETURN	
                                           ; exit point of _TOUCH_Init
                                           
                                           ;***
                                           ;  pBlock Stats: dbName = C
                                           ;***
                                           ;entry:  _IO_Init	;Function start
                                           ; 2 exit points
                                           ;has an exit
                                           ;; Starting pCode block
                                           _IO_Init	;Function start
                                           ; 2 exit points
                                           ;	.line	255; "MC30P8160.c"	P1 = 0x00; //  	P1nD C P1n 端口数据位（n=5-0）
                                           	CLRR	_P1
                                           ;	.line	258; "MC30P8160.c"	DDR1 = 0x33;   	   // DR1n C P1n 端口方向控制位（n=5-0）  0： 端口作为输出口
                                           	MOVAI	0x33
                                           	MOVRA	_DDR1
                                           ;	.line	262; "MC30P8160.c"	P1ADCR = 0x33;   // 0 使能端口的数字 I/O 功能； 1 关闭端口的数字 I/O 功能；
                                           	MOVAI	0x33
                                           	MOVRA	_P1ADCR
                                           ;	.line	265; "MC30P8160.c"	PUCON = 0xFF; //  1：端口内部上拉电阻无效；  0：端口内部上拉电阻有效
                                           	MOVAI	0xff
                                           	MOVRA	_PUCON
                                           ;	.line	266; "MC30P8160.c"	PDCON = 0xFF; //  1：端口内部下拉电阻无效；  0：端口内部下拉电阻有效
                                           	MOVAI	0xff
                                           	MOVRA	_PDCON
                                           ;	.line	268; "MC30P8160.c"	ODCON = 0x00; // 0： 端口输出时为推挽输出   1 开漏输出
                                           	CLRR	_ODCON
                                           ;	.line	271; "MC30P8160.c"	}
                                           	RETURN	
                                           ; exit point of _IO_Init
                                           
                                           ;***
                                           ;  pBlock Stats: dbName = C
                                           ;***
                                           ;entry:  _T1_PWM_Init	;Function start
                                           ; 2 exit points
                                           ;has an exit
                                           ;; Starting pCode block
                                           _T1_PWM_Init	;Function start
                                           ; 2 exit points
                                           ;	.line	247; "MC30P8160.c"	T1CR = 0x89;    // 100_01_001 使能T1、时钟为FOSC、2分频
                                           	MOVAI	0x89
                                           	MOVRA	_T1CR
                                           ;	.line	248; "MC30P8160.c"	T1CNT = 255-1;
                                           	MOVAI	0xfe
                                           	MOVRA	_T1CNT
                                           ;	.line	249; "MC30P8160.c"	T1LOAD = 255-1;    	   	//31k
                                           	MOVAI	0xfe
                                           	MOVRA	_T1LOAD
                                           ;	.line	250; "MC30P8160.c"	}
                                           	RETURN	
                                           ; exit point of _T1_PWM_Init
                                           
                                           ;***
                                           ;  pBlock Stats: dbName = C
                                           ;***
                                           ;entry:  _Clr_Ram	;Function start
                                           ; 2 exit points
                                           ;has an exit
                                           ;; Starting pCode block
                                           _Clr_Ram	;Function start
                                           ; 2 exit points
                                           ;	.line	241; "MC30P8160.c"	__endasm;
                                           CLR_RAM:
                                           	MOVAI	0X4F
                                           	MOVRA	FSR
                                           	MOVAI	0X3F
                                           	MOVRA	0X4F ;
                                           CLR_RAM_LOOP:
                                           	DECR	FSR
                                           	CLRR	INDF
                                           	DJZR	0X4F
                                           	GOTO	CLR_RAM_LOOP
                                           	RETURN
                                           	
                                           ;	.line	242; "MC30P8160.c"	}   
                                           	RETURN	
                                           ; exit point of _Clr_Ram
                                           
                                           ;***
                                           ;  pBlock Stats: dbName = C
                                           ;***
                                           ;entry:  _Init_Sys	;Function start
                                           ; 2 exit points
                                           ;has an exit
                                           ;; Starting pCode block
                                           _Init_Sys	;Function start
                                           ; 2 exit points
                                           ;	.line	221; "MC30P8160.c"	__endasm;
                                           SET_OPTION:
                                           	MOVAI	00000111B
                                           	MOVRA	T0CR
                                           	MOVAI	217
                                           	CLRR	T0CNT
                                           	MOVAI	00000001B
                                           	MOVRA	INTE
                                           	BSET	INTE,7
                                           	MOVAI	0x00
                                           	MOVRA	INTF
                                           	MOVAI	0x00
                                           	MOVRA	P1KBCR
                                           	RETURN
                                           	
                                           ;	.line	222; "MC30P8160.c"	} 
                                           	RETURN	
                                           ; exit point of _Init_Sys
                                           
                                           ;***
                                           ;  pBlock Stats: dbName = C
                                           ;***
                                           ;entry:  _Delay_us_2	;Function start
                                           ; 2 exit points
                                           ;has an exit
                                           ;1 compiler assigned register :
                                           ;   r0x1023
                                           ;; Starting pCode block
                                           _Delay_us_2	;Function start
                                           ; 2 exit points
                                           ;	.line	118; "MC30P8160.c"	void Delay_us_2(uint8_t i)
                                           	MOVRA	r0x1023
                                           _00107_DS_
                                           ;	.line	120; "MC30P8160.c"	for(; i>0; i--)
                                           	MOVAI	0x00
                                           	ORAR	r0x1023
                                           	JBCLR	STATUS,2
                                           	GOTO	_00109_DS_
                                           ;	.line	122; "MC30P8160.c"	WDT_Clear();
                                           	CLRWDT	
                                           ;	.line	123; "MC30P8160.c"	Nop();
                                           	nop	
                                           ;	.line	124; "MC30P8160.c"	Nop();
                                           	nop	
                                           ;	.line	125; "MC30P8160.c"	Nop();
                                           	nop	
                                           ;	.line	126; "MC30P8160.c"	Nop();
                                           	nop	
                                           ;	.line	120; "MC30P8160.c"	for(; i>0; i--)
                                           	DECR	r0x1023
                                           	GOTO	_00107_DS_
                                           _00109_DS_
                                           ;	.line	128; "MC30P8160.c"	}
                                           	RETURN	
                                           ; exit point of _Delay_us_2
                                           
                                           
                                           ;	code size estimation:
                                           ;	  686+    0 =   686 instructions ( 1372 byte)
                                           
                                           	end


MEMORY USAGE MAP ('X' = Used,  '-' = Unused)

0000 : XX-------------- XXXXXXXXXXXXXXXX XXXXXXXXXXXXXXXX XXXXXXXXXXXXXXXX
0040 : XXXXXXXXXXXXXXXX XXXXXXXXXXXXXXXX XXXXXXXXXXXXXXXX XXXXXXXXXXXXXXXX
0080 : XXXXXXXXXXXXXXXX XXXXXXXXXXXXXXXX XXXXXXXXXXXXXXXX XXXXXXXXXXXXXXXX
00C0 : XXXXXXXXXXXXXXXX XXXXXXXXXXXXXXXX XXXXXXXXXXXXXXXX XXXXXXXXXXXXXXXX
0100 : XXXXXXXXXXXXXXXX XXXXXXXXXXXXXXXX XXXXXXXXXXXXXXXX XXXXXXXXXXXXXXXX
0140 : XXXXXXXXXXXXXXXX XXXXXXXXXXXXXXXX XXXXXXXXXXXXXXXX XXXXXXXXXXXXXXXX
0180 : XXXXXXXXXXXXXXXX XXXXXXXXXXXXXXXX XXXXXXXXXXXXXXXX XXXXXXXXXXXXXXXX
01C0 : XXXXXXXXXXXXXXXX XXXXXXXXXXXXXXXX XXXXXXXXXXXXXXXX XXXXXXXXXXXXXXXX
0200 : XXXXXXXXXXXXXXXX XXXXXXXXXXXXXXXX XXXXXXXXXXXXXXXX XXXXXXXXXXXXXXXX
0240 : XXXXXXXXXXXXXXXX XXXXXXXXXXXXXXXX XXXXXXXXXXXXXXXX XXXXXXXXXXXXXXXX
0280 : XXXXXXXXXXXXXXXX XXXXXXXXXXXXXXXX XXXXXXXXXXXXXXXX XXXXXXXXXXXXXXXX
02C0 : XXXXXXXXXXXXXXXX XXXXXXXXXXXXXXXX XXXXXXXXXXXXXXXX XXXXXXXXXXXXXXXX
0300 : XXXXXXXXXXXXXXXX XXXXXXXXXXXXXXXX XXXXXXXXXXXXXXXX XXXXXXXXXXXXXXXX
0340 : XXXXXXXXXXXXXXXX XXXXXXXXXXXXXXXX XXXXXXXXXXXXXXXX XXXXXXXXXXXXXXXX
0380 : XXXXXXXXXXXXXXXX XXXXXXXXXXXXXXXX XXXXXXXXXXXXXXXX XXXXXXXXXXXXXXXX
03C0 : XXXXXXXXXXXXXXXX XXXXXXXXXXXXXXXX XXXXXXXXXXXXXXXX XXXXXXXXXXXXXXXX
0400 : XXXXXXXXXXXXXXXX XXXXXXXXXXXXXXXX XXXXXXXXXXXXXXXX XXXXXXXXXXXXXXXX
0440 : XXXXXXXXXXXXXXXX XXXXXXXXXXXXXXXX XXXXXXXXXXXXXXXX XXXXXXXXXXXXXXXX
0480 : XXXXXXXXXXXXXXXX XXXXXXXXXXXXXXXX XXXXXXXXXXXXXXXX XXXXXXXXXXXXXXXX
04C0 : XXXXXXXXXXXXXXXX XXXXXXXXXXXXXXXX XXXXXXXXXXXXXXXX XXXXXXXXXXXXXXXX
0500 : XXXXXXXXXXXXXXXX XXXXXXXXXXXXXXXX XXXXXXXXXXXXXXXX XXXXXXXXXXXXXXXX
0540 : XXXXXXXXXXXXXXXX XXXXXXXXXXXXXXXX XXXXXXXXXXXXXXXX XXXXXXXXXXXXXXXX
0580 : XXXXXXXXXXXXXXXX XXXXXXXXXXXXXXXX XXXXXXXXXXXXXXXX XXXXXXXXXXXXXXXX

All other memory blocks unused.

Program Memory Words Used:   729

